///////////////////////////////////////////////////////////////////////////////
//                                                                            /
// IAR 8051 C/C++ Compiler V7.30B/W32                   02/Apr/2018  11:06:41 /
// Copyright 2004-2007 IAR Systems. All rights reserved.                      /
//                                                                            /
//    Core               =  plain                                             /
//    Code model         =  near                                              /
//    Data model         =  large                                             /
//    Calling convention =  xdata reentrant                                   /
//    Constant location  =  data                                              /
//    Dptr setup         =  1,16                                              /
//    Source file        =  E:\Project_1500V_dec20\ED\code\AndStackED\source\ /
//                          main.c                                            /
//    Command line       =  E:\Project_1500V_dec20\ED\code\AndStackED\source\ /
//                          main.c -D NDEBUG -D chip=2510 -D LOWER_IMAGE -D   /
//                          MidString -D MIDSTRING -lCN                       /
//                          "E:\Project_1500V_dec20\ED\iar\Build .hex for     /
//                          CC2510\List\" -lA "E:\Project_1500V_dec20\ED\iar\ /
//                          Build .hex for CC2510\List\" -o                   /
//                          "E:\Project_1500V_dec20\ED\iar\Build .hex for     /
//                          CC2510\Obj\" -e -z9 --core=plain --dptr=16,1      /
//                          --data_model=large --code_model=near              /
//                          --calling_convention=xdata_reentrant              /
//                          --place_constants=data --nr_virtual_regs 32 -I    /
//                          E:\Project_1500V_dec20\ED\iar\..\CODE\AndStackED\ /
//                          INCLUDE\ -I E:\Project_1500V_dec20\ED\iar\..\CODE /
//                          \LIBRARY\HAL\INCLUDE\ -I                          /
//                          E:\Project_1500V_dec20\ED\iar\..\CODE\LIBRARY\HAL /
//                          _BUI\INCLUDE\ -I C:\IARSystems-CD-730B\8051\INC\  /
//    List file          =  E:\Project_1500V_dec20\ED\iar\Build .hex for      /
//                          CC2510\List\main.s51                              /
//                                                                            /
//                                                                            /
///////////////////////////////////////////////////////////////////////////////

        NAME main

        RTMODEL "__calling_convention", "xdata_reentrant"
        RTMODEL "__code_model", "near"
        RTMODEL "__core", "plain"
        RTMODEL "__data_model", "large"
        RTMODEL "__dptr_size", "16"
        RTMODEL "__extended_stack", "disabled"
        RTMODEL "__location_for_constants", "data"
        RTMODEL "__number_of_dptrs", "1"
        RTMODEL "__rt_version", "1"

        RSEG DOVERLAY:DATA:NOROOT(0)
        RSEG IOVERLAY:IDATA:NOROOT(0)
        RSEG ISTACK:IDATA:NOROOT(0)
        RSEG PSTACK:XDATA:NOROOT(0)
        RSEG XSTACK:XDATA:NOROOT(0)

        EXTERN ?CALL_IND
        EXTERN ?DEALLOC_XSTACK8
        EXTERN ?FLT_ADD
        EXTERN ?FLT_DIV
        EXTERN ?FLT_LT
        EXTERN ?FLT_MUL
        EXTERN ?FLT_SUB
        EXTERN ?FLT_TO_L
        EXTERN ?FUNC_ENTER_XDATA
        EXTERN ?FUNC_LEAVE_XDATA
        EXTERN ?L_ADD_TO_X
        EXTERN ?L_EQ_X
        EXTERN ?L_MOV_TO_X
        EXTERN ?L_MOV_X
        EXTERN ?L_SUB_X
        EXTERN ?L_TO_FLT
        EXTERN ?PUSH_XSTACK_I_TWO
        EXTERN ?SC_DIV_MOD
        EXTERN ?SS_SHR
        EXTERN ?S_DIV_MOD
        EXTERN ?S_SHL
        EXTERN ?UC_SWITCH_DENSE
        EXTERN ?UC_SWITCH_SPARSE
        EXTERN ?UL_GT_X
        EXTERN ?UL_TO_FLT
        EXTERN ?V0
        EXTERN ?XSTACK_DISP0_8
        EXTERN __INIT_XDATA_I
        EXTERN __INIT_XDATA_Z

        PUBWEAK ADCCFG
        PUBWEAK ADCCON1
        PUBWEAK ADCCON3
        PUBWEAK ADCH
        PUBWEAK ADCL
        PUBWEAK CLKCON
        PUBWEAK DMAARM
        PUBWEAK FADDRH
        PUBWEAK FCTL
        PUBWEAK FWT
        PUBWEAK IEN2
        PUBLIC ModuleOffRememberedPtr
        PUBWEAK P0DIR
        PUBWEAK P0INP
        PUBWEAK P0SEL
        PUBWEAK P1DIR
        PUBWEAK P1SEL
        PUBWEAK P2SEL
        PUBWEAK PERCFG
        PUBWEAK RFIF
        PUBWEAK RFIM
        PUBWEAK RFST
        PUBWEAK RNDH
        PUBWEAK RNDL
        PUBWEAK S1CON
        PUBWEAK SLEEP
        PUBWEAK T1CC0H
        PUBWEAK T1CC0L
        PUBWEAK T1CCTL0
        PUBWEAK T1CNTH
        PUBWEAK T1CNTL
        PUBWEAK T1CTL
        PUBWEAK T3CC0
        PUBWEAK T3CC1
        PUBWEAK T3CCTL0
        PUBWEAK T3CCTL1
        PUBWEAK T3CTL
        PUBWEAK WDCTL
        PUBWEAK _A_IEN0
        PUBWEAK _A_IEN1
        PUBWEAK _A_P1
        PUBWEAK __Constant_0
        PUBWEAK __Constant_3f800000
        PUBWEAK __Constant_42c80000
        PUBWEAK __Constant_447a0000
        PUBWEAK __Constant_c1c80000
        PUBLIC _coeff
        PUBLIC _datarate
        PUBLIC _gw_delay
        PUBLIC _join_slot
        PUBLIC _loop_delay
        PUBLIC _slot
        PUBLIC abs
        FUNCTION abs,0203H
        ARGFRAME XSTACK, 15, STACK
        ARGFRAME IOVERLAY, 0, STATIC
        ARGFRAME DOVERLAY, 0, STATIC
        PUBLIC adcBuf
        PUBLIC adcChannels
        PUBLIC adcCount
        PUBLIC adcs
        PUBLIC adcs16
        PUBLIC adcsTemp
        PUBLIC alignMPP
        PUBLIC armAdcs
        FUNCTION armAdcs,0603H
        ARGFRAME XSTACK, 0, STACK
        LOCFRAME ISTACK, 2, STACK
        PUBLIC base_ptr
        PUBLIC bufferCount
        PUBLIC bunchCount
        PUBLIC calibrationRepeat
        PUBLIC ch255
        PUBLIC checkForFETFailure
        PUBLIC checkItOut
        FUNCTION checkItOut,0203H
        ARGFRAME XSTACK, 0, STACK
        LOCFRAME ISTACK, 3, STACK
        PUBLIC checkMore
        FUNCTION checkMore,0201H
        ARGFRAME XSTACK, 0, STACK
        ARGFRAME IOVERLAY, 0, STATIC
        ARGFRAME DOVERLAY, 0, STATIC
        LOCFRAME XSTACK, 9, STACK
        PUBLIC checkPD
        PUBLIC checkVin
        FUNCTION checkVin,021203H
        ARGFRAME XSTACK, 31, STACK
        ARGFRAME IOVERLAY, 0, STATIC
        ARGFRAME DOVERLAY, 0, STATIC
        LOCFRAME ISTACK, 2, STACK
        LOCFRAME XSTACK, 15, STACK
        PUBLIC checkVoutOnT
        PUBLIC checkVref
        PUBLIC cmdCount
        PUBLIC coefficients_buffer
        PUBLIC computeADCs
        FUNCTION computeADCs,021203H
        ARGFRAME XSTACK, 11, STACK
        ARGFRAME IOVERLAY, 0, STATIC
        ARGFRAME DOVERLAY, 0, STATIC
        LOCFRAME ISTACK, 1, STACK
        LOCFRAME XSTACK, 31, STACK
        PUBLIC computeAdjustment
        FUNCTION computeAdjustment,0203H
        ARGFRAME XSTACK, 31, STACK
        ARGFRAME IOVERLAY, 0, STATIC
        ARGFRAME DOVERLAY, 0, STATIC
        LOCFRAME XSTACK, 15, STACK
        PUBLIC computeTI
        FUNCTION computeTI,0203H
        ARGFRAME XSTACK, 0, STACK
        LOCFRAME ISTACK, 3, STACK
        PUBLIC copyMac
        FUNCTION copyMac,021203H
        ARGFRAME XSTACK, 8, STACK
        ARGFRAME IOVERLAY, 0, STATIC
        ARGFRAME DOVERLAY, 0, STATIC
        PUBLIC cube_coeff
        FUNCTION cube_coeff,0203H
        ARGFRAME XSTACK, 31, STACK
        ARGFRAME IOVERLAY, 0, STATIC
        ARGFRAME DOVERLAY, 0, STATIC
        LOCFRAME XSTACK, 15, STACK
        PUBLIC curBunch
        PUBLIC curChannel
        PUBLIC cycles2HardKick
        PUBLIC cycles2SoftKick
        PUBLIC cycles2Step10Channel
        PUBLIC cyclesFromStart
        PUBLIC cyclesTo10
        PUBLIC cyclesTo500
        PUBLIC cyclesToHop
        PUBLIC cyclesToStep500Channel
        PUBLIC `dec`
        FUNCTION `dec`,0203H
        ARGFRAME XSTACK, 11, STACK
        ARGFRAME IOVERLAY, 0, STATIC
        ARGFRAME DOVERLAY, 0, STATIC
        LOCFRAME ISTACK, 2, STACK
        PUBLIC decodeDelay
        PUBLIC defFreq
        PUBLIC def_freq
        FUNCTION def_freq,021203H
        ARGFRAME XSTACK, 15, STACK
        ARGFRAME IOVERLAY, 0, STATIC
        ARGFRAME DOVERLAY, 0, STATIC
        PUBLIC enable2SendData
        PUBLIC from_flash
        PUBLIC gnd_shift
        PUBLIC got_gw
        PUBLIC iOutIin1Diff
        PUBLIC iOutIin2Diff
        PUBLIC indices
        PUBLIC init
        FUNCTION init,021203H
        ARGFRAME XSTACK, 0, STACK
        ARGFRAME IOVERLAY, 0, STATIC
        ARGFRAME DOVERLAY, 0, STATIC
        LOCFRAME XSTACK, 15, STACK
        PUBLIC invRef
        PUBLIC invVref0
        PUBLIC isCalibrationPackage
        PUBLIC isOnTestStand
        PUBLIC joinRequestWasSend
        PUBLIC last
        PUBLIC lastCycle
        PUBLIC lastOff
        PUBLIC lastRssi
        PUBLIC lin
        FUNCTION lin,021203H
        ARGFRAME XSTACK, 31, STACK
        ARGFRAME IOVERLAY, 0, STATIC
        ARGFRAME DOVERLAY, 0, STATIC
        LOCFRAME XSTACK, 15, STACK
        PUBLIC lin_coeff
        FUNCTION lin_coeff,0203H
        ARGFRAME XSTACK, 31, STACK
        ARGFRAME IOVERLAY, 0, STATIC
        ARGFRAME DOVERLAY, 0, STATIC
        LOCFRAME XSTACK, 15, STACK
        PUBLIC lin_coeff_t
        FUNCTION lin_coeff_t,0203H
        ARGFRAME XSTACK, 15, STACK
        ARGFRAME IOVERLAY, 0, STATIC
        ARGFRAME DOVERLAY, 0, STATIC
        LOCFRAME XSTACK, 15, STACK
        PUBLIC longTickWait
        FUNCTION longTickWait,021203H
        ARGFRAME XSTACK, 0, STACK
        ARGFRAME IOVERLAY, 0, STATIC
        ARGFRAME DOVERLAY, 0, STATIC
        LOCFRAME ISTACK, 1, STACK
        PUBLIC main
        FUNCTION main,0a1a03H
        ARGFRAME XSTACK, 0, STACK
        LOCFRAME ISTACK, 2, STACK
        PUBLIC main_loop
        FUNCTION main_loop,0a1203H
        ARGFRAME XSTACK, 0, STACK
        ARGFRAME IOVERLAY, 0, STATIC
        ARGFRAME DOVERLAY, 0, STATIC
        LOCFRAME ISTACK, 2, STACK
        LOCFRAME XSTACK, 11, STACK
        PUBLIC mdmcfg4_cycles
        PUBLIC milliSeconds
        PUBLIC minutes
        PUBLIC ms
        PUBLIC msLast
        PUBLIC mult
        FUNCTION mult,0203H
        ARGFRAME XSTACK, 2, STACK
        LOCFRAME XSTACK, 15, STACK
        PUBLIC multSaver
        FUNCTION multSaver,0203H
        ARGFRAME XSTACK, 0, STACK
        LOCFRAME XSTACK, 15, STACK
        PUBLIC ndev
        PUBLIC nextIV
        PUBLIC nextKey
        PUBLIC nextSlot
        FUNCTION nextSlot,0203H
        ARGFRAME XSTACK, 0, STACK
        LOCFRAME XSTACK, 9, STACK
        PUBLIC oc2timer
        FUNCTION oc2timer,0203H
        ARGFRAME XSTACK, 19, STACK
        ARGFRAME IOVERLAY, 0, STATIC
        ARGFRAME DOVERLAY, 0, STATIC
        LOCFRAME XSTACK, 19, STACK
        PUBLIC ocShortCircuitLimit
        PUBLIC ov_startup
        FUNCTION ov_startup,0203H
        ARGFRAME XSTACK, 15, STACK
        ARGFRAME IOVERLAY, 0, STATIC
        ARGFRAME DOVERLAY, 0, STATIC
        LOCFRAME ISTACK, 2, STACK
        PUBLIC packagePrepared
        PUBLIC page
        PUBLIC parseCommands
        FUNCTION parseCommands,0a1203H
        ARGFRAME XSTACK, 15, STACK
        ARGFRAME IOVERLAY, 0, STATIC
        ARGFRAME DOVERLAY, 0, STATIC
        LOCFRAME ISTACK, 2, STACK
        LOCFRAME XSTACK, 15, STACK
        PUBLIC parseGWPackage
        FUNCTION parseGWPackage,021203H
        ARGFRAME XSTACK, 11, STACK
        ARGFRAME IOVERLAY, 0, STATIC
        ARGFRAME DOVERLAY, 0, STATIC
        LOCFRAME ISTACK, 2, STACK
        LOCFRAME XSTACK, 17, STACK
        PUBLIC prepareCoeff
        FUNCTION prepareCoeff,021203H
        ARGFRAME XSTACK, 8, STACK
        ARGFRAME IOVERLAY, 0, STATIC
        ARGFRAME DOVERLAY, 0, STATIC
        LOCFRAME XSTACK, 19, STACK
        PUBLIC prepareData
        FUNCTION prepareData,021203H
        ARGFRAME XSTACK, 11, STACK
        ARGFRAME IOVERLAY, 0, STATIC
        ARGFRAME DOVERLAY, 0, STATIC
        LOCFRAME ISTACK, 1, STACK
        LOCFRAME XSTACK, 8, STACK
        PUBLIC prepareJoinRequest
        FUNCTION prepareJoinRequest,021203H
        ARGFRAME XSTACK, 11, STACK
        ARGFRAME IOVERLAY, 0, STATIC
        ARGFRAME DOVERLAY, 0, STATIC
        LOCFRAME ISTACK, 2, STACK
        PUBLIC prepareScaling
        FUNCTION prepareScaling,021603H
        ARGFRAME XSTACK, 8, STACK
        ARGFRAME IOVERLAY, 0, STATIC
        ARGFRAME DOVERLAY, 0, STATIC
        LOCFRAME XSTACK, 8, STACK
        PUBLIC prepareSpecial
        FUNCTION prepareSpecial,021203H
        ARGFRAME XSTACK, 19, STACK
        ARGFRAME IOVERLAY, 0, STATIC
        ARGFRAME DOVERLAY, 0, STATIC
        LOCFRAME XSTACK, 8, STACK
        PUBLIC prepareTxBuffer
        FUNCTION prepareTxBuffer,021201H
        ARGFRAME XSTACK, 8, STACK
        ARGFRAME IOVERLAY, 0, STATIC
        ARGFRAME DOVERLAY, 0, STATIC
        LOCFRAME XSTACK, 11, STACK
        PUBLIC prevRssi
        PUBLIC processCheck
        FUNCTION processCheck,021203H
        ARGFRAME XSTACK, 0, STACK
        LOCFRAME XSTACK, 15, STACK
        PUBLIC processingTime
        PUBLIC pt
        PUBLIC ptr2RunningTick
        PUBLIC quartz
        FUNCTION quartz,0a1203H
        ARGFRAME XSTACK, 0, STACK
        ARGFRAME IOVERLAY, 0, STATIC
        ARGFRAME DOVERLAY, 0, STATIC
        LOCFRAME XSTACK, 8, STACK
        PUBLIC rcgen
        PUBLIC readNextValue
        FUNCTION readNextValue,021603H
        ARGFRAME XSTACK, 0, STACK
        LOCFRAME ISTACK, 1, STACK
        LOCFRAME XSTACK, 11, STACK
        PUBLIC read_page
        FUNCTION read_page,021203H
        ARGFRAME XSTACK, 15, STACK
        ARGFRAME IOVERLAY, 0, STATIC
        ARGFRAME DOVERLAY, 0, STATIC
        LOCFRAME ISTACK, 2, STACK
        PUBLIC receive
        FUNCTION receive,0203H
        ARGFRAME XSTACK, 15, STACK
        ARGFRAME IOVERLAY, 0, STATIC
        ARGFRAME DOVERLAY, 0, STATIC
        LOCFRAME ISTACK, 3, STACK
        PUBLIC reportFlashCheck
        PUBLIC reportScaling
        PUBLIC resetReason
        PUBLIC restoreRadio
        FUNCTION restoreRadio,0201H
        ARGFRAME XSTACK, 0, STACK
        LOCFRAME ISTACK, 2, STACK
        PUBLIC savePB
        FUNCTION savePB,0a1201H
        ARGFRAME XSTACK, 13, STACK
        ARGFRAME IOVERLAY, 0, STATIC
        ARGFRAME DOVERLAY, 0, STATIC
        LOCFRAME ISTACK, 2, STACK
        PUBLIC saved_channel
        PUBLIC search_stat
        PUBLIC seconds
        PUBLIC sendData
        FUNCTION sendData,021203H
        ARGFRAME XSTACK, 15, STACK
        ARGFRAME IOVERLAY, 0, STATIC
        ARGFRAME DOVERLAY, 0, STATIC
        LOCFRAME ISTACK, 3, STACK
        PUBLIC setByte
        FUNCTION setByte,0a1203H
        ARGFRAME XSTACK, 13, STACK
        ARGFRAME IOVERLAY, 0, STATIC
        ARGFRAME DOVERLAY, 0, STATIC
        LOCFRAME ISTACK, 2, STACK
        LOCFRAME XSTACK, 11, STACK
        PUBLIC setFloat
        FUNCTION setFloat,0a1203H
        ARGFRAME XSTACK, 13, STACK
        ARGFRAME IOVERLAY, 0, STATIC
        ARGFRAME DOVERLAY, 0, STATIC
        LOCFRAME XSTACK, 19, STACK
        PUBLIC setInt
        FUNCTION setInt,0a1203H
        ARGFRAME XSTACK, 13, STACK
        ARGFRAME IOVERLAY, 0, STATIC
        ARGFRAME DOVERLAY, 0, STATIC
        LOCFRAME ISTACK, 1, STACK
        LOCFRAME XSTACK, 8, STACK
        PUBLIC setOC
        PUBLIC setupRadio
        FUNCTION setupRadio,021203H
        ARGFRAME XSTACK, 15, STACK
        ARGFRAME IOVERLAY, 0, STATIC
        ARGFRAME DOVERLAY, 0, STATIC
        LOCFRAME ISTACK, 2, STACK
        PUBLIC setupRadioDR
        FUNCTION setupRadioDR,021203H
        ARGFRAME XSTACK, 0, STACK
        ARGFRAME IOVERLAY, 0, STATIC
        ARGFRAME DOVERLAY, 0, STATIC
        LOCFRAME ISTACK, 1, STACK
        LOCFRAME XSTACK, 8, STACK
        PUBLIC setupRepeater
        FUNCTION setupRepeater,021203H
        ARGFRAME XSTACK, 15, STACK
        ARGFRAME IOVERLAY, 0, STATIC
        ARGFRAME DOVERLAY, 0, STATIC
        LOCFRAME ISTACK, 2, STACK
        PUBLIC shortCircuitProtectionOff
        PUBLIC shortCircuitProtectionOn
        PUBLIC si
        PUBLIC sleepCounter
        PUBLIC softKick
        FUNCTION softKick,021203H
        ARGFRAME XSTACK, 15, STACK
        ARGFRAME IOVERLAY, 0, STATIC
        ARGFRAME DOVERLAY, 0, STATIC
        LOCFRAME ISTACK, 3, STACK
        PUBLIC switchFrom255Lim
        PUBLIC switchTo255
        FUNCTION switchTo255,021203H
        ARGFRAME XSTACK, 15, STACK
        ARGFRAME IOVERLAY, 0, STATIC
        ARGFRAME DOVERLAY, 0, STATIC
        LOCFRAME ISTACK, 2, STACK
        PUBLIC switchTo255Lim
        PUBLIC t
        PUBLIC tempAdcsCount
        PUBLIC temperatureProtectionDelay
        PUBLIC theKey
        PUBLIC theOC
        PUBLIC theRealOffset
        PUBLIC the_frequency
        PUBLIC tickWait
        FUNCTION tickWait,0203H
        ARGFRAME XSTACK, 15, STACK
        ARGFRAME IOVERLAY, 0, STATIC
        ARGFRAME DOVERLAY, 0, STATIC
        LOCFRAME XSTACK, 9, STACK
        PUBLIC ticks2ProcessCmd
        PUBLIC turnOnFlag
        PUBLIC txDisabled
        PUBLIC utc
        PUBLIC utcLast
        PUBLIC vref
        PUBLIC was_listening
        PUBLIC was_repeater
        
        CFI Names cfiNames0
        CFI StackFrame CFA_SP SP DATA
        CFI StackFrame CFA_PSP16 PSP16 XDATA
        CFI StackFrame CFA_XSP16 XSP16 XDATA
        CFI StaticOverlayFrame CFA_IOVERLAY IOVERLAY
        CFI StaticOverlayFrame CFA_DOVERLAY DOVERLAY
        CFI Resource `PSW.CY`:1, `B.BR0`:1, `B.BR1`:1, `B.BR2`:1, `B.BR3`:1
        CFI Resource `B.BR4`:1, `B.BR5`:1, `B.BR6`:1, `B.BR7`:1, `VB.BR8`:1
        CFI Resource `VB.BR9`:1, `VB.BR10`:1, `VB.BR11`:1, `VB.BR12`:1
        CFI Resource `VB.BR13`:1, `VB.BR14`:1, `VB.BR15`:1, VB:8, B:8, A:8
        CFI Resource PSW:8, DPL0:8, DPH0:8, R0:8, R1:8, R2:8, R3:8, R4:8, R5:8
        CFI Resource R6:8, R7:8, V0:8, V1:8, V2:8, V3:8, V4:8, V5:8, V6:8, V7:8
        CFI Resource V8:8, V9:8, V10:8, V11:8, V12:8, V13:8, V14:8, V15:8
        CFI Resource V16:8, V17:8, V18:8, V19:8, V20:8, V21:8, V22:8, V23:8
        CFI Resource V24:8, V25:8, V26:8, V27:8, V28:8, V29:8, V30:8, V31:8
        CFI Resource SP:8, PSPH:8, PSPL:8, PSP16:16, XSPH:8, XSPL:8, XSP16:16
        CFI VirtualResource ?RET:16, ?RET_HIGH:8, ?RET_LOW:8
        CFI ResourceParts PSP16 PSPH, PSPL
        CFI ResourceParts XSP16 XSPH, XSPL
        CFI ResourceParts ?RET ?RET_HIGH, ?RET_LOW
        CFI EndNames cfiNames0
        
        CFI Common cfiCommon0 Using cfiNames0
        CFI CodeAlign 1
        CFI DataAlign -1
        CFI ReturnAddress ?RET CODE
        CFI CFA_DOVERLAY Used
        CFI CFA_IOVERLAY Used
        CFI CFA_SP SP+-2
        CFI CFA_PSP16 PSP16+0
        CFI CFA_XSP16 XSP16+0
        CFI `PSW.CY` SameValue
        CFI `B.BR0` SameValue
        CFI `B.BR1` SameValue
        CFI `B.BR2` SameValue
        CFI `B.BR3` SameValue
        CFI `B.BR4` SameValue
        CFI `B.BR5` SameValue
        CFI `B.BR6` SameValue
        CFI `B.BR7` SameValue
        CFI `VB.BR8` SameValue
        CFI `VB.BR9` SameValue
        CFI `VB.BR10` SameValue
        CFI `VB.BR11` SameValue
        CFI `VB.BR12` SameValue
        CFI `VB.BR13` SameValue
        CFI `VB.BR14` SameValue
        CFI `VB.BR15` SameValue
        CFI VB SameValue
        CFI B Undefined
        CFI A Undefined
        CFI PSW SameValue
        CFI DPL0 SameValue
        CFI DPH0 SameValue
        CFI R0 Undefined
        CFI R1 Undefined
        CFI R2 Undefined
        CFI R3 Undefined
        CFI R4 Undefined
        CFI R5 Undefined
        CFI R6 SameValue
        CFI R7 SameValue
        CFI V0 SameValue
        CFI V1 SameValue
        CFI V2 SameValue
        CFI V3 SameValue
        CFI V4 SameValue
        CFI V5 SameValue
        CFI V6 SameValue
        CFI V7 SameValue
        CFI V8 SameValue
        CFI V9 SameValue
        CFI V10 SameValue
        CFI V11 SameValue
        CFI V12 SameValue
        CFI V13 SameValue
        CFI V14 SameValue
        CFI V15 SameValue
        CFI V16 SameValue
        CFI V17 SameValue
        CFI V18 SameValue
        CFI V19 SameValue
        CFI V20 SameValue
        CFI V21 SameValue
        CFI V22 SameValue
        CFI V23 SameValue
        CFI V24 SameValue
        CFI V25 SameValue
        CFI V26 SameValue
        CFI V27 SameValue
        CFI V28 SameValue
        CFI V29 SameValue
        CFI V30 SameValue
        CFI V31 SameValue
        CFI PSPH Undefined
        CFI PSPL Undefined
        CFI XSPH Undefined
        CFI XSPL Undefined
        CFI ?RET Concat
        CFI ?RET_HIGH Frame(CFA_SP, 2)
        CFI ?RET_LOW Frame(CFA_SP, 1)
        CFI EndCommon cfiCommon0
        
        
        CFI Common cfiCommon1 Using cfiNames0
        CFI CodeAlign 1
        CFI DataAlign -1
        CFI ReturnAddress ?RET CODE
        CFI CFA_DOVERLAY Used
        CFI CFA_IOVERLAY Used
        CFI CFA_SP SP+-2
        CFI CFA_PSP16 PSP16+0
        CFI CFA_XSP16 XSP16+0
        CFI `PSW.CY` SameValue
        CFI `B.BR0` SameValue
        CFI `B.BR1` SameValue
        CFI `B.BR2` SameValue
        CFI `B.BR3` SameValue
        CFI `B.BR4` SameValue
        CFI `B.BR5` SameValue
        CFI `B.BR6` SameValue
        CFI `B.BR7` SameValue
        CFI `VB.BR8` SameValue
        CFI `VB.BR9` SameValue
        CFI `VB.BR10` SameValue
        CFI `VB.BR11` SameValue
        CFI `VB.BR12` SameValue
        CFI `VB.BR13` SameValue
        CFI `VB.BR14` SameValue
        CFI `VB.BR15` SameValue
        CFI VB SameValue
        CFI B SameValue
        CFI A SameValue
        CFI PSW SameValue
        CFI DPL0 SameValue
        CFI DPH0 SameValue
        CFI R0 SameValue
        CFI R1 SameValue
        CFI R2 SameValue
        CFI R3 SameValue
        CFI R4 SameValue
        CFI R5 SameValue
        CFI R6 SameValue
        CFI R7 SameValue
        CFI V0 SameValue
        CFI V1 SameValue
        CFI V2 SameValue
        CFI V3 SameValue
        CFI V4 SameValue
        CFI V5 SameValue
        CFI V6 SameValue
        CFI V7 SameValue
        CFI V8 SameValue
        CFI V9 SameValue
        CFI V10 SameValue
        CFI V11 SameValue
        CFI V12 SameValue
        CFI V13 SameValue
        CFI V14 SameValue
        CFI V15 SameValue
        CFI V16 SameValue
        CFI V17 SameValue
        CFI V18 SameValue
        CFI V19 SameValue
        CFI V20 SameValue
        CFI V21 SameValue
        CFI V22 SameValue
        CFI V23 SameValue
        CFI V24 SameValue
        CFI V25 SameValue
        CFI V26 SameValue
        CFI V27 SameValue
        CFI V28 SameValue
        CFI V29 SameValue
        CFI V30 SameValue
        CFI V31 SameValue
        CFI PSPH Undefined
        CFI PSPL Undefined
        CFI XSPH Undefined
        CFI XSPL Undefined
        CFI ?RET Concat
        CFI ?RET_HIGH Frame(CFA_SP, 2)
        CFI ?RET_LOW Frame(CFA_SP, 1)
        CFI EndCommon cfiCommon1
        
        EXTERN mymemcpy
        FUNCTION mymemcpy,0202H
        ARGFRAME ISTACK, 2, STACK
        ARGFRAME PSTACK, 0, STACK
        ARGFRAME XSTACK, 19, STACK
        ARGFRAME IOVERLAY, 0, STATIC
        ARGFRAME DOVERLAY, 0, STATIC
        EXTERN radioConfigure
        FUNCTION radioConfigure,0202H
        ARGFRAME ISTACK, 0, STACK
        ARGFRAME PSTACK, 0, STACK
        ARGFRAME XSTACK, 8, STACK
        ARGFRAME IOVERLAY, 0, STATIC
        ARGFRAME DOVERLAY, 0, STATIC
        EXTERN zerofill
        FUNCTION zerofill,0202H
        ARGFRAME ISTACK, 2, STACK
        ARGFRAME PSTACK, 0, STACK
        ARGFRAME XSTACK, 19, STACK
        ARGFRAME IOVERLAY, 0, STATIC
        ARGFRAME DOVERLAY, 0, STATIC
        EXTERN load
        FUNCTION load,0202H
        ARGFRAME ISTACK, 2, STACK
        ARGFRAME PSTACK, 0, STACK
        ARGFRAME XSTACK, 15, STACK
        ARGFRAME IOVERLAY, 0, STATIC
        ARGFRAME DOVERLAY, 0, STATIC
        EXTERN wait_aes
        FUNCTION wait_aes,0202H
        ARGFRAME ISTACK, 2, STACK
        ARGFRAME PSTACK, 0, STACK
        ARGFRAME XSTACK, 15, STACK
        ARGFRAME IOVERLAY, 0, STATIC
        ARGFRAME DOVERLAY, 0, STATIC
        EXTERN setup_hopper
        FUNCTION setup_hopper,0202H
        ARGFRAME ISTACK, 0, STACK
        ARGFRAME PSTACK, 0, STACK
        ARGFRAME XSTACK, 15, STACK
        ARGFRAME IOVERLAY, 0, STATIC
        ARGFRAME DOVERLAY, 0, STATIC
        EXTERN dmaRadioSetup
        FUNCTION dmaRadioSetup,0202H
        ARGFRAME ISTACK, 0, STACK
        ARGFRAME PSTACK, 0, STACK
        ARGFRAME XSTACK, 15, STACK
        ARGFRAME IOVERLAY, 0, STATIC
        ARGFRAME DOVERLAY, 0, STATIC
        EXTERN convU
        FUNCTION convU,0202H
        ARGFRAME ISTACK, 0, STACK
        ARGFRAME PSTACK, 0, STACK
        ARGFRAME XSTACK, 31, STACK
        ARGFRAME IOVERLAY, 0, STATIC
        ARGFRAME DOVERLAY, 0, STATIC
        EXTERN hop
        FUNCTION hop,0202H
        ARGFRAME ISTACK, 0, STACK
        ARGFRAME PSTACK, 0, STACK
        ARGFRAME XSTACK, 11, STACK
        ARGFRAME IOVERLAY, 0, STATIC
        ARGFRAME DOVERLAY, 0, STATIC
        EXTERN reset
        FUNCTION reset,0202H
        ARGFRAME ISTACK, 2, STACK
        ARGFRAME PSTACK, 0, STACK
        ARGFRAME XSTACK, 13, STACK
        ARGFRAME IOVERLAY, 0, STATIC
        ARGFRAME DOVERLAY, 0, STATIC
        EXTERN mymemcmp
        FUNCTION mymemcmp,0202H
        ARGFRAME ISTACK, 0, STACK
        ARGFRAME PSTACK, 0, STACK
        ARGFRAME XSTACK, 15, STACK
        ARGFRAME IOVERLAY, 0, STATIC
        ARGFRAME DOVERLAY, 0, STATIC
        EXTERN `code`
        FUNCTION `code`,0202H
        ARGFRAME ISTACK, 0, STACK
        ARGFRAME PSTACK, 0, STACK
        ARGFRAME XSTACK, 17, STACK
        ARGFRAME IOVERLAY, 0, STATIC
        ARGFRAME DOVERLAY, 0, STATIC
        EXTERN convS
        FUNCTION convS,0202H
        ARGFRAME ISTACK, 0, STACK
        ARGFRAME PSTACK, 0, STACK
        ARGFRAME XSTACK, 31, STACK
        ARGFRAME IOVERLAY, 0, STATIC
        ARGFRAME DOVERLAY, 0, STATIC
        EXTERN halWait
        FUNCTION halWait,0202H
        ARGFRAME ISTACK, 0, STACK
        ARGFRAME PSTACK, 0, STACK
        ARGFRAME XSTACK, 8, STACK
        ARGFRAME IOVERLAY, 0, STATIC
        ARGFRAME DOVERLAY, 0, STATIC
        EXTERN addDF
        FUNCTION addDF,0202H
        ARGFRAME ISTACK, 0, STACK
        ARGFRAME PSTACK, 0, STACK
        ARGFRAME XSTACK, 31, STACK
        ARGFRAME IOVERLAY, 0, STATIC
        ARGFRAME DOVERLAY, 0, STATIC
        EXTERN substractGround
        FUNCTION substractGround,0202H
        ARGFRAME ISTACK, 0, STACK
        ARGFRAME PSTACK, 0, STACK
        ARGFRAME XSTACK, 31, STACK
        ARGFRAME IOVERLAY, 0, STATIC
        ARGFRAME DOVERLAY, 0, STATIC
        EXTERN refreshTheFlash
        FUNCTION refreshTheFlash,0202H
        ARGFRAME ISTACK, 0, STACK
        ARGFRAME PSTACK, 0, STACK
        ARGFRAME XSTACK, 11, STACK
        ARGFRAME IOVERLAY, 0, STATIC
        ARGFRAME DOVERLAY, 0, STATIC
        EXTERN initiateTransfer
        FUNCTION initiateTransfer,0202H
        ARGFRAME ISTACK, 2, STACK
        ARGFRAME PSTACK, 0, STACK
        ARGFRAME XSTACK, 0, STACK
        ARGFRAME IOVERLAY, 0, STATIC
        ARGFRAME DOVERLAY, 0, STATIC
        EXTERN delta
        EXTERN dmaConfig
        EXTERN flashCallback
        FUNCTION flashCallback,0602H
        EXTERN mdm_rate1
        EXTERN perRssiOffset
        EXTERN radioPktBuffer
        EXTERN radioPktBufferRx
        EXTERN radioPktBufferTx

// E:\Project_1500V_dec20\ED\code\AndStackED\source\main.c
//    1 /*==== DECLARATION CONTROL ===================================================*/
//    2 /*==== INCLUDES ==============================================================*/
//    3 
//    4 #include "hal_main.h"

        ASEGN SFR_AN:DATA:NOROOT,08fH
// unsigned char volatile __sfr P0INP
P0INP:
        DS 1

        ASEGN SFR_AN:DATA:NOROOT,090H
// union <unnamed> volatile __sfr _A_P1
_A_P1:
        DS 1

        ASEGN SFR_AN:DATA:NOROOT,091H
// unsigned char volatile __sfr RFIM
RFIM:
        DS 1

        ASEGN SFR_AN:DATA:NOROOT,09aH
// unsigned char volatile __sfr IEN2
IEN2:
        DS 1

        ASEGN SFR_AN:DATA:NOROOT,09bH
// unsigned char volatile __sfr S1CON
S1CON:
        DS 1

        ASEGN SFR_AN:DATA:NOROOT,0a8H
// union <unnamed> volatile __sfr _A_IEN0
_A_IEN0:
        DS 1

        ASEGN SFR_AN:DATA:NOROOT,0abH
// unsigned char volatile __sfr FWT
FWT:
        DS 1

        ASEGN SFR_AN:DATA:NOROOT,0adH
// unsigned char volatile __sfr FADDRH
FADDRH:
        DS 1

        ASEGN SFR_AN:DATA:NOROOT,0aeH
// unsigned char volatile __sfr FCTL
FCTL:
        DS 1

        ASEGN SFR_AN:DATA:NOROOT,0b4H
// unsigned char volatile __sfr ADCCON1
ADCCON1:
        DS 1

        ASEGN SFR_AN:DATA:NOROOT,0b6H
// unsigned char volatile __sfr ADCCON3
ADCCON3:
        DS 1

        ASEGN SFR_AN:DATA:NOROOT,0b8H
// union <unnamed> volatile __sfr _A_IEN1
_A_IEN1:
        DS 1

        ASEGN SFR_AN:DATA:NOROOT,0baH
// unsigned char volatile __sfr ADCL
ADCL:
        DS 1

        ASEGN SFR_AN:DATA:NOROOT,0bbH
// unsigned char volatile __sfr ADCH
ADCH:
        DS 1

        ASEGN SFR_AN:DATA:NOROOT,0bcH
// unsigned char volatile __sfr RNDL
RNDL:
        DS 1

        ASEGN SFR_AN:DATA:NOROOT,0bdH
// unsigned char volatile __sfr RNDH
RNDH:
        DS 1

        ASEGN SFR_AN:DATA:NOROOT,0beH
// unsigned char volatile __sfr SLEEP
SLEEP:
        DS 1

        ASEGN SFR_AN:DATA:NOROOT,0c6H
// unsigned char volatile __sfr CLKCON
CLKCON:
        DS 1

        ASEGN SFR_AN:DATA:NOROOT,0c9H
// unsigned char volatile __sfr WDCTL
WDCTL:
        DS 1

        ASEGN SFR_AN:DATA:NOROOT,0cbH
// unsigned char volatile __sfr T3CTL
T3CTL:
        DS 1

        ASEGN SFR_AN:DATA:NOROOT,0ccH
// unsigned char volatile __sfr T3CCTL0
T3CCTL0:
        DS 1

        ASEGN SFR_AN:DATA:NOROOT,0cdH
// unsigned char volatile __sfr T3CC0
T3CC0:
        DS 1

        ASEGN SFR_AN:DATA:NOROOT,0ceH
// unsigned char volatile __sfr T3CCTL1
T3CCTL1:
        DS 1

        ASEGN SFR_AN:DATA:NOROOT,0cfH
// unsigned char volatile __sfr T3CC1
T3CC1:
        DS 1

        ASEGN SFR_AN:DATA:NOROOT,0d6H
// unsigned char volatile __sfr DMAARM
DMAARM:
        DS 1

        ASEGN SFR_AN:DATA:NOROOT,0daH
// unsigned char volatile __sfr T1CC0L
T1CC0L:
        DS 1

        ASEGN SFR_AN:DATA:NOROOT,0dbH
// unsigned char volatile __sfr T1CC0H
T1CC0H:
        DS 1

        ASEGN SFR_AN:DATA:NOROOT,0e1H
// unsigned char volatile __sfr RFST
RFST:
        DS 1

        ASEGN SFR_AN:DATA:NOROOT,0e2H
// unsigned char volatile __sfr T1CNTL
T1CNTL:
        DS 1

        ASEGN SFR_AN:DATA:NOROOT,0e3H
// unsigned char volatile __sfr T1CNTH
T1CNTH:
        DS 1

        ASEGN SFR_AN:DATA:NOROOT,0e4H
// unsigned char volatile __sfr T1CTL
T1CTL:
        DS 1

        ASEGN SFR_AN:DATA:NOROOT,0e5H
// unsigned char volatile __sfr T1CCTL0
T1CCTL0:
        DS 1

        ASEGN SFR_AN:DATA:NOROOT,0e9H
// unsigned char volatile __sfr RFIF
RFIF:
        DS 1

        ASEGN SFR_AN:DATA:NOROOT,0f1H
// unsigned char volatile __sfr PERCFG
PERCFG:
        DS 1

        ASEGN SFR_AN:DATA:NOROOT,0f2H
// unsigned char volatile __sfr ADCCFG
ADCCFG:
        DS 1

        ASEGN SFR_AN:DATA:NOROOT,0f3H
// unsigned char volatile __sfr P0SEL
P0SEL:
        DS 1

        ASEGN SFR_AN:DATA:NOROOT,0f4H
// unsigned char volatile __sfr P1SEL
P1SEL:
        DS 1

        ASEGN SFR_AN:DATA:NOROOT,0f5H
// unsigned char volatile __sfr P2SEL
P2SEL:
        DS 1

        ASEGN SFR_AN:DATA:NOROOT,0fdH
// unsigned char volatile __sfr P0DIR
P0DIR:
        DS 1

        ASEGN SFR_AN:DATA:NOROOT,0feH
// unsigned char volatile __sfr P1DIR
P1DIR:
        DS 1
//    5 #include "main.h"
//    6 #include "parameter_block.h"
//    7 #include "commands.h"
//    8 //#include <stdio.h>
//    9 //#include <stdlib.h>
//   10 //#include <string.h>
//   11 
//   12 #define MKS_IN_TICK     500
//   13 #define TICKS_IN_SEC    2000
//   14 #define TICKS_IN_MS     2
//   15 /*
//   16 #define MKS_IN_TICK     200
//   17 #define TICKS_IN_SEC    5000
//   18 #define TICKS_IN_MS     5
//   19 */
//   20 //UINT32  _freq         = FREQUENCY_FCC_CC2511;

        RSEG XDATA_I:XDATA:NOROOT(0)
        DATA
//   21 INT16  _slot         = ( 40 * TICKS_IN_MS );
_slot:
        DS 2
        REQUIRE `?<Initializer for _slot>`
        REQUIRE __INIT_XDATA_I

        RSEG XDATA_I:XDATA:NOROOT(0)
        DATA
//   22 INT16  _join_slot    = ( 24 * TICKS_IN_MS );
_join_slot:
        DS 2
        REQUIRE `?<Initializer for _join_slot>`
        REQUIRE __INIT_XDATA_I
//   23 //#define  _slot         ( 40 * TICKS_IN_MS )
//   24 //#define  _join_slot    ( 24 * TICKS_IN_MS )

        RSEG XDATA_I:XDATA:NOROOT(0)
        DATA
//   25 INT16  _gw_delay     = ( 30 * TICKS_IN_MS );
_gw_delay:
        DS 2
        REQUIRE `?<Initializer for _gw_delay>`
        REQUIRE __INIT_XDATA_I

        RSEG XDATA_I:XDATA:NOROOT(0)
        DATA
//   26 INT16  _loop_delay   = ( 40 * TICKS_IN_MS );
_loop_delay:
        DS 2
        REQUIRE `?<Initializer for _loop_delay>`
        REQUIRE __INIT_XDATA_I
//   27 //#define  _gw_delay      ( 30 * TICKS_IN_MS )
//   28 //#define  _loop_delay     ( 40 * TICKS_IN_MS )

        RSEG XDATA_I:XDATA:NOROOT(0)
        DATA
//   29 BYTE    _datarate     = DATA_RATE_4_CC2511;
_datarate:
        DS 1
        REQUIRE `?<Initializer for _datarate>`
        REQUIRE __INIT_XDATA_I
//   30 
//   31 //#define _mppCycle            ( TICKS_IN_SEC / 16 ) 
//   32 #define _mppCycle            ( 60 * TICKS_IN_MS ) 
//   33 #define _dogFeeding          ( TICKS_IN_SEC / 16 )
//   34 #define _adjustFrequency     ( (UINT16)TICKS_IN_SEC * 2 )
//   35 #define _firstAdcMeasurement ( TICKS_IN_SEC / 50 )
//   36 //#define _adcMeasurement      ( TICKS_IN_SEC / 100 )
//   37 #define _adcMeasurement      ( 4 * TICKS_IN_MS )
//   38 #define _calibrationDelay    ( TICKS_IN_MS  )
//   39 
//   40 //void configureAdcs(void);
//   41 
//   42 //void feedTheDog(void);
//   43 //BYTE clearAndHop( BYTE p );
//   44 void tickWait(BYTE wait);
//   45 void rc(void);
//   46 void prepareData(void);
//   47 void sendData(BYTE *buffer, BOOL is500 );
//   48 void armAdcs(void);
//   49 void readNextValue(void);
//   50 void parseGWPackage(void);
//   51 //void calibrate(void);
//   52 void computeADCs(BOOL timeout, BOOL accumulateEnergy);
//   53 void prepareJoinRequest(void);
//   54 void prepareScaling(void);
//   55 //void prepareFlashCheck(void);
//   56 void setup500( BOOL flag );
//   57 BYTE *nextSlot(void);
//   58 void switchTo255(void);
//   59 
//   60 void parseCommands(BYTE l);
//   61 void setByte( BYTE reg, BYTE val );
//   62 
//   63 extern void flashCallback(void);
//   64 extern void setup_hopper(BYTE curch);
//   65 extern void hop(void);
//   66 
//   67 extern void wait_aes(void);
//   68 extern void load(const unsigned char what, char *ptr);
//   69 extern void code(    unsigned char what, unsigned char size,  char *from, char *to );
//   70 //extern BOOL initiateTransfer(BYTE *ptr, BYTE *addr, UINT16 len);
//   71 extern BOOL initiateTransfer(BYTE *ptr, BYTE *addr, BYTE len);
//   72 //extern void writeTheLatest(BYTE *ptr, BYTE len);
//   73 extern BOOL readTheLatest( BYTE *ptr, BYTE len);
//   74 
//   75 //#ifdef MidString
//   76 //void compute98(void);
//   77 //#endif
//   78 
//   79 #define loadKey( key )                  { load( 0x04, key );     wait_aes(); }
//   80 #define loadIV(  iv )                   { load( 0x06, iv  );     wait_aes(); }
//   81 #define encode( size,  from, to )       code( 0x00, size, from, to );
//   82 #define decode( size,  from, to )       code( 0x02, size, from, to );
//   83 
//   84 // must be even

        RSEG XDATA_Z:XDATA:NOROOT(0)
//   85 ParameterBlock page;
page:
        DS 242
        REQUIRE __INIT_XDATA_Z
//   86 //float energy       = 0.0;
//   87 //float deltaEnergy  = 0.0;

        RSEG XDATA_Z:XDATA:NOROOT(0)
//   88 BYTE *base_ptr = NULL;
base_ptr:
        DS 2
        REQUIRE __INIT_XDATA_Z
//   89 
//   90 //#define PAGESIZE 240
//   91 #define PAGESIZE 242
//   92 #define PAGEADDR 0x5C00
//   93 
//   94 //#define ENERGY_WRITE_LIMIT   ((BYTE *) (PAGEADDR + 0x3F0) )
//   95 #ifdef MidString 
//   96     #define KE (1E-3*20.0*1E-3*0.125 / 3600.0)
//   97 #else
//   98     #define KE (1E-3*2.0*1E-3*0.125  / 3600.0)
//   99 #endif

        RSEG XDATA_I:XDATA:NOROOT(0)
        DATA
//  100 BYTE  search_stat = 2;
search_stat:
        DS 1
        REQUIRE `?<Initializer for search_stat>`
        REQUIRE __INIT_XDATA_I
//  101 

        RSEG XDATA_Z:XDATA:NOROOT(0)
//  102 float invVref0 = 0;
invVref0:
        DS 4
        REQUIRE __INIT_XDATA_Z

        RSEG XDATA_Z:XDATA:NOROOT(0)
//  103 INT8 theRealOffset  = 0;
theRealOffset:
        DS 1
        REQUIRE __INIT_XDATA_Z
//  104 
//  105 /*==== PUBLIC FUNCTIONS ======================================================*/
//  106 #define BUFFER_SIZE 8
//  107 #define BUFFER_MASK 0x7    
//  108 #define N_CHANNELS  9
//  109 

        RSEG XDATA_Z:XDATA:NOROOT(0)
//  110 UINT16 adcBuf  [ N_CHANNELS ][ BUFFER_SIZE    ];
adcBuf:
        DS 144
        REQUIRE __INIT_XDATA_Z

        RSEG XDATA_Z:XDATA:NOROOT(0)
//  111 INT32  adcs[     N_CHANNELS ];
adcs:
        DS 36
        REQUIRE __INIT_XDATA_Z

        RSEG XDATA_Z:XDATA:NOROOT(0)
//  112 UINT16 adcs16[   N_CHANNELS ];
adcs16:
        DS 18
        REQUIRE __INIT_XDATA_Z
//  113 

        RSEG XDATA_Z:XDATA:NOROOT(0)
//  114 UINT16 adcsTemp[ N_CHANNELS ];
adcsTemp:
        DS 18
        REQUIRE __INIT_XDATA_Z

        RSEG XDATA_Z:XDATA:NOROOT(0)
//  115 BYTE tempAdcsCount = 0;
tempAdcsCount:
        DS 1
        REQUIRE __INIT_XDATA_Z
//  116 
//  117 extern BYTE mdm_rate1[6];
//  118 
//  119 UINT16            

        RSEG XDATA_Z:XDATA:NOROOT(0)
//  120        ticks2ProcessCmd = 0,       
ticks2ProcessCmd:
        DS 2
        REQUIRE __INIT_XDATA_Z

        RSEG XDATA_Z:XDATA:NOROOT(0)
//  121        cmdCount = 0,
cmdCount:
        DS 2
        REQUIRE __INIT_XDATA_Z

        RSEG XDATA_I:XDATA:NOROOT(0)
        DATA
//  122        lastCycle   = (40 * TICKS_IN_MS * 21),
lastCycle:
        DS 2
        REQUIRE `?<Initializer for lastCycle>`
        REQUIRE __INIT_XDATA_I

        RSEG XDATA_I:XDATA:NOROOT(0)
        DATA
//  123        cyclesTo500 = 120, cyclesTo10 = 220, cyclesToStep500Channel = 20, cycles2Step10Channel = 30,
cyclesTo500:
        DS 2
        REQUIRE `?<Initializer for cyclesTo500>`
        REQUIRE __INIT_XDATA_I

        RSEG XDATA_I:XDATA:NOROOT(0)
        DATA
cyclesTo10:
        DS 2
        REQUIRE `?<Initializer for cyclesTo10>`
        REQUIRE __INIT_XDATA_I

        RSEG XDATA_I:XDATA:NOROOT(0)
        DATA
cyclesToStep500Channel:
        DS 2
        REQUIRE `?<Initializer for cyclesToStep500Channel>`
        REQUIRE __INIT_XDATA_I

        RSEG XDATA_I:XDATA:NOROOT(0)
        DATA
cycles2Step10Channel:
        DS 2
        REQUIRE `?<Initializer for cycles2Step10Channel>`
        REQUIRE __INIT_XDATA_I

        RSEG XDATA_I:XDATA:NOROOT(0)
        DATA
//  124        cycles2SoftKick = 8, cycles2HardKick = 80, cyclesFromStart = 0;
cycles2SoftKick:
        DS 2
        REQUIRE `?<Initializer for cycles2SoftKick>`
        REQUIRE __INIT_XDATA_I

        RSEG XDATA_I:XDATA:NOROOT(0)
        DATA
cycles2HardKick:
        DS 2
        REQUIRE `?<Initializer for cycles2HardKick>`
        REQUIRE __INIT_XDATA_I

        RSEG XDATA_Z:XDATA:NOROOT(0)
cyclesFromStart:
        DS 2
        REQUIRE __INIT_XDATA_Z

        RSEG XDATA_Z:XDATA:NOROOT(0)
//  125 UINT16 temperatureProtectionDelay, decodeDelay;
temperatureProtectionDelay:
        DS 2
        REQUIRE __INIT_XDATA_Z

        RSEG XDATA_Z:XDATA:NOROOT(0)
decodeDelay:
        DS 2
        REQUIRE __INIT_XDATA_Z
//  126 
//  127 // 06/27/2017 - Firmware Version now stored in code
//  128 // Pattern is HHHHLLLL-A_BC, where HHHH is the FWVersionHigh value,
//  129 // LLLL is the FWVersionLow value, A is FWSuffixOne value and
//  130 // BC are the FWSuffixTwo and FWSuffixThree values.  The _ and the
//  131 // - are implied.
//  132 
//  133 static const UINT16  FWVersionHigh = 7000; // LBC need to place official version in code
//  134 static const UINT16  FWVersionLow = 11;
//  135 static const BYTE    FWSuffixOne = '1';
//  136 static const BYTE    FWSuffixTwo = 'B';
//  137 static const BYTE    FWSuffixThree = 'B';
//  138 
//  139 

        RSEG XDATA_Z:XDATA:NOROOT(0)
//  140 BYTE   curChannel = 0,  curBunch = 0,      
curChannel:
        DS 1
        REQUIRE __INIT_XDATA_Z

        RSEG XDATA_Z:XDATA:NOROOT(0)
curBunch:
        DS 1
        REQUIRE __INIT_XDATA_Z

        RSEG XDATA_Z:XDATA:NOROOT(0)
//  141        bufferCount = 0, adcCount = 0,  reportScaling = 0,       joinRequestWasSend = 0,
bufferCount:
        DS 1
        REQUIRE __INIT_XDATA_Z

        RSEG XDATA_Z:XDATA:NOROOT(0)
adcCount:
        DS 1
        REQUIRE __INIT_XDATA_Z

        RSEG XDATA_Z:XDATA:NOROOT(0)
reportScaling:
        DS 1
        REQUIRE __INIT_XDATA_Z

        RSEG XDATA_Z:XDATA:NOROOT(0)
joinRequestWasSend:
        DS 1
        REQUIRE __INIT_XDATA_Z

        RSEG XDATA_Z:XDATA:NOROOT(0)
//  142        resetReason,     theOC,         setOC,
resetReason:
        DS 1
        REQUIRE __INIT_XDATA_Z

        RSEG XDATA_Z:XDATA:NOROOT(0)
theOC:
        DS 1
        REQUIRE __INIT_XDATA_Z

        RSEG XDATA_Z:XDATA:NOROOT(0)
setOC:
        DS 1
        REQUIRE __INIT_XDATA_Z

        RSEG XDATA_Z:XDATA:NOROOT(0)
//  143        reportFlashCheck = 0,           calibrationRepeat = 4,   cyclesToHop = 0, 
reportFlashCheck:
        DS 1
        REQUIRE __INIT_XDATA_Z

        RSEG XDATA_I:XDATA:NOROOT(0)
        DATA
calibrationRepeat:
        DS 1
        REQUIRE `?<Initializer for calibrationRepeat>`
        REQUIRE __INIT_XDATA_I

        RSEG XDATA_Z:XDATA:NOROOT(0)
cyclesToHop:
        DS 1
        REQUIRE __INIT_XDATA_Z

        RSEG XDATA_Z:XDATA:NOROOT(0)
//  144        bunchCount = 0,                 got_gw = 0,              isOnTestStand = 0,
bunchCount:
        DS 1
        REQUIRE __INIT_XDATA_Z

        RSEG XDATA_Z:XDATA:NOROOT(0)
got_gw:
        DS 1
        REQUIRE __INIT_XDATA_Z

        RSEG XDATA_Z:XDATA:NOROOT(0)
isOnTestStand:
        DS 1
        REQUIRE __INIT_XDATA_Z

        RSEG XDATA_I:XDATA:NOROOT(0)
        DATA
//  145        ocShortCircuitLimit = 255;
ocShortCircuitLimit:
        DS 1
        REQUIRE `?<Initializer for ocShortCircuitLimit>`
        REQUIRE __INIT_XDATA_I
//  146 
//  147 
//  148 // Pointer to memory location tracking whether module can turn on,                                              
//  149 // and the three acceptable values. Module turning off because of                                               
//  150 // temperature is not tracked.  Pointer to memory location is                                                   
//  151 // constant.                                                                                                    

        RSEG XDATA_I:XDATA:NOROOT(0)
        DATA
//  152 BYTE * const ModuleOffRememberedPtr = ((BYTE *) 0xFFFD);
ModuleOffRememberedPtr:
        DS 2
        REQUIRE `?<Initializer for ModuleOffRememberedPtr>`
        REQUIRE __INIT_XDATA_I
//  153 static const BYTE ModuleStatusOff = 0xE7;
//  154 static const BYTE ModuleStatusOffFetFailure = 0x7E;
//  155 static const BYTE ModuleStatusCanTurnOn = 0x00;
//  156 
//  157 
//  158 /* 12/29/2017 BEGIN Protection global variables */
//  159 
//  160 static const BYTE ModuleStatusOffProtection = 0x6A;
//  161 static const BYTE ModuleStatusOffTemperature = 0xA6;
//  162 
//  163 static const BYTE NoProtectionsSetMask = 0x00;
//  164 static const BYTE VoutLimitMask = 0x040;
//  165 static const BYTE IoutLimitMask = 0x080;
//  166 static const BYTE VoutAndIoutLimitMask = 0xC0;
//  167 static const BYTE NotVoutAndIoutLimitMask = 0x3F;
//  168 static const BYTE NotVoutAndIoutLimitNoCountDownMask = 0x3E;
//  169 
//  170 static const BYTE TemperatureModuleOffMask = 0x20;
//  171 static const BYTE TemperatureSteppedDownMask = 0x10;
//  172 static const BYTE TemperatureModuleOffAndSteppedDownMask = 0x30;
//  173 static const BYTE NotTemperatureModuleOffAndSteppedDownMask = 0xCF;
//  174 
//  175 static const BYTE CountDownTimerActive = 0x01;
//  176 static const BYTE CountDownTimerNotActive = 0xFE;
//  177 
//  178 /* variable to track protection settings */

        RSEG XDATA_Z:XDATA:NOROOT(0)
//  179 static BYTE ProtectionLimitsExceeded = 0x00;
ProtectionLimitsExceeded:
        DS 1
        REQUIRE __INIT_XDATA_Z
//  180 
//  181 static const INT16 Volts_50 = 1666; /* 50 * 33.3333 as int16 */
//  182 static const INT16 Amps_1 = 1000;
//  183 
//  184 /* 12/29/2017 END Protection global variables */
//  185 

        RSEG XDATA_Z:XDATA:NOROOT(0)
//  186 BOOL   enable2SendData  = FALSE,       txDisabled = FALSE,                    alignMPP = TRUE,
enable2SendData:
        DS 1
        REQUIRE __INIT_XDATA_Z

        RSEG XDATA_Z:XDATA:NOROOT(0)
txDisabled:
        DS 1
        REQUIRE __INIT_XDATA_Z

        RSEG XDATA_I:XDATA:NOROOT(0)
        DATA
alignMPP:
        DS 1
        REQUIRE `?<Initializer for alignMPP>`
        REQUIRE __INIT_XDATA_I

        RSEG XDATA_Z:XDATA:NOROOT(0)
//  187        from_flash = FALSE,             /*zeroPackageWasNotReceived = FALSE,*/ turnOnFlag = FALSE,  isCalibrationPackage = FALSE,
from_flash:
        DS 1
        REQUIRE __INIT_XDATA_Z

        RSEG XDATA_Z:XDATA:NOROOT(0)
turnOnFlag:
        DS 1
        REQUIRE __INIT_XDATA_Z

        RSEG XDATA_Z:XDATA:NOROOT(0)
isCalibrationPackage:
        DS 1
        REQUIRE __INIT_XDATA_Z

        RSEG XDATA_Z:XDATA:NOROOT(0)
//  188        was_listening = FALSE, rcgen = FALSE,
was_listening:
        DS 1
        REQUIRE __INIT_XDATA_Z

        RSEG XDATA_Z:XDATA:NOROOT(0)
rcgen:
        DS 1
        REQUIRE __INIT_XDATA_Z

        RSEG XDATA_Z:XDATA:NOROOT(0)
//  189        ch255 = FALSE,                  packagePrepared = FALSE;//,                  real_cw_mode = FALSE;
ch255:
        DS 1
        REQUIRE __INIT_XDATA_Z

        RSEG XDATA_Z:XDATA:NOROOT(0)
packagePrepared:
        DS 1
        REQUIRE __INIT_XDATA_Z

        RSEG XDATA_I:XDATA:NOROOT(0)
        DATA
//  190 INT16 gnd_shift = -600;
gnd_shift:
        DS 2
        REQUIRE `?<Initializer for gnd_shift>`
        REQUIRE __INIT_XDATA_I
//  191 
//  192 //UINT16 Vout98 = 0; 
//  193 //INT16  Cur98  = 0;
//  194 

        RSEG XDATA_Z:XDATA:NOROOT(0)
//  195 UINT32 utc = 0;
utc:
        DS 4
        REQUIRE __INIT_XDATA_Z

        RSEG XDATA_Z:XDATA:NOROOT(0)
//  196 UINT16 ms  = 0;
ms:
        DS 2
        REQUIRE __INIT_XDATA_Z
//  197 //UINT16 ticks2Prepare = 0;
//  198 

        RSEG XDATA_Z:XDATA:NOROOT(0)
//  199 UINT32 utcLast = 0;
utcLast:
        DS 4
        REQUIRE __INIT_XDATA_Z

        RSEG XDATA_Z:XDATA:NOROOT(0)
//  200 UINT16 msLast = 0,  processingTime, pt;
msLast:
        DS 2
        REQUIRE __INIT_XDATA_Z

        RSEG XDATA_Z:XDATA:NOROOT(0)
processingTime:
        DS 2
        REQUIRE __INIT_XDATA_Z

        RSEG XDATA_Z:XDATA:NOROOT(0)
pt:
        DS 2
        REQUIRE __INIT_XDATA_Z
//  201 

        RSEG XDATA_Z:XDATA:NOROOT(0)
//  202 UINT16 mdmcfg4_cycles = 0;
mdmcfg4_cycles:
        DS 2
        REQUIRE __INIT_XDATA_Z
//  203 
//  204 // variables to control turning module on/ "track" FET failures                                             

        RSEG XDATA_Z:XDATA:NOROOT(0)
//  205 static BOOL fetFailure = FALSE; // static variable indicating if a FET failure recognized
fetFailure:
        DS 1
        REQUIRE __INIT_XDATA_Z

        RSEG XDATA_I:XDATA:NOROOT(0)
        DATA
//  206 BOOL checkForFETFailure = TRUE; // once FET failure recognized, no longer check unless restart
checkForFETFailure:
        DS 1
        REQUIRE `?<Initializer for checkForFETFailure>`
        REQUIRE __INIT_XDATA_I
//  207 // netValue made global so fetFailure condition can access/change reported "status"

        RSEG XDATA_I:XDATA:NOROOT(0)
        DATA
//  208 static UINT16 netValue = MainNetValueStandard;
netValue:
        DS 2
        REQUIRE `?<Initializer for netValue>`
        REQUIRE __INIT_XDATA_I
//  209 
//  210 static __xdata_rom const UINT16 cyclesDefaults[] = {180, 30, 3, 4, 8, 80};

        RSEG XDATA_ROM_C:CONST:REORDER:NOROOT(0)
        DATA
//  211 static __xdata_rom const BYTE default_pb[] = {
default_pb:
        DB 170, 170, 0, 0, 255, 255, 44, 118, 64, 2, 39, 68, 113, 170, 53, 186
        DB 211, 188, 99, 61, 145, 237, 28, 63, 0, 0, 72, 195, 0, 0, 28, 69, 149
        DB 191, 214, 52, 0, 0, 146, 66, 154, 153, 147, 65, 0, 192, 15, 197, 10
        DB 215, 133, 65, 0, 0, 0, 0, 102, 102, 238, 64, 0, 0, 9, 196, 61, 10
        DB 133, 65, 0, 0, 112, 194, 82, 184, 222, 62, 0, 64, 28, 68, 82, 187
        DB 238, 64, 0, 128, 11, 196, 31, 133, 243, 64, 0, 128, 255, 195, 65, 78
        DB 68, 83, 0, 108, 97, 114, 65, 117, 103, 117, 115, 116, 0, 7, 65, 117
        DB 103, 117, 115, 116, 0, 7, 65, 117, 103, 117, 115, 116, 0, 7, 0, 0
        DB 188, 2, 80, 0, 6, 255, 53, 130, 200, 0, 59, 143, 40, 0, 1, 2, 3, 0
        DB 255, 255, 255, 255, 255, 255, 240, 240, 0, 0, 0, 170, 255, 120, 128
        DB 77, 255, 203, 72, 102, 84, 203, 72, 102, 84, 203, 72, 102, 84, 172
        DB 197, 167, 55, 23, 183, 81, 56, 1, 1, 90, 200, 255, 2, 1, 255, 255
        DB 23, 1, 164, 154, 56, 255, 40, 0, 30, 0, 3, 0, 4, 0, 8, 0, 80, 0, 63
        DB 8, 241, 31, 241, 31, 255, 137, 255, 255, 25, 70, 110, 100, 90, 10, 7
        DB 11, 60, 10, 24, 252, 10, 20, 1, 0, 0, 0, 85, 85
//  212 /*0xAA, 0xAA, 0x00, 0x00, 0xFF, 0xFF, 0x08, 0x76, 0x40, 0x03, 0x62, 0x7B, 0x71, 0xAA, 0x35, 0xBA, 
//  213 0xD3, 0xBC, 0x63, 0x3D, 0x91, 0xED, 0x1C, 0x3F, 0x00, 0x00, 0x34, 0xC3, 0x00, 0x00, 0x1C, 0x45, 
//  214 0x95, 0xBF, 0xD6, 0x34, 0x00, 0x00, 0x92, 0x42, 0x85, 0xEB, 0x5D, 0x41, 0x00, 0xC0, 0xD0, 0xC4, 
//  215 0x9A, 0x99, 0x49, 0x41, 0x00, 0x00, 0x00, 0x00, 0x8F, 0xC2, 0xFD, 0x40, 0x00, 0x00, 0x12, 0xC4,
//  216 0x0A, 0xD7, 0x47, 0x41, 0x00, 0x00, 0x00, 0x00, 0x52, 0xB8, 0xDE, 0x3E, 0x00, 0x40, 0x1C, 0x44, 
//  217 0xEC, 0x51, 0xF8, 0x40, 0x00, 0xC0, 0x13, 0xC4, 0xF0, 0xF0, 0x18, 0xFC, 0x00, 0x00, 0x00, 0x64, 
//  218 0x41, 0x4E, 0x44, 0x53, 0x00, 0x6C, 0x61, 0x72, 0x41, 0x75, 0x67, 0x75, 0x73, 0x74, 0x00, 0x07, 
//  219 0x41, 0x75, 0x67, 0x75, 0x73, 0x74, 0x00, 0x07, 0x41, 0x75, 0x67, 0x75, 0x73, 0x74, 0x00, 0x07, 
//  220 0x00, 0x00, 0x00, 0x00, 0x00, 0x00, 0x00, 0x00, 0x00, 0x00, 0x00, 0x00, 0x00, 0x00, 0x00, 0x00, 
//  221 0x00, 0x00, 0x00, 0x00, 0xFF, 0xFF, 0xFF, 0xFF, 0xFF, 0xFF, 0xFF, 0xFF, 0xFF, 0xFF, 0xFF, 0xFF, 
//  222 0xFF, 0xFF, 0xFF, 0xFF, 0xFE, 0xAE, 0x4C, 0x09, 0x53, 0xAE, 0x4C, 0x09, 0x53, 0xAE, 0x4C, 0x09, 
//  223 0x53, 0xAC, 0xC5, 0xA7, 0x37, 0x17, 0xB7, 0x51, 0x38, 0x01, 0x01, 0xD2, 0x82, 0xFF, 0x02, 0x01, 
//  224 0xFE, 0xFF, 0x17, 0x01, 0xA4, 0x9A, 0x38, 0xFF, 0x28, 0x00, 0x1E, 0x00, 0x03, 0x00, 0x04, 0x00, 
//  225 0x08, 0x00, 0x50, 0x00, 0x3F, 0x08, 0xF1, 0x00, 0xF1, 0x00, 0xFE, 0x89, 0xFF, 0xFF, 0x19, 0xC8, 
//  226 0x6E, 0x64, 0x5A, 0x0A, 0x07, 0x0B, 0x3C, 0x0A, 0x00, 0x00, 0x0A, 0x00, 0x01, 0x00, 0x00, 0x00, 
//  227 0x55, 0x55 */
//  228 // channel 255, ed/gw 0201, std key, bunch 0, netid 0
//  229 /* 0xAA, 0xAA, 0x00, 0x00, 0xFF, 0xFF, 0x2C, 0x76, 0x40, 0x02, 0x27, 0x44, 0x71, 0xAA, 0x35, 0xBA,
//  230 0xD3, 0xBC, 0x63, 0x3D, 0x91, 0xED, 0x1C, 0x3F, 0x00, 0x00, 0x48, 0xC3, 0x00, 0x00, 0x1C, 0x45, 
//  231 0x95, 0xBF, 0xD6, 0x34, 0x00, 0x00, 0x92, 0x42, 0x85, 0xEB, 0x5D, 0x41, 0x00, 0xC0, 0xD0, 0xC4, 
//  232 0x66, 0x66, 0x4A, 0x41, 0x00, 0x00, 0x00, 0x00, 0x8F, 0xC2, 0xFD, 0x40, 0x00, 0x00, 0x12, 0xC4, 
//  233 0x0A, 0xD7, 0x47, 0x41, 0x00, 0x00, 0x00, 0x00, 0x52, 0xB8, 0xDE, 0x3E, 0x00, 0x40, 0x1C, 0x44, 
//  234 0xEC, 0x51, 0xF8, 0x40, 0x00, 0xC0, 0x13, 0xC4, 0x00, 0x00, 0x80, 0x3F, 0x00, 0x00, 0x00, 0x00, 
//  235 0x41, 0x4E, 0x44, 0x53, 0x00, 0x6C, 0x61, 0x72, 0x41, 0x75, 0x67, 0x75, 0x73, 0x74, 0x00, 0x07, 
//  236 0x41, 0x75, 0x67, 0x75, 0x73, 0x74, 0x00, 0x07, 0x41, 0x75, 0x67, 0x75, 0x73, 0x74, 0x00, 0x07, 
//  237 0x00, 0x00, 0x00, 0x00, 0x00, 0x00, 0x00, 0x00, 0x00, 0x00, 0x00, 0x00, 0x00, 0x00, 0x00, 0x00, 
//  238 0x00, 0x00, 0x00, 0x00, 0xFF, 0xFF, 0xFF, 0xFF, 0xFF, 0xFF, 0xF0, 0xF0, 0x00, 0x00, 0x00, 0xAA, 
//  239 0xFF, 0x78, 0x80, 0x4D, 0xFF, 0xCB, 0x48, 0x66, 0x54, 0xCB, 0x48, 0x66, 0x54, 0xCB, 0x48, 0x66, 
//  240 0x54, 0xAC, 0xC5, 0xA7, 0x37, 0x17, 0xB7, 0x51, 0x38, 0x01, 0x01, 0x64, 0x64, 0xFF, 0x02, 0x01, 
//  241 0xFF, 0xFF, 0x17, 0x01, 0xA4, 0x9A, 0x38, 0xFF, 0x28, 0x00, 0x1E, 0x00, 0x03, 0x00, 0x04, 0x00, 
//  242 0x08, 0x00, 0x50, 0x00, 0x3F, 0x08, 0xF1, 0x00, 0xF1, 0x00, 0xFF, 0x89, 0xFF, 0xFF, 0x19, 0xC8, 
//  243 0x6E, 0x64, 0x5A, 0x0A, 0x07, 0x0B, 0x3C, 0x0A, 0x18, 0xFC, 0x0A, 0x00, 0x01, 0x00, 0x00, 0x00, 
//  244 0x55, 0x55 */
//  245 // New in code parameter block 09/15/15, defaults according to manufacturing
//  246 // 1st Line : barrier through dFk[0]
//  247 // 2nd Line : dFk[1] through vrefPolynom[0] (dFk[3] changed)
//  248 // 3rd Line : vrefPolynom[1] through linearK[0][1] (linearK[0][0], [0][1] changed)
//  249 // 4th Line : linearK[1][0] through linearK[2][1] (linearK[1][0], [2][0],[2][1] changed)
//  250 // 5th Line : linearK[3][0] through linearK[4][1] (linearK[3][0], [3][1] changed)
//  251 // 6th Line : linearK[5][0] through linearK[6][1] (all four values changed)
//  252 // 7th Line : curKey[AES_SIZE]  
//  253 // 8th Line : curIV[AES_SIZE] 
//  254 // 9th Line : fetFailureCount through IhvLimitVins (only LowCurrentLimitTo255 stayed same)
//  255 // 10th Line: tests[4] through shortCircuitLevel
//  256 // 11th Line: reserved through 3rd byte of utcHigh (did not change the 3 times values)
//  257 // 12th Line: 4th byte of utcHigh through gwAddr  (should oc change?)
//  258 // 13th Line: repeaterChannel through defCyclesToStep10Channel
//  259 // 14th Line: defCycles2SoftKick through ov_startup (changed ov_startup)
//  260 // 15th Line: t_mod_off through vin_switch_off
//  261 // 16th Line: post_barrier
//  262   /*
//  263 0xAA, 0xAA, 0x00, 0x00, 0xFF, 0xFF, 0x2C, 0x76, 0x40, 0x02, 0x27, 0x44, 0x71, 0xAA, 0x35, 0xBA,
//  264 0xD3, 0xBC, 0x63, 0x3D, 0x91, 0xED, 0x1C, 0x3F, 0x00, 0x00, 0x75, 0xC3, 0x00, 0x00, 0x1C, 0x45, 
//  265 0x95, 0xBF, 0xD6, 0x34, 0x00, 0x00, 0x92, 0x42, 0xB8, 0x1E, 0xDD, 0x41, 0x00, 0xC0, 0x5A, 0xC5, 
//  266 0xE1, 0x7A, 0xC8, 0x41, 0x00, 0x00, 0x00, 0x00, 0x00, 0x00, 0xF8, 0x40, 0x00, 0x80, 0x0E, 0xC4, 
//  267 0x8F, 0xC2, 0xC7, 0x41, 0x00, 0x00, 0x6B, 0xC3, 0x52, 0xB8, 0xDE, 0x3E, 0x00, 0x40, 0x1C, 0x44, 
//  268 0xCD, 0xCC, 0xFC, 0x40, 0x00, 0x00, 0x05, 0xC4, 0xC3, 0xF5, 0xF8, 0x40, 0x00, 0x80, 0x12, 0xC4, 
//  269 0x41, 0x4E, 0x44, 0x53, 0x00, 0x6C, 0x61, 0x72, 0x41, 0x75, 0x67, 0x75, 0x73, 0x74, 0x00, 0x07, 
//  270 0x41, 0x75, 0x67, 0x75, 0x73, 0x74, 0x00, 0x07, 0x41, 0x75, 0x67, 0x75, 0x73, 0x74, 0x00, 0x07, 
//  271 0x20, 0x4E, 0xBC, 0x02, 0x50, 0x00, 0x00, 0x00, 0x30, 0x75, 0xF0, 0x00, 0xB0, 0x04, 0xF8, 0x7F, 
//  272 0x00, 0x00, 0x00, 0x00, 0xFF, 0xFF, 0xFF, 0xFF, 0xFF, 0xFF, 0xF0, 0xF0, 0x00, 0x00, 0x00, 0xAA, 
//  273 0xFF, 0x78, 0x80, 0x4D, 0xFF, 0xCB, 0x48, 0x66, 0x54, 0xCB, 0x48, 0x66, 0x54, 0xCB, 0x48, 0x66, 
//  274 0x54, 0xAC, 0xC5, 0xA7, 0x37, 0x17, 0xB7, 0x51, 0x38, 0x01, 0x01, 0x64, 0x64, 0xFF, 0x02, 0x01, 
//  275 0xFF, 0xFF, 0x17, 0x01, 0xA4, 0x9A, 0x38, 0xFF, 0x28, 0x00, 0x1E, 0x00, 0x03, 0x00, 0x04, 0x00, 
//  276 0x08, 0x00, 0x50, 0x00, 0x3F, 0x08, 0xF1, 0x00, 0xF1, 0x00, 0xFF, 0x89, 0xFF, 0xFF, 0x19, 0x46, 
//  277 0x6E, 0x64, 0x5A, 0x0A, 0x07, 0x0B, 0x3C, 0x0A, 0x18, 0xFC, 0x0A, 0x14, 0x01, 0x00, 0x00, 0x00, 
//  278 0x55, 0x55
//  279   */
//  280  0xAA, 0xAA, 0x00, 0x00, 0xFF, 0xFF, 0x2C, 0x76, 0x40, 0x02, 0x27, 0x44, 0x71, 0xAA, 0x35, 0xBA,
//  281  0xD3, 0xBC, 0x63, 0x3D, 0x91, 0xED, 0x1C, 0x3F, 0x00, 0x00, 0x48, 0xC3, 0x00, 0x00, 0x1C, 0x45,
//  282  0x95, 0xBF, 0xD6, 0x34, 0x00, 0x00, 0x92, 0x42, 0x9A, 0x99, 0x93, 0x41, 0x00, 0xC0, 0x0F, 0xC5,
//  283  0x0A, 0xD7, 0x85, 0x41, 0x00, 0x00, 0x00, 0x00, 0x66, 0x66, 0xEE, 0x40, 0x00, 0x00, 0x09, 0xC4,
//  284  0x3D, 0x0A, 0x85, 0x41, 0x00, 0x00, 0x70, 0xC2, 0x52, 0xB8, 0xDE, 0x3E, 0x00, 0x40, 0x1C, 0x44,
//  285  0x52, 0xBB, 0xEE, 0x40, 0x00, 0x80, 0x0B, 0xC4, 0x1F, 0x85, 0xF3, 0x40, 0x00, 0x80, 0xFF, 0xC3,
//  286  0x41, 0x4E, 0x44, 0x53, 0x00, 0x6C, 0x61, 0x72, 0x41, 0x75, 0x67, 0x75, 0x73, 0x74, 0x00, 0x07,
//  287  0x41, 0x75, 0x67, 0x75, 0x73, 0x74, 0x00, 0x07, 0x41, 0x75, 0x67, 0x75, 0x73, 0x74, 0x00, 0x07,
//  288  0x00, 0x00, 0xBC, 0x02, 0x50, 0x00, 0x06, 0xFF, 0x35, 0x82, 0xC8, 0x00, 0x3B, 0x8F, 0x28, 0x00,
//  289  0x01, 0x02, 0x03, 0x00, 0xFF, 0xFF, 0xFF, 0xFF, 0xFF, 0xFF, 0xF0, 0xF0, 0x00, 0x00, 0x00, 0xAA,
//  290  0xFF, 0x78, 0x80, 0x4D, 0xFF, 0xCB, 0x48, 0x66, 0x54, 0xCB, 0x48, 0x66, 0x54, 0xCB, 0x48, 0x66,
//  291  0x54, 0xAC, 0xC5, 0xA7, 0x37, 0x17, 0xB7, 0x51, 0x38, 0x01, 0x01, 0x5A, 0xC8, 0xFF, 0x02, 0x01,
//  292  0xFF, 0xFF, 0x17, 0x01, 0xA4, 0x9A, 0x38, 0xFF, 0x28, 0x00, 0x1E, 0x00, 0x03, 0x00, 0x04, 0x00,
//  293  0x08, 0x00, 0x50, 0x00, 0x3F, 0x08, 0xF1, 0x1F, 0xF1, 0x1F, 0xFF, 0x89, 0xFF, 0xFF, 0x19, 0x46,
//  294  0x6E, 0x64, 0x5A, 0x0A, 0x07, 0x0B, 0x3C, 0x0A, 0x18, 0xFC, 0x0A, 0x14, 0x01, 0x00, 0x00, 0x00,
//  295  0x55, 0x55
//  296 };
//  297 
//  298 //static INT32 counts1[5] = {0L,0L,0L,0L,0L};
//  299 //static INT32 counts2[5] = {0L,0L,0L,0L,0L};
//  300 

        RSEG XDATA_I:XDATA:NOROOT(0)
        DATA
//  301 SchedulerInterface *si = (SchedulerInterface *)0xF500;
si:
        DS 2
        REQUIRE `?<Initializer for si>`
        REQUIRE __INIT_XDATA_I
//  302 

        RSEG XDATA_Z:XDATA:NOROOT(0)
//  303 static BOOL  *flags;// = si->flags;
flags:
        DS 2
        REQUIRE __INIT_XDATA_Z

        RSEG XDATA_Z:XDATA:NOROOT(0)
//  304 static INT16 *ticks;// = si->ticks;
ticks:
        DS 2
        REQUIRE __INIT_XDATA_Z
//  305 
//  306 //float safe_vin;
//  307 //UINT16 safe_vin_16;
//  308 //UINT16 VinTurnOn_16, VinShutOff_16, VinDisableRadio_16;
//  309 
//  310 #define POWER   1
//  311 #define CURRENT 2
//  312 #define EXT_GND 3
//  313 #define REF     4
//  314 
//  315 #define TINT    7
//  316 #define TEXT    6
//  317 
//  318 #define Iin2    8
//  319 
//  320 /*
//  321 const BYTE  adcChannels[ N_CHANNELS ] = {  
//  322   // Vout  0                                         Pin   1                                        Iout  2      
//  323     ADC_REF_P0_7   | ADC_12_BIT | ADC_AIN1,    ADC_REF_P0_7   | ADC_12_BIT | ADC_AIN2,    ADC_REF_P0_7   | ADC_12_BIT | ADC_AIN3,    
//  324   // Gnd ext 3                                       Ref 4
//  325     ADC_REF_P0_7   | ADC_12_BIT | ADC_AIN4,    ADC_REF_P0_7   | ADC_12_BIT | ADC_AIN6,    
//  326   // Vin  5                                          Text  6                          
//  327     ADC_REF_P0_7   
//  328 | ADC_12_BIT | ADC_AIN0,    ADC_REF_P0_7   | ADC_12_BIT | ADC_AIN5,    
//  329   // Tin 7
//  330     ADC_REF_P0_7   | ADC_12_BIT | ADC_TEMP_SENS
//  331     //ADC_REF_1_25_V | ADC_12_BIT | ADC_TEMP_SENS
//  332 };
//  333 */
//  334 
//  335 //#define MidString - defined in projects
//  336 
//  337 #ifdef MidString
//  338   #define REFERENCE       ADC_REF_AVDD
//  339   #define REFERENCE_PIN   ADC_AIN7
//  340 #else
//  341   #define REFERENCE       ADC_REF_P0_7
//  342   #define REFERENCE_PIN   ADC_AIN6
//  343 #endif
//  344 

        RSEG XDATA_I:XDATA:NOROOT(0)
        DATA
//  345 const BYTE  adcChannels[ N_CHANNELS ] = {  
adcChannels:
        DS 9
        REQUIRE `?<Initializer for adcChannels>`
        REQUIRE __INIT_XDATA_I
//  346   // Vout  0                                         Pin   1                                        Iout  2      
//  347     REFERENCE | ADC_12_BIT | ADC_AIN1,      REFERENCE | ADC_12_BIT | ADC_AIN2,    REFERENCE | ADC_12_BIT | ADC_AIN3,    
//  348   // Gnd ext 3                                       Ref 4
//  349     REFERENCE | ADC_12_BIT | ADC_GND,       REFERENCE | ADC_12_BIT | REFERENCE_PIN,    
//  350   // Vin  5                                          Text  6                          
//  351     REFERENCE | ADC_12_BIT | ADC_AIN0,      REFERENCE | ADC_12_BIT | ADC_AIN5,    
//  352   // Tin 7                                           Iin2 8
//  353     REFERENCE | ADC_12_BIT | ADC_AIN4,       REFERENCE | ADC_12_BIT | ADC_AIN6
//  354 };
//  355 /*
//  356 #else
//  357 const BYTE  adcChannels[ N_CHANNELS ] = {  
//  358   // Vout  0                                        Pin   1                                        Iout  2      
//  359     ADC_REF_P0_7 | ADC_12_BIT | ADC_AIN1,      ADC_REF_P0_7 | ADC_12_BIT | ADC_AIN2,    ADC_REF_P0_7   | ADC_12_BIT | ADC_AIN3,    
//  360   // Gnd ext 3                                      Ref 4
//  361     ADC_REF_P0_7 | ADC_12_BIT | ADC_AIN4,      ADC_REF_P0_7 | ADC_12_BIT | ADC_AIN6,    
//  362   // Vin  5                                         Text  6                          
//  363     ADC_REF_P0_7 | ADC_12_BIT | ADC_AIN0,      ADC_REF_P0_7 | ADC_12_BIT | ADC_AIN5,    
//  364   // Tin 7                                          Iin2 8 
//  365     ADC_REF_P0_7 | ADC_12_BIT | ADC_TEMP_SENS, ADC_REF_P0_7 | ADC_12_BIT | ADC_AIN7,
//  366   // int Gnd. 9                                     int Ref 10
//  367     ADC_REF_P0_7 | ADC_12_BIT | ADC_GND,       ADC_REF_P0_7 | ADC_12_BIT | ADC_REF
//  368 };
//  369 #endif
//  370 */
//  371 
//  372                                    // Vout Pin Iout           Vin Text  Iout+ Iin2  //  IntGnd  IntRef

        RSEG XDATA_I:XDATA:NOROOT(0)
        DATA
//  373 const BYTE indices[ N_CHANNELS ] = { 0,     1,  2, 0xFF, 0xFF, 3, 0xFF, 6,    5};   //,    0xFF }; //,   0xFF   };
indices:
        DS 9
        REQUIRE `?<Initializer for indices>`
        REQUIRE __INIT_XDATA_I
//  374 //const BYTE indices[ N_CHANNELS ] = { 0,     1,  2, 0xFF, 0xFF, 3, 0xFF, 0xFF,  5};   //,    0xFF }; //,   0xFF   };

        RSEG XDATA_Z:XDATA:NOROOT(0)
//  375 INT16  lastOff = 0, lastRssi = 0; //, delta = 0;
lastOff:
        DS 2
        REQUIRE __INIT_XDATA_Z

        RSEG XDATA_Z:XDATA:NOROOT(0)
lastRssi:
        DS 2
        REQUIRE __INIT_XDATA_Z
//  376 extern INT32 delta;
//  377 
//  378 // 06/26/2017 - Moved from local declarations in function checkVin() to const here
//  379 // old switchTo255Lim -> 60000, old switchFrom255Lim ->  57000 (1000V values shown)
//  380 // old shortCircuitProtectionOn -> 12000, old shortCircuitProtectionOff -> 16000 (1000V values shown)
//  381 // values used in checkVin (global to avoid declaration(s) every 120 MS)
//  382 
//  383 // 07/05/2017 - switchTo255Lim was 43400, switchFrom255Lim was 40000
//  384 #ifdef MidString

        RSEG XDATA_I:XDATA:NOROOT(0)
        DATA
//  385 const UINT16 switchTo255Lim = 44500,
switchTo255Lim:
        DS 2
        REQUIRE `?<Initializer for switchTo255Lim>`
        REQUIRE __INIT_XDATA_I

        RSEG XDATA_I:XDATA:NOROOT(0)
        DATA
//  386     switchFrom255Lim = 42000, 
switchFrom255Lim:
        DS 2
        REQUIRE `?<Initializer for switchFrom255Lim>`
        REQUIRE __INIT_XDATA_I

        RSEG XDATA_I:XDATA:NOROOT(0)
        DATA
//  387     shortCircuitProtectionOn = 10000, 
shortCircuitProtectionOn:
        DS 2
        REQUIRE `?<Initializer for shortCircuitProtectionOn>`
        REQUIRE __INIT_XDATA_I

        RSEG XDATA_I:XDATA:NOROOT(0)
        DATA
//  388     shortCircuitProtectionOff = 13400; 
shortCircuitProtectionOff:
        DS 2
        REQUIRE `?<Initializer for shortCircuitProtectionOff>`
        REQUIRE __INIT_XDATA_I
//  389 #endif
//  390 
//  391 

        RSEG XDATA_I:XDATA:NOROOT(0)
        DATA
//  392 const char theKey[ 2*AES_SIZE ] = { 'A', 'N', 'D', 'S',  0,  'l', 'a', 'r', 'A', 'u', 'g', 'u', 's', 't',  0,   7 ,
theKey:
        DS 32
        REQUIRE `?<Initializer for theKey>`
        REQUIRE __INIT_XDATA_I
//  393                                     'A', 'u', 'g', 'u', 's', 't',  0,   7,  'A', 'u', 'g', 'u', 's', 't',  0,   7 };
//  394 /******************************************************************************/
//  395 
//  396 #define atomicChange( idx, val ) ticks[idx]=val
//  397 

        RSEG XDATA_Z:XDATA:NOROOT(0)
//  398 BYTE nextKey[ AES_SIZE ];
nextKey:
        DS 16
        REQUIRE __INIT_XDATA_Z

        RSEG XDATA_Z:XDATA:NOROOT(0)
//  399 BYTE nextIV [ AES_SIZE ];
nextIV:
        DS 16
        REQUIRE __INIT_XDATA_Z
//  400 
//  401 void savePB();
//  402 
//  403 //static const float DEF_CURRENT_MULTYPLIER = 3.93; //7.93; //5.536;
//  404 
//  405 //static float k_oc2timer = 0.0;
//  406 //BYTE oc2timer(BYTE oc){ 
//  407 //INT16 val;
//  408 //#ifdef MidString
//  409 //  if( oc > ocShortCircuitLimit ) oc = ocShortCircuitLimit;  // Short Circuit protection.
//  410 //#endif
//  411 //  if( k_oc2timer < 1.0 ) k_oc2timer = DEF_CURRENT_MULTYPLIER / (page.linearK[2][0]-4.0);
//  412 // //  if( test4Zero((BYTE*)&k_oc2timer, 4) ) k_oc2timer = DEF_CURRENT_MULTYPLIER / page.linearK[2][0];
//  413 //  val = (UINT16)( oc * k_oc2timer + 0.5 );
//  414 //  if( val > 255 ) val = 255;
//  415 //  return (BYTE) val; 
//  416 //}
//  417 
//  418 // 03/24/2017 static const float DEF_CURRENT_MULTYPLIER = 3.93; //7.93; //5.536;
//  419 

        RSEG XDATA_Z:XDATA:NOROOT(0)
//  420 static float k_oc2timer = 0.0;
k_oc2timer:
        DS 4
        REQUIRE __INIT_XDATA_Z

        RSEG NEAR_CODE:CODE:NOROOT(0)
//  421 BYTE oc2timer(BYTE oc){ 
oc2timer:
        CFI Block cfiBlock0 Using cfiCommon0
        CFI Function oc2timer
        MOV     A,#-0x13
        LCALL   ?FUNC_ENTER_XDATA
        CFI DPH0 load(1, XDATA, add(CFA_XSP16, literal(-1)))
        CFI DPL0 load(1, XDATA, add(CFA_XSP16, literal(-2)))
        CFI ?RET_HIGH load(1, XDATA, add(CFA_XSP16, literal(-3)))
        CFI ?RET_LOW load(1, XDATA, add(CFA_XSP16, literal(-4)))
        CFI R7 load(1, XDATA, add(CFA_XSP16, literal(-5)))
        CFI V11 load(1, XDATA, add(CFA_XSP16, literal(-6)))
        CFI V10 load(1, XDATA, add(CFA_XSP16, literal(-7)))
        CFI V9 load(1, XDATA, add(CFA_XSP16, literal(-8)))
        CFI V8 load(1, XDATA, add(CFA_XSP16, literal(-9)))
        CFI V7 load(1, XDATA, add(CFA_XSP16, literal(-10)))
        CFI V6 load(1, XDATA, add(CFA_XSP16, literal(-11)))
        CFI V5 load(1, XDATA, add(CFA_XSP16, literal(-12)))
        CFI V4 load(1, XDATA, add(CFA_XSP16, literal(-13)))
        CFI V3 load(1, XDATA, add(CFA_XSP16, literal(-14)))
        CFI V2 load(1, XDATA, add(CFA_XSP16, literal(-15)))
        CFI V1 load(1, XDATA, add(CFA_XSP16, literal(-16)))
        CFI V0 load(1, XDATA, add(CFA_XSP16, literal(-17)))
        CFI VB load(1, XDATA, add(CFA_XSP16, literal(-18)))
        CFI R6 load(1, XDATA, add(CFA_XSP16, literal(-19)))
        CFI CFA_SP SP+0
        CFI CFA_XSP16 add(XSP16, 19)
        ; Saved register size: 19
        ; Auto size: 0
        MOV     ?V0 + 0,R1
//  422 UINT16 val;
//  423 #ifdef MidString
//  424   if( oc > ocShortCircuitLimit ) oc = ocShortCircuitLimit;  // Short Circuit protection.
        MOV     DPTR,#ocShortCircuitLimit
        MOVX    A,@DPTR
        CLR     C
        SUBB    A,?V0 + 0
        JNC     ??oc2timer_0
        MOVX    A,@DPTR
        MOV     ?V0 + 0,A
//  425 #endif
//  426   // 03/24/2017  if( k_oc2timer < 1.0 ) k_oc2timer = DEF_CURRENT_MULTYPLIER / (page.linearK[2][0]-4.0);
//  427   // 03/24/2017 if( k_oc2timer < 1.0 ) k_oc2timer =  7.6 / (page.linearK[2][0]);
//  428   
//  429   if( k_oc2timer < 1.0 ) k_oc2timer =  7.93 / (page.linearK[2][0]);
??oc2timer_0:
        MOV     DPTR,#k_oc2timer
        MOV     R0,#?V0 + 4
        LCALL   ?L_MOV_X
        MOV     DPTR,#__Constant_3f800000
        MOV     R0,#?V0 + 8
        LCALL   ?L_MOV_X
        MOV     R0,#?V0 + 4
        MOV     R1,#?V0 + 8
        LCALL   ?FLT_LT
        JNC     ??oc2timer_1
        MOV     ?V0 + 4,#-0x71
        MOV     ?V0 + 5,#-0x3e
        MOV     ?V0 + 6,#-0x3
        MOV     ?V0 + 7,#0x40
        MOV     DPTR,#(page + 56)
        MOV     R0,#?V0 + 8
        LCALL   ?L_MOV_X
        MOV     R0,#?V0 + 4
        MOV     R1,#?V0 + 8
        LCALL   ?FLT_DIV
        MOV     DPTR,#k_oc2timer
        MOV     R0,#?V0 + 4
        LCALL   ?L_MOV_TO_X
//  430   
//  431 //  if( test4Zero((BYTE*)&k_oc2timer, 4) ) k_oc2timer = DEF_CURRENT_MULTYPLIER / page.linearK[2][0];
//  432 
//  433   // 03/24/2017 added line
//  434   if ( oc > 240 ) oc = 240;
??oc2timer_1:
        MOV     A,?V0 + 0
        CLR     C
        SUBB    A,#-0xf
        JC      ??oc2timer_2
        MOV     ?V0 + 0,#-0x10
//  435   
//  436   // 03/24/2017 val = (UINT16)( oc * k_oc2timer + 0.5 );
//  437   val = (UINT16)( oc * k_oc2timer ); 
??oc2timer_2:
        MOV     ?V0 + 1,#0x0
        MOV     ?V0 + 2,#0x0
        MOV     ?V0 + 3,#0x0
        MOV     R0,#?V0 + 0
        LCALL   ?UL_TO_FLT
        MOV     DPTR,#k_oc2timer
        MOV     R0,#?V0 + 4
        LCALL   ?L_MOV_X
        MOV     R0,#?V0 + 0
        MOV     R1,#?V0 + 4
        LCALL   ?FLT_MUL
        MOV     R0,#?V0 + 0
        LCALL   ?FLT_TO_L
        MOV     R0,?V0 + 0
//  438   if( val > 255 ) val = 255;
        CLR     C
        MOV     A,?V0 + 1
        SUBB    A,#0x1
        JC      ??oc2timer_3
        MOV     R0,#-0x1
//  439   return (BYTE) val; 
??oc2timer_3:
        MOV     A,R0
        MOV     R1,A
        CFI EndBlock cfiBlock0
        REQUIRE ?Subroutine113
        ; // Fall through to label ?Subroutine113
//  440 }

        RSEG NEAR_CODE:CODE:NOROOT(0)
?Subroutine113:
        CFI Block cfiBlock1 Using cfiCommon0
        CFI NoFunction
        CFI CFA_SP SP+0
        CFI CFA_XSP16 add(XSP16, 19)
        CFI VB load(1, XDATA, add(CFA_XSP16, literal(-18)))
        CFI DPL0 load(1, XDATA, add(CFA_XSP16, literal(-2)))
        CFI DPH0 load(1, XDATA, add(CFA_XSP16, literal(-1)))
        CFI R6 load(1, XDATA, add(CFA_XSP16, literal(-19)))
        CFI R7 load(1, XDATA, add(CFA_XSP16, literal(-5)))
        CFI V0 load(1, XDATA, add(CFA_XSP16, literal(-17)))
        CFI V1 load(1, XDATA, add(CFA_XSP16, literal(-16)))
        CFI V2 load(1, XDATA, add(CFA_XSP16, literal(-15)))
        CFI V3 load(1, XDATA, add(CFA_XSP16, literal(-14)))
        CFI V4 load(1, XDATA, add(CFA_XSP16, literal(-13)))
        CFI V5 load(1, XDATA, add(CFA_XSP16, literal(-12)))
        CFI V6 load(1, XDATA, add(CFA_XSP16, literal(-11)))
        CFI V7 load(1, XDATA, add(CFA_XSP16, literal(-10)))
        CFI V8 load(1, XDATA, add(CFA_XSP16, literal(-9)))
        CFI V9 load(1, XDATA, add(CFA_XSP16, literal(-8)))
        CFI V10 load(1, XDATA, add(CFA_XSP16, literal(-7)))
        CFI V11 load(1, XDATA, add(CFA_XSP16, literal(-6)))
        CFI ?RET_HIGH load(1, XDATA, add(CFA_XSP16, literal(-3)))
        CFI ?RET_LOW load(1, XDATA, add(CFA_XSP16, literal(-4)))
        MOV     R7,#0xc
        LJMP    ?FUNC_LEAVE_XDATA
        CFI EndBlock cfiBlock1
//  441 

        RSEG NEAR_CODE:CODE:NOROOT(0)
//  442 INT16 abs( INT16 a ) { return ( a > 0 ) ? a : -a; }
abs:
        CFI Block cfiBlock2 Using cfiCommon0
        CFI Function abs
        ; Saved register size: 0
        ; Auto size: 0
        CLR     C
        MOV     A,R2
        SUBB    A,#0x1
        LCALL   ?Subroutine64
??CrossCallReturnLabel_190:
        JC      ??abs_0
        MOV     A,R2
        MOV     R0,A
        MOV     A,R3
        SJMP    ??abs_1
??abs_0:
        CLR     C
        CLR     A
        SUBB    A,R2
        MOV     R0,A
        CLR     A
        SUBB    A,R3
??abs_1:
        MOV     R1,A
        MOV     A,R0
        MOV     R2,A
        MOV     A,R1
        MOV     R3,A
        RET
        CFI EndBlock cfiBlock2

        RSEG NEAR_CODE:CODE:NOROOT(0)
?Subroutine64:
        CFI Block cfiCond3 Using cfiCommon0
        CFI NoFunction
        CFI Conditional ??CrossCallReturnLabel_190
        CFI Block cfiCond4 Using cfiCommon0
        CFI (cfiCond4) NoFunction
        CFI (cfiCond4) Conditional ??CrossCallReturnLabel_191
        CFI (cfiCond4) R6 load(1, XDATA, add(CFA_XSP16, literal(-15)))
        CFI (cfiCond4) VB load(1, XDATA, add(CFA_XSP16, literal(-14)))
        CFI (cfiCond4) V0 load(1, XDATA, add(CFA_XSP16, literal(-13)))
        CFI (cfiCond4) V1 load(1, XDATA, add(CFA_XSP16, literal(-12)))
        CFI (cfiCond4) V2 load(1, XDATA, add(CFA_XSP16, literal(-11)))
        CFI (cfiCond4) V3 load(1, XDATA, add(CFA_XSP16, literal(-10)))
        CFI (cfiCond4) V4 load(1, XDATA, add(CFA_XSP16, literal(-9)))
        CFI (cfiCond4) V5 load(1, XDATA, add(CFA_XSP16, literal(-8)))
        CFI (cfiCond4) V6 load(1, XDATA, add(CFA_XSP16, literal(-7)))
        CFI (cfiCond4) V7 load(1, XDATA, add(CFA_XSP16, literal(-6)))
        CFI (cfiCond4) R7 load(1, XDATA, add(CFA_XSP16, literal(-5)))
        CFI (cfiCond4) ?RET_LOW load(1, XDATA, add(CFA_XSP16, literal(-4)))
        CFI (cfiCond4) ?RET_HIGH load(1, XDATA, add(CFA_XSP16, literal(-3)))
        CFI (cfiCond4) DPL0 load(1, XDATA, add(CFA_XSP16, literal(-2)))
        CFI (cfiCond4) DPH0 load(1, XDATA, add(CFA_XSP16, literal(-1)))
        CFI (cfiCond4) CFA_SP SP+0
        CFI (cfiCond4) CFA_XSP16 add(XSP16, 15)
        CFI Block cfiCond5 Using cfiCommon0
        CFI (cfiCond5) NoFunction
        CFI (cfiCond5) Conditional ??CrossCallReturnLabel_193
        CFI (cfiCond5) R6 load(1, XDATA, add(CFA_XSP16, literal(-15)))
        CFI (cfiCond5) VB load(1, XDATA, add(CFA_XSP16, literal(-14)))
        CFI (cfiCond5) V0 load(1, XDATA, add(CFA_XSP16, literal(-13)))
        CFI (cfiCond5) V1 load(1, XDATA, add(CFA_XSP16, literal(-12)))
        CFI (cfiCond5) V2 load(1, XDATA, add(CFA_XSP16, literal(-11)))
        CFI (cfiCond5) V3 load(1, XDATA, add(CFA_XSP16, literal(-10)))
        CFI (cfiCond5) V4 load(1, XDATA, add(CFA_XSP16, literal(-9)))
        CFI (cfiCond5) V5 load(1, XDATA, add(CFA_XSP16, literal(-8)))
        CFI (cfiCond5) V6 load(1, XDATA, add(CFA_XSP16, literal(-7)))
        CFI (cfiCond5) V7 load(1, XDATA, add(CFA_XSP16, literal(-6)))
        CFI (cfiCond5) R7 load(1, XDATA, add(CFA_XSP16, literal(-5)))
        CFI (cfiCond5) ?RET_LOW load(1, XDATA, add(CFA_XSP16, literal(-4)))
        CFI (cfiCond5) ?RET_HIGH load(1, XDATA, add(CFA_XSP16, literal(-3)))
        CFI (cfiCond5) DPL0 load(1, XDATA, add(CFA_XSP16, literal(-2)))
        CFI (cfiCond5) DPH0 load(1, XDATA, add(CFA_XSP16, literal(-1)))
        CFI (cfiCond5) CFA_SP SP+0
        CFI (cfiCond5) CFA_XSP16 add(XSP16, 15)
        CFI Block cfiPicker6 Using cfiCommon1
        CFI (cfiPicker6) NoFunction
        CFI (cfiPicker6) Picker
        MOV     A,R3
        CFI Block cfiCond7 Using cfiCommon0
        CFI (cfiCond7) NoFunction
        CFI (cfiCond7) Conditional ??CrossCallReturnLabel_192
        CFI (cfiCond7) R6 load(1, XDATA, add(CFA_XSP16, literal(-15)))
        CFI (cfiCond7) VB load(1, XDATA, add(CFA_XSP16, literal(-14)))
        CFI (cfiCond7) V0 load(1, XDATA, add(CFA_XSP16, literal(-13)))
        CFI (cfiCond7) V1 load(1, XDATA, add(CFA_XSP16, literal(-12)))
        CFI (cfiCond7) V2 load(1, XDATA, add(CFA_XSP16, literal(-11)))
        CFI (cfiCond7) V3 load(1, XDATA, add(CFA_XSP16, literal(-10)))
        CFI (cfiCond7) V4 load(1, XDATA, add(CFA_XSP16, literal(-9)))
        CFI (cfiCond7) V5 load(1, XDATA, add(CFA_XSP16, literal(-8)))
        CFI (cfiCond7) V6 load(1, XDATA, add(CFA_XSP16, literal(-7)))
        CFI (cfiCond7) V7 load(1, XDATA, add(CFA_XSP16, literal(-6)))
        CFI (cfiCond7) R7 load(1, XDATA, add(CFA_XSP16, literal(-5)))
        CFI (cfiCond7) ?RET_LOW load(1, XDATA, add(CFA_XSP16, literal(-4)))
        CFI (cfiCond7) ?RET_HIGH load(1, XDATA, add(CFA_XSP16, literal(-3)))
        CFI (cfiCond7) DPL0 load(1, XDATA, add(CFA_XSP16, literal(-2)))
        CFI (cfiCond7) DPH0 load(1, XDATA, add(CFA_XSP16, literal(-1)))
        CFI (cfiCond7) CFA_SP SP+0
        CFI (cfiCond7) CFA_XSP16 add(XSP16, 15)
        CFI Block cfiCond8 Using cfiCommon0
        CFI (cfiCond8) NoFunction
        CFI (cfiCond8) Conditional ??CrossCallReturnLabel_194
        CFI (cfiCond8) R6 load(1, XDATA, add(CFA_XSP16, literal(-15)))
        CFI (cfiCond8) VB load(1, XDATA, add(CFA_XSP16, literal(-14)))
        CFI (cfiCond8) V0 load(1, XDATA, add(CFA_XSP16, literal(-13)))
        CFI (cfiCond8) V1 load(1, XDATA, add(CFA_XSP16, literal(-12)))
        CFI (cfiCond8) V2 load(1, XDATA, add(CFA_XSP16, literal(-11)))
        CFI (cfiCond8) V3 load(1, XDATA, add(CFA_XSP16, literal(-10)))
        CFI (cfiCond8) V4 load(1, XDATA, add(CFA_XSP16, literal(-9)))
        CFI (cfiCond8) V5 load(1, XDATA, add(CFA_XSP16, literal(-8)))
        CFI (cfiCond8) V6 load(1, XDATA, add(CFA_XSP16, literal(-7)))
        CFI (cfiCond8) V7 load(1, XDATA, add(CFA_XSP16, literal(-6)))
        CFI (cfiCond8) R7 load(1, XDATA, add(CFA_XSP16, literal(-5)))
        CFI (cfiCond8) ?RET_LOW load(1, XDATA, add(CFA_XSP16, literal(-4)))
        CFI (cfiCond8) ?RET_HIGH load(1, XDATA, add(CFA_XSP16, literal(-3)))
        CFI (cfiCond8) DPL0 load(1, XDATA, add(CFA_XSP16, literal(-2)))
        CFI (cfiCond8) DPH0 load(1, XDATA, add(CFA_XSP16, literal(-1)))
        CFI (cfiCond8) CFA_SP SP+0
        CFI (cfiCond8) CFA_XSP16 add(XSP16, 15)
        CFI Block cfiCond9 Using cfiCommon0
        CFI (cfiCond9) NoFunction
        CFI (cfiCond9) Conditional ??CrossCallReturnLabel_195
        CFI (cfiCond9) R6 load(1, XDATA, add(CFA_XSP16, literal(-15)))
        CFI (cfiCond9) VB load(1, XDATA, add(CFA_XSP16, literal(-14)))
        CFI (cfiCond9) V0 load(1, XDATA, add(CFA_XSP16, literal(-13)))
        CFI (cfiCond9) V1 load(1, XDATA, add(CFA_XSP16, literal(-12)))
        CFI (cfiCond9) V2 load(1, XDATA, add(CFA_XSP16, literal(-11)))
        CFI (cfiCond9) V3 load(1, XDATA, add(CFA_XSP16, literal(-10)))
        CFI (cfiCond9) V4 load(1, XDATA, add(CFA_XSP16, literal(-9)))
        CFI (cfiCond9) V5 load(1, XDATA, add(CFA_XSP16, literal(-8)))
        CFI (cfiCond9) V6 load(1, XDATA, add(CFA_XSP16, literal(-7)))
        CFI (cfiCond9) V7 load(1, XDATA, add(CFA_XSP16, literal(-6)))
        CFI (cfiCond9) R7 load(1, XDATA, add(CFA_XSP16, literal(-5)))
        CFI (cfiCond9) ?RET_LOW load(1, XDATA, add(CFA_XSP16, literal(-4)))
        CFI (cfiCond9) ?RET_HIGH load(1, XDATA, add(CFA_XSP16, literal(-3)))
        CFI (cfiCond9) DPL0 load(1, XDATA, add(CFA_XSP16, literal(-2)))
        CFI (cfiCond9) DPH0 load(1, XDATA, add(CFA_XSP16, literal(-1)))
        CFI (cfiCond9) CFA_SP SP+0
        CFI (cfiCond9) CFA_XSP16 add(XSP16, 15)
??Subroutine64_0:
        LCALL   ?Subroutine110
??CrossCallReturnLabel_386:
        RET
        CFI EndBlock cfiCond3
        CFI EndBlock cfiCond4
        CFI EndBlock cfiCond5
        CFI EndBlock cfiPicker6
        CFI EndBlock cfiCond7
        CFI EndBlock cfiCond8
        CFI EndBlock cfiCond9
//  443 //void bootOtherImage()
//  444 //  {void (*f)( void ) = ( void (*)( void ) ) page.imageAddr;  /*si->interImageCommunications[ JustLoaded ] = TRUE;*/ (*f)();}
//  445 
//  446 /******************************************************************************/
//  447 inline float sqr( float x ){ return x*x; }
//  448 /******************************************************************************/
//  449 //inline void setupFrequency(){
//  450     // Configure the radio frequency to use
//  451 //    FREQ2 = 0x64;  FREQ1 = 0x6A; FREQ0 = 0xAA; // always FCC
//  452 //}

        RSEG XDATA_I:XDATA:NOROOT(0)
        DATA
//  453 const INT32 defFreq = 0x646AAA;
defFreq:
        DS 4
        REQUIRE `?<Initializer for defFreq>`
        REQUIRE __INIT_XDATA_I

        RSEG XDATA_I:XDATA:NOROOT(0)
        DATA
//  454 const BYTE the_frequency[3] = { 0x64, 0x6A, 0xAA };
the_frequency:
        DS 3
        REQUIRE `?<Initializer for the_frequency>`
        REQUIRE __INIT_XDATA_I
//  455 // def_freq puts the frequency values into the FrequencyControl High/Medium/Low Bytes

        RSEG NEAR_CODE:CODE:NOROOT(0)
//  456 void def_freq(void){ mymemcpy( (BYTE *)0xDF09, (BYTE *)the_frequency, 3 ); }
def_freq:
        CFI Block cfiBlock10 Using cfiCommon0
        CFI Function def_freq
        FUNCALL def_freq, mymemcpy
        LOCFRAME ISTACK, 0, STACK
        LOCFRAME PSTACK, 0, STACK
        LOCFRAME XSTACK, 0, STACK
        LOCFRAME IOVERLAY, 0, STATIC
        LOCFRAME DOVERLAY, 0, STATIC
        ARGFRAME ISTACK, 0, STACK
        ARGFRAME PSTACK, 0, STACK
        ARGFRAME XSTACK, 0, STACK
        ARGFRAME IOVERLAY, 0, STATIC
        ARGFRAME DOVERLAY, 0, STATIC
        ; Saved register size: 0
        ; Auto size: 0
        ; Setup parameters for call to function mymemcpy
        MOV     R1,#0x3
        MOV     R4,#(the_frequency & 0xff)
        MOV     R5,#((the_frequency >> 8) & 0xff)
        MOV     R2,#0x9
        MOV     R3,#-0x21
        LCALL   mymemcpy
        RET
        CFI EndBlock cfiBlock10
//  457 
//  458 

        RSEG NEAR_CODE:CODE:NOROOT(0)
//  459 void setupRadioDR(BYTE dr, BYTE channel ){
setupRadioDR:
        CFI Block cfiBlock11 Using cfiCommon0
        CFI Function setupRadioDR
        FUNCALL setupRadioDR, tickWait
        LOCFRAME ISTACK, 0, STACK
        LOCFRAME PSTACK, 0, STACK
        LOCFRAME XSTACK, 8, STACK
        LOCFRAME IOVERLAY, 0, STATIC
        LOCFRAME DOVERLAY, 0, STATIC
        ARGFRAME ISTACK, 0, STACK
        ARGFRAME PSTACK, 0, STACK
        ARGFRAME XSTACK, 8, STACK
        ARGFRAME IOVERLAY, 0, STATIC
        ARGFRAME DOVERLAY, 0, STATIC
        FUNCALL setupRadioDR, radioConfigure
        LOCFRAME ISTACK, 0, STACK
        LOCFRAME PSTACK, 0, STACK
        LOCFRAME XSTACK, 8, STACK
        LOCFRAME IOVERLAY, 0, STATIC
        LOCFRAME DOVERLAY, 0, STATIC
        ARGFRAME ISTACK, 0, STACK
        ARGFRAME PSTACK, 0, STACK
        ARGFRAME XSTACK, 8, STACK
        ARGFRAME IOVERLAY, 0, STATIC
        ARGFRAME DOVERLAY, 0, STATIC
        FUNCALL setupRadioDR, radioConfigure
        LOCFRAME ISTACK, 0, STACK
        LOCFRAME PSTACK, 0, STACK
        LOCFRAME XSTACK, 8, STACK
        LOCFRAME IOVERLAY, 0, STATIC
        LOCFRAME DOVERLAY, 0, STATIC
        ARGFRAME ISTACK, 0, STACK
        ARGFRAME PSTACK, 0, STACK
        ARGFRAME XSTACK, 8, STACK
        ARGFRAME IOVERLAY, 0, STATIC
        ARGFRAME DOVERLAY, 0, STATIC
        MOV     A,#-0x8
        LCALL   ?FUNC_ENTER_XDATA
        CFI DPH0 load(1, XDATA, add(CFA_XSP16, literal(-1)))
        CFI DPL0 load(1, XDATA, add(CFA_XSP16, literal(-2)))
        CFI ?RET_HIGH load(1, XDATA, add(CFA_XSP16, literal(-3)))
        CFI ?RET_LOW load(1, XDATA, add(CFA_XSP16, literal(-4)))
        CFI R7 load(1, XDATA, add(CFA_XSP16, literal(-5)))
        CFI V0 load(1, XDATA, add(CFA_XSP16, literal(-6)))
        CFI VB load(1, XDATA, add(CFA_XSP16, literal(-7)))
        CFI R6 load(1, XDATA, add(CFA_XSP16, literal(-8)))
        CFI CFA_SP SP+0
        CFI CFA_XSP16 add(XSP16, 8)
        ; Saved register size: 8
        ; Auto size: 0
        MOV     A,R1
        MOV     R6,A
        MOV     A,R2
        MOV     R7,A
        SJMP    ??setupRadioDR_0
//  460     //INT_GLOBAL_ENABLE( INT_OFF );           // Enable interrupts globally
//  461         while( *((BYTE *)0xF53A) == RADIO_MODE_TX) tickWait(1);            
??setupRadioDR_1:
        ; Setup parameters for call to function tickWait
        MOV     R1,#0x1
        LCALL   tickWait
??setupRadioDR_0:
        MOV     DPTR,#-0xac6
        MOVX    A,@DPTR
        XRL     A,#0x10
        JZ      ??setupRadioDR_1
//  462         RFST = STROBE_IDLE; si->radioMode = RADIO_MODE_UNDEF;            
        LCALL   ?Subroutine24
//  463         S1CON &= ~0x03; RFIF &= ~IRQ_DONE;  RFIM = IRQ_DONE;                     // Mask IRQ_DONE flag only
??CrossCallReturnLabel_63:
        ANL     0x9b,#0xfc
        MOV     A,0x9b
        ANL     0xe9,#0xef
        MOV     0x91,#0x10
//  464         if( (dr == DATA_RATE_1_CC2511) && page.use250kbod )   radioConfigure( DATA_RATE_2_CC2511 ); 
        MOV     A,#0x32
        XRL     A,R6
        JNZ     ??setupRadioDR_2
        MOV     DPTR,#(page + 219)
        MOVX    A,@DPTR
        MOV     C,0xE0 /* A   */.1
        JNC     ??setupRadioDR_2
        ; Setup parameters for call to function radioConfigure
        MOV     R1,#0x19
        SJMP    ??setupRadioDR_3
//  465         else                                                  radioConfigure( dr ); 
??setupRadioDR_2:
        ; Setup parameters for call to function radioConfigure
        MOV     A,R6
        MOV     R1,A
??setupRadioDR_3:
        LCALL   radioConfigure
//  466         CHANNR = channel;      
        MOV     A,R7
        MOV     DPTR,#-0x20fa
        MOVX    @DPTR,A
//  467         if( dr == DATA_RATE_1_CC2511 ) PA_TABLE0 = page.repeaterPower;
        MOV     A,#0x32
        XRL     A,R6
        JNZ     ??setupRadioDR_4
        MOV     DPTR,#(page + 193)
        SJMP    ??setupRadioDR_5
//  468         else                           PA_TABLE0 = page.radioPower;
??setupRadioDR_4:
        MOV     DPTR,#(page + 189)
??setupRadioDR_5:
        MOVX    A,@DPTR
        MOV     DPTR,#-0x20d2
        LCALL   ?Subroutine80
//  469         ADDR = page.edAddr;
??CrossCallReturnLabel_257:
        MOVX    @DPTR,A
//  470         SYNC0 = page.syncword & 0xFF;    SYNC1 = ( page.syncword >> 8 ) & 0xFF;
        MOV     DPTR,#(page + 154)
        MOVX    A,@DPTR
        MOV     DPTR,#-0x20ff
        MOVX    @DPTR,A
        MOV     DPTR,#(page + 155)
        MOVX    A,@DPTR
        MOV     DPTR,#-0x2100
        MOVX    @DPTR,A
//  471         //RFST = STROBE_CAL; 
//  472         HAL_INT_ENABLE(INUM_RF,  INT_ON);    // Enable RF general interrupt
        ORL     0x9a,#0x1
//  473     //INT_GLOBAL_ENABLE( INT_ON );             // Enable interrupts globally
//  474 }
        LJMP    ?Subroutine120
        CFI EndBlock cfiBlock11
        REQUIRE RFIM
        REQUIRE IEN2
        REQUIRE S1CON
        REQUIRE _A_IEN0
        REQUIRE _A_IEN1
        REQUIRE RFST
        REQUIRE RFIF
//  475 extern BOOL transfer;

        RSEG NEAR_CODE:CODE:NOROOT(0)
//  476 void setupRadio( BYTE channel ){ setupRadioDR( page.is500Always ? DATA_RATE_1_CC2511 : DATA_RATE_3_CC2511, channel ); }
setupRadio:
        CFI Block cfiBlock12 Using cfiCommon0
        CFI Function setupRadio
        FUNCALL setupRadio, setupRadioDR
        LOCFRAME ISTACK, 2, STACK
        LOCFRAME PSTACK, 0, STACK
        LOCFRAME XSTACK, 0, STACK
        LOCFRAME IOVERLAY, 0, STATIC
        LOCFRAME DOVERLAY, 0, STATIC
        ARGFRAME ISTACK, 2, STACK
        ARGFRAME PSTACK, 0, STACK
        ARGFRAME XSTACK, 0, STACK
        ARGFRAME IOVERLAY, 0, STATIC
        ARGFRAME DOVERLAY, 0, STATIC
        PUSH    DPL
        CFI DPL0 Frame(CFA_SP, 3)
        CFI CFA_SP SP+-3
        PUSH    DPH
        CFI DPH0 Frame(CFA_SP, 4)
        CFI CFA_SP SP+-4
        ; Saved register size: 2
        ; Auto size: 0
        MOV     A,R1
        MOV     R2,A
        MOV     DPTR,#(page + 194)
        MOVX    A,@DPTR
        MOV     C,0xE0 /* A   */.6
        JNC     ??setupRadio_0
        MOV     R1,#0x32
        SJMP    ??setupRadio_1
??setupRadio_0:
        MOV     R1,#0xc
??setupRadio_1:
        ; Setup parameters for call to function setupRadioDR
        LCALL   setupRadioDR
        LJMP    ??Subroutine115_0
        CFI EndBlock cfiBlock12

        RSEG NEAR_CODE:CODE:NOROOT(0)
//  477 void setupRepeater( BOOL flag ){
setupRepeater:
        CFI Block cfiBlock13 Using cfiCommon0
        CFI Function setupRepeater
        FUNCALL setupRepeater, setupRadioDR
        LOCFRAME ISTACK, 2, STACK
        LOCFRAME PSTACK, 0, STACK
        LOCFRAME XSTACK, 0, STACK
        LOCFRAME IOVERLAY, 0, STATIC
        LOCFRAME DOVERLAY, 0, STATIC
        ARGFRAME ISTACK, 2, STACK
        ARGFRAME PSTACK, 0, STACK
        ARGFRAME XSTACK, 0, STACK
        ARGFRAME IOVERLAY, 0, STATIC
        ARGFRAME DOVERLAY, 0, STATIC
        FUNCALL setupRepeater, setupRadio
        LOCFRAME ISTACK, 2, STACK
        LOCFRAME PSTACK, 0, STACK
        LOCFRAME XSTACK, 0, STACK
        LOCFRAME IOVERLAY, 0, STATIC
        LOCFRAME DOVERLAY, 0, STATIC
        ARGFRAME ISTACK, 2, STACK
        ARGFRAME PSTACK, 0, STACK
        ARGFRAME XSTACK, 0, STACK
        ARGFRAME IOVERLAY, 0, STATIC
        ARGFRAME DOVERLAY, 0, STATIC
        PUSH    DPL
        CFI DPL0 Frame(CFA_SP, 3)
        CFI CFA_SP SP+-3
        PUSH    DPH
        CFI DPH0 Frame(CFA_SP, 4)
        CFI CFA_SP SP+-4
        ; Saved register size: 2
        ; Auto size: 0
//  478   DMAARM = 0x83; // stop receive and transmit
        MOV     0xd6,#-0x7d
//  479   if( flag && (!page.is500Always) ){  
        MOV     A,R1
        JZ      ??setupRepeater_0
        MOV     DPTR,#(page + 194)
        MOVX    A,@DPTR
        MOV     C,0xE0 /* A   */.6
        JC      ??setupRepeater_0
//  480        //P1_1 = 1;
//  481        setupRadioDR( DATA_RATE_1_CC2511, page.repeaterChannel );  
        ; Setup parameters for call to function setupRadioDR
        MOV     DPTR,#(page + 192)
        MOVX    A,@DPTR
        MOV     R2,A
        MOV     R1,#0x32
        LCALL   setupRadioDR
//  482        ADDR = page.gwAddr;  
        MOV     DPTR,#(page + 191)
        MOVX    A,@DPTR
        MOV     DPTR,#-0x20fb
        MOVX    @DPTR,A
        SJMP    ??CrossCallReturnLabel_129
//  483   }else{
//  484        //P1_1 = 0;
//  485        setupRadio( curChannel );                    
??setupRepeater_0:
        ; Setup parameters for call to function setupRadio
        LCALL   ?Subroutine51
//  486   }
//  487 }
??CrossCallReturnLabel_129:
        LJMP    ??Subroutine115_0
        CFI EndBlock cfiBlock13
        REQUIRE DMAARM

        RSEG NEAR_CODE:CODE:NOROOT(0)
?Subroutine51:
        CFI Block cfiCond14 Using cfiCommon0
        CFI NoFunction
        CFI Conditional ??CrossCallReturnLabel_129
        CFI DPL0 Frame(CFA_SP, 3)
        CFI DPH0 Frame(CFA_SP, 4)
        CFI CFA_SP SP+-4
        CFI Block cfiCond15 Using cfiCommon0
        CFI (cfiCond15) NoFunction
        CFI (cfiCond15) Conditional ??CrossCallReturnLabel_130
        CFI (cfiCond15) R6 load(1, XDATA, add(CFA_XSP16, literal(-15)))
        CFI (cfiCond15) VB load(1, XDATA, add(CFA_XSP16, literal(-14)))
        CFI (cfiCond15) V0 load(1, XDATA, add(CFA_XSP16, literal(-13)))
        CFI (cfiCond15) V1 load(1, XDATA, add(CFA_XSP16, literal(-12)))
        CFI (cfiCond15) V2 load(1, XDATA, add(CFA_XSP16, literal(-11)))
        CFI (cfiCond15) V3 load(1, XDATA, add(CFA_XSP16, literal(-10)))
        CFI (cfiCond15) V4 load(1, XDATA, add(CFA_XSP16, literal(-9)))
        CFI (cfiCond15) V5 load(1, XDATA, add(CFA_XSP16, literal(-8)))
        CFI (cfiCond15) V6 load(1, XDATA, add(CFA_XSP16, literal(-7)))
        CFI (cfiCond15) V7 load(1, XDATA, add(CFA_XSP16, literal(-6)))
        CFI (cfiCond15) R7 load(1, XDATA, add(CFA_XSP16, literal(-5)))
        CFI (cfiCond15) ?RET_LOW load(1, XDATA, add(CFA_XSP16, literal(-4)))
        CFI (cfiCond15) ?RET_HIGH load(1, XDATA, add(CFA_XSP16, literal(-3)))
        CFI (cfiCond15) DPL0 load(1, XDATA, add(CFA_XSP16, literal(-2)))
        CFI (cfiCond15) DPH0 load(1, XDATA, add(CFA_XSP16, literal(-1)))
        CFI (cfiCond15) CFA_SP SP+0
        CFI (cfiCond15) CFA_XSP16 add(XSP16, 15)
        CFI Block cfiPicker16 Using cfiCommon1
        CFI (cfiPicker16) NoFunction
        CFI (cfiPicker16) Picker
        MOV     DPTR,#curChannel
        CFI Block cfiCond17 Using cfiCommon0
        CFI (cfiCond17) NoFunction
        CFI (cfiCond17) Conditional ??CrossCallReturnLabel_131
        CFI (cfiCond17) R6 load(1, XDATA, add(CFA_XSP16, literal(-11)))
        CFI (cfiCond17) VB load(1, XDATA, add(CFA_XSP16, literal(-10)))
        CFI (cfiCond17) V0 load(1, XDATA, add(CFA_XSP16, literal(-9)))
        CFI (cfiCond17) V1 load(1, XDATA, add(CFA_XSP16, literal(-8)))
        CFI (cfiCond17) V2 load(1, XDATA, add(CFA_XSP16, literal(-7)))
        CFI (cfiCond17) V3 load(1, XDATA, add(CFA_XSP16, literal(-6)))
        CFI (cfiCond17) R7 load(1, XDATA, add(CFA_XSP16, literal(-5)))
        CFI (cfiCond17) ?RET_LOW load(1, XDATA, add(CFA_XSP16, literal(-4)))
        CFI (cfiCond17) ?RET_HIGH load(1, XDATA, add(CFA_XSP16, literal(-3)))
        CFI (cfiCond17) DPL0 load(1, XDATA, add(CFA_XSP16, literal(-2)))
        CFI (cfiCond17) DPH0 load(1, XDATA, add(CFA_XSP16, literal(-1)))
        CFI (cfiCond17) CFA_SP SP+0
        CFI (cfiCond17) CFA_XSP16 add(XSP16, 11)
        CFI Block cfiCond18 Using cfiCommon0
        CFI (cfiCond18) NoFunction
        CFI (cfiCond18) Conditional ??CrossCallReturnLabel_132
        CFI (cfiCond18) R6 load(1, XDATA, add(CFA_XSP16, literal(-13)))
        CFI (cfiCond18) VB load(1, XDATA, add(CFA_XSP16, literal(-12)))
        CFI (cfiCond18) V0 load(1, XDATA, add(CFA_XSP16, literal(-11)))
        CFI (cfiCond18) V1 load(1, XDATA, add(CFA_XSP16, literal(-10)))
        CFI (cfiCond18) V2 load(1, XDATA, add(CFA_XSP16, literal(-9)))
        CFI (cfiCond18) V3 load(1, XDATA, add(CFA_XSP16, literal(-8)))
        CFI (cfiCond18) V4 load(1, XDATA, add(CFA_XSP16, literal(-7)))
        CFI (cfiCond18) V5 load(1, XDATA, add(CFA_XSP16, literal(-6)))
        CFI (cfiCond18) R7 load(1, XDATA, add(CFA_XSP16, literal(-5)))
        CFI (cfiCond18) ?RET_LOW load(1, XDATA, add(CFA_XSP16, literal(-4)))
        CFI (cfiCond18) ?RET_HIGH load(1, XDATA, add(CFA_XSP16, literal(-3)))
        CFI (cfiCond18) DPL0 load(1, XDATA, add(CFA_XSP16, literal(-2)))
        CFI (cfiCond18) DPH0 load(1, XDATA, add(CFA_XSP16, literal(-1)))
        CFI (cfiCond18) CFA_SP SP+0
        CFI (cfiCond18) CFA_XSP16 add(XSP16, 13)
??Subroutine51_0:
        MOVX    A,@DPTR
        MOV     R1,A
        LCALL   setupRadio
        RET
        CFI EndBlock cfiCond14
        CFI EndBlock cfiCond15
        CFI EndBlock cfiPicker16
        CFI EndBlock cfiCond17
        CFI EndBlock cfiCond18

        RSEG NEAR_CODE:CODE:NOROOT(0)
//  488 void softKick(void){
softKick:
        CFI Block cfiBlock19 Using cfiCommon0
        CFI Function softKick
        FUNCALL softKick, zerofill
        LOCFRAME ISTACK, 2, STACK
        LOCFRAME PSTACK, 0, STACK
        LOCFRAME XSTACK, 0, STACK
        LOCFRAME IOVERLAY, 0, STATIC
        LOCFRAME DOVERLAY, 0, STATIC
        ARGFRAME ISTACK, 2, STACK
        ARGFRAME PSTACK, 0, STACK
        ARGFRAME XSTACK, 0, STACK
        ARGFRAME IOVERLAY, 0, STATIC
        ARGFRAME DOVERLAY, 0, STATIC
        FUNCALL softKick, def_freq
        LOCFRAME ISTACK, 2, STACK
        LOCFRAME PSTACK, 0, STACK
        LOCFRAME XSTACK, 0, STACK
        LOCFRAME IOVERLAY, 0, STATIC
        LOCFRAME DOVERLAY, 0, STATIC
        ARGFRAME ISTACK, 2, STACK
        ARGFRAME PSTACK, 0, STACK
        ARGFRAME XSTACK, 0, STACK
        ARGFRAME IOVERLAY, 0, STATIC
        ARGFRAME DOVERLAY, 0, STATIC
        FUNCALL softKick, load
        LOCFRAME ISTACK, 2, STACK
        LOCFRAME PSTACK, 0, STACK
        LOCFRAME XSTACK, 0, STACK
        LOCFRAME IOVERLAY, 0, STATIC
        LOCFRAME DOVERLAY, 0, STATIC
        ARGFRAME ISTACK, 2, STACK
        ARGFRAME PSTACK, 0, STACK
        ARGFRAME XSTACK, 0, STACK
        ARGFRAME IOVERLAY, 0, STATIC
        ARGFRAME DOVERLAY, 0, STATIC
        FUNCALL softKick, wait_aes
        LOCFRAME ISTACK, 2, STACK
        LOCFRAME PSTACK, 0, STACK
        LOCFRAME XSTACK, 0, STACK
        LOCFRAME IOVERLAY, 0, STATIC
        LOCFRAME DOVERLAY, 0, STATIC
        ARGFRAME ISTACK, 2, STACK
        ARGFRAME PSTACK, 0, STACK
        ARGFRAME XSTACK, 0, STACK
        ARGFRAME IOVERLAY, 0, STATIC
        ARGFRAME DOVERLAY, 0, STATIC
        FUNCALL softKick, setupRadio
        LOCFRAME ISTACK, 2, STACK
        LOCFRAME PSTACK, 0, STACK
        LOCFRAME XSTACK, 0, STACK
        LOCFRAME IOVERLAY, 0, STATIC
        LOCFRAME DOVERLAY, 0, STATIC
        ARGFRAME ISTACK, 2, STACK
        ARGFRAME PSTACK, 0, STACK
        ARGFRAME XSTACK, 0, STACK
        ARGFRAME IOVERLAY, 0, STATIC
        ARGFRAME DOVERLAY, 0, STATIC
        FUNCALL softKick, zerofill
        LOCFRAME ISTACK, 2, STACK
        LOCFRAME PSTACK, 0, STACK
        LOCFRAME XSTACK, 0, STACK
        LOCFRAME IOVERLAY, 0, STATIC
        LOCFRAME DOVERLAY, 0, STATIC
        ARGFRAME ISTACK, 2, STACK
        ARGFRAME PSTACK, 0, STACK
        ARGFRAME XSTACK, 0, STACK
        ARGFRAME IOVERLAY, 0, STATIC
        ARGFRAME DOVERLAY, 0, STATIC
        FUNCALL softKick, computeADCs
        LOCFRAME ISTACK, 2, STACK
        LOCFRAME PSTACK, 0, STACK
        LOCFRAME XSTACK, 0, STACK
        LOCFRAME IOVERLAY, 0, STATIC
        LOCFRAME DOVERLAY, 0, STATIC
        ARGFRAME ISTACK, 2, STACK
        ARGFRAME PSTACK, 0, STACK
        ARGFRAME XSTACK, 0, STACK
        ARGFRAME IOVERLAY, 0, STATIC
        ARGFRAME DOVERLAY, 0, STATIC
        PUSH    DPL
        CFI DPL0 Frame(CFA_SP, 3)
        CFI CFA_SP SP+-3
        PUSH    DPH
        CFI DPH0 Frame(CFA_SP, 4)
        CFI CFA_SP SP+-4
        ; Saved register size: 2
        ; Auto size: 0
//  489     //if( transfer ) return;
//  490     //INT_GLOBAL_ENABLE( INT_OFF );
//  491         //halPowerClkMgmtSetMainClkSrc(CRYSTAL);  // it is never needed to set crystall again
//  492         DMAARM = 0x83; RFST = STROBE_IDLE; si->radioMode = RADIO_MODE_UNDEF;            
        MOV     0xd6,#-0x7d
        LCALL   ?Subroutine24
//  493         //FREQ2 = 0x64;  FREQ1 = 0x6A; FREQ0 = 0xAA; // always FCC //setupFrequency();       //
//  494         zerofill( (BYTE *)&delta, 4 ); //delta = 0;     
??CrossCallReturnLabel_64:
        ; Setup parameters for call to function zerofill
        MOV     R1,#0x4
        MOV     R2,#(delta & 0xff)
        MOV     R3,#((delta >> 8) & 0xff)
        LCALL   zerofill
//  495         FSCTRL0 = 0;   def_freq();
        CLR     A
        MOV     DPTR,#-0x20f8
        MOVX    @DPTR,A
        ; Setup parameters for call to function def_freq
        LCALL   def_freq
//  496         //dmaRadioSetup();
//  497         //MCSM0 = 0x14; // calibraton on
//  498         loadKey( page.curKey );
        ; Setup parameters for call to function load
        LCALL   ?Subroutine81
//  499         setupRadio( curChannel = ( page.is500Always ? curChannel : page.channel ) );        // global interrups are enabled inside setup radio
??CrossCallReturnLabel_259:
        MOV     DPTR,#(page + 194)
        MOVX    A,@DPTR
        MOV     C,0xE0 /* A   */.6
        JNC     ??softKick_0
        MOV     DPTR,#curChannel
        SJMP    ??softKick_1
??softKick_0:
        MOV     DPTR,#(page + 164)
??softKick_1:
        MOVX    A,@DPTR
        MOV     R1,A
        MOV     A,R1
        MOV     DPTR,#curChannel
        MOVX    @DPTR,A
        ; Setup parameters for call to function setupRadio
        LCALL   setupRadio
//  500         zerofill( (BYTE *)&utcLast, 6 ); //utcLast = 0; msLast = 0;
        ; Setup parameters for call to function zerofill
        MOV     R1,#0x6
        MOV     R2,#(utcLast & 0xff)
        MOV     R3,#((utcLast >> 8) & 0xff)
        LCALL   zerofill
//  501         cmdCount = 0;
        MOV     DPTR,#cmdCount
        CLR     A
        MOVX    @DPTR,A
        INC     DPTR
        MOVX    @DPTR,A
//  502         //if( enable2SendData ){ computeADCs( TRUE, FALSE );  } // adjust quartz to temperature only if buffer is already full
//  503         computeADCs( TRUE, FALSE );  // adjust quartz to temperature only if buffer is already full
        ; Setup parameters for call to function computeADCs
        MOV     R2,A
        MOV     R1,#0x1
        LCALL   computeADCs
//  504         ticks[ ReceiveData ] = 1;
        LCALL   ?Subroutine1
//  505         ticks[ Hop ] = 0; cyclesToHop = 0;
??CrossCallReturnLabel_415:
        LCALL   ??Subroutine2_0
??CrossCallReturnLabel_2:
        MOV     DPTR,#cyclesToHop
        LJMP    ?Subroutine115
        CFI EndBlock cfiBlock19
        REQUIRE DMAARM
        REQUIRE RFST
//  506     //INT_GLOBAL_ENABLE( INT_ON );
//  507 }

        RSEG NEAR_CODE:CODE:NOROOT(0)
?Subroutine81:
        CFI Block cfiCond20 Using cfiCommon0
        CFI NoFunction
        CFI Conditional ??CrossCallReturnLabel_259
        CFI DPL0 Frame(CFA_SP, 3)
        CFI DPH0 Frame(CFA_SP, 4)
        CFI CFA_SP SP+-4
        CFI Block cfiCond21 Using cfiCommon0
        CFI (cfiCond21) NoFunction
        CFI (cfiCond21) Conditional ??CrossCallReturnLabel_260
        CFI Block cfiCond22 Using cfiCommon0
        CFI (cfiCond22) NoFunction
        CFI (cfiCond22) Conditional ??CrossCallReturnLabel_261
        CFI (cfiCond22) R6 load(1, XDATA, add(CFA_XSP16, literal(-11)))
        CFI (cfiCond22) VB load(1, XDATA, add(CFA_XSP16, literal(-10)))
        CFI (cfiCond22) V0 load(1, XDATA, add(CFA_XSP16, literal(-9)))
        CFI (cfiCond22) V1 load(1, XDATA, add(CFA_XSP16, literal(-8)))
        CFI (cfiCond22) V2 load(1, XDATA, add(CFA_XSP16, literal(-7)))
        CFI (cfiCond22) V3 load(1, XDATA, add(CFA_XSP16, literal(-6)))
        CFI (cfiCond22) R7 load(1, XDATA, add(CFA_XSP16, literal(-5)))
        CFI (cfiCond22) ?RET_LOW load(1, XDATA, add(CFA_XSP16, literal(-4)))
        CFI (cfiCond22) ?RET_HIGH load(1, XDATA, add(CFA_XSP16, literal(-3)))
        CFI (cfiCond22) DPL0 load(1, XDATA, add(CFA_XSP16, literal(-2)))
        CFI (cfiCond22) DPH0 load(1, XDATA, add(CFA_XSP16, literal(-1)))
        CFI (cfiCond22) CFA_SP SP+0
        CFI (cfiCond22) CFA_XSP16 add(XSP16, 11)
        CFI Block cfiCond23 Using cfiCommon0
        CFI (cfiCond23) NoFunction
        CFI (cfiCond23) Conditional ??CrossCallReturnLabel_262
        CFI (cfiCond23) R6 load(1, XDATA, add(CFA_XSP16, literal(-13)))
        CFI (cfiCond23) VB load(1, XDATA, add(CFA_XSP16, literal(-12)))
        CFI (cfiCond23) V0 load(1, XDATA, add(CFA_XSP16, literal(-11)))
        CFI (cfiCond23) V1 load(1, XDATA, add(CFA_XSP16, literal(-10)))
        CFI (cfiCond23) V2 load(1, XDATA, add(CFA_XSP16, literal(-9)))
        CFI (cfiCond23) V3 load(1, XDATA, add(CFA_XSP16, literal(-8)))
        CFI (cfiCond23) V4 load(1, XDATA, add(CFA_XSP16, literal(-7)))
        CFI (cfiCond23) V5 load(1, XDATA, add(CFA_XSP16, literal(-6)))
        CFI (cfiCond23) R7 load(1, XDATA, add(CFA_XSP16, literal(-5)))
        CFI (cfiCond23) ?RET_LOW load(1, XDATA, add(CFA_XSP16, literal(-4)))
        CFI (cfiCond23) ?RET_HIGH load(1, XDATA, add(CFA_XSP16, literal(-3)))
        CFI (cfiCond23) DPL0 load(1, XDATA, add(CFA_XSP16, literal(-2)))
        CFI (cfiCond23) DPH0 load(1, XDATA, add(CFA_XSP16, literal(-1)))
        CFI (cfiCond23) CFA_SP SP+0
        CFI (cfiCond23) CFA_XSP16 add(XSP16, 13)
        CFI Block cfiPicker24 Using cfiCommon1
        CFI (cfiPicker24) NoFunction
        CFI (cfiPicker24) Picker
        MOV     R2,#((page + 96) & 0xff)
        MOV     R3,#(((page + 96) >> 8) & 0xff)
        CFI Block cfiCond25 Using cfiCommon0
        CFI (cfiCond25) NoFunction
        CFI (cfiCond25) Conditional ??CrossCallReturnLabel_263
        CFI (cfiCond25) R6 load(1, XDATA, add(CFA_XSP16, literal(-13)))
        CFI (cfiCond25) VB load(1, XDATA, add(CFA_XSP16, literal(-12)))
        CFI (cfiCond25) V0 load(1, XDATA, add(CFA_XSP16, literal(-11)))
        CFI (cfiCond25) V1 load(1, XDATA, add(CFA_XSP16, literal(-10)))
        CFI (cfiCond25) V2 load(1, XDATA, add(CFA_XSP16, literal(-9)))
        CFI (cfiCond25) V3 load(1, XDATA, add(CFA_XSP16, literal(-8)))
        CFI (cfiCond25) V4 load(1, XDATA, add(CFA_XSP16, literal(-7)))
        CFI (cfiCond25) V5 load(1, XDATA, add(CFA_XSP16, literal(-6)))
        CFI (cfiCond25) R7 load(1, XDATA, add(CFA_XSP16, literal(-5)))
        CFI (cfiCond25) ?RET_LOW load(1, XDATA, add(CFA_XSP16, literal(-4)))
        CFI (cfiCond25) ?RET_HIGH load(1, XDATA, add(CFA_XSP16, literal(-3)))
        CFI (cfiCond25) DPL0 load(1, XDATA, add(CFA_XSP16, literal(-2)))
        CFI (cfiCond25) DPH0 load(1, XDATA, add(CFA_XSP16, literal(-1)))
        CFI (cfiCond25) CFA_SP SP+0
        CFI (cfiCond25) CFA_XSP16 add(XSP16, 13)
??Subroutine81_0:
        MOV     R1,#0x4
        CFI Block cfiCond26 Using cfiCommon0
        CFI (cfiCond26) NoFunction
        CFI (cfiCond26) Conditional ??CrossCallReturnLabel_264
        CFI (cfiCond26) R6 load(1, XDATA, add(CFA_XSP16, literal(-9)))
        CFI (cfiCond26) VB load(1, XDATA, add(CFA_XSP16, literal(-8)))
        CFI (cfiCond26) V0 load(1, XDATA, add(CFA_XSP16, literal(-7)))
        CFI (cfiCond26) V1 load(1, XDATA, add(CFA_XSP16, literal(-6)))
        CFI (cfiCond26) R7 load(1, XDATA, add(CFA_XSP16, literal(-5)))
        CFI (cfiCond26) ?RET_LOW load(1, XDATA, add(CFA_XSP16, literal(-4)))
        CFI (cfiCond26) ?RET_HIGH load(1, XDATA, add(CFA_XSP16, literal(-3)))
        CFI (cfiCond26) DPL0 load(1, XDATA, add(CFA_XSP16, literal(-2)))
        CFI (cfiCond26) DPH0 load(1, XDATA, add(CFA_XSP16, literal(-1)))
        CFI (cfiCond26) CFA_SP SP+0
        CFI (cfiCond26) CFA_XSP16 add(XSP16, 9)
        CFI Block cfiCond27 Using cfiCommon0
        CFI (cfiCond27) NoFunction
        CFI (cfiCond27) Conditional ??CrossCallReturnLabel_265
        CFI (cfiCond27) R6 load(1, XDATA, add(CFA_XSP16, literal(-15)))
        CFI (cfiCond27) VB load(1, XDATA, add(CFA_XSP16, literal(-14)))
        CFI (cfiCond27) V0 load(1, XDATA, add(CFA_XSP16, literal(-13)))
        CFI (cfiCond27) V1 load(1, XDATA, add(CFA_XSP16, literal(-12)))
        CFI (cfiCond27) V2 load(1, XDATA, add(CFA_XSP16, literal(-11)))
        CFI (cfiCond27) V3 load(1, XDATA, add(CFA_XSP16, literal(-10)))
        CFI (cfiCond27) V4 load(1, XDATA, add(CFA_XSP16, literal(-9)))
        CFI (cfiCond27) V5 load(1, XDATA, add(CFA_XSP16, literal(-8)))
        CFI (cfiCond27) V6 load(1, XDATA, add(CFA_XSP16, literal(-7)))
        CFI (cfiCond27) V7 load(1, XDATA, add(CFA_XSP16, literal(-6)))
        CFI (cfiCond27) R7 load(1, XDATA, add(CFA_XSP16, literal(-5)))
        CFI (cfiCond27) ?RET_LOW load(1, XDATA, add(CFA_XSP16, literal(-4)))
        CFI (cfiCond27) ?RET_HIGH load(1, XDATA, add(CFA_XSP16, literal(-3)))
        CFI (cfiCond27) DPL0 load(1, XDATA, add(CFA_XSP16, literal(-2)))
        CFI (cfiCond27) DPH0 load(1, XDATA, add(CFA_XSP16, literal(-1)))
        CFI (cfiCond27) CFA_SP SP+0
        CFI (cfiCond27) CFA_XSP16 add(XSP16, 15)
        CFI Block cfiCond28 Using cfiCommon0
        CFI (cfiCond28) NoFunction
        CFI (cfiCond28) Conditional ??CrossCallReturnLabel_266
        CFI (cfiCond28) R6 load(1, XDATA, add(CFA_XSP16, literal(-13)))
        CFI (cfiCond28) VB load(1, XDATA, add(CFA_XSP16, literal(-12)))
        CFI (cfiCond28) V0 load(1, XDATA, add(CFA_XSP16, literal(-11)))
        CFI (cfiCond28) V1 load(1, XDATA, add(CFA_XSP16, literal(-10)))
        CFI (cfiCond28) V2 load(1, XDATA, add(CFA_XSP16, literal(-9)))
        CFI (cfiCond28) V3 load(1, XDATA, add(CFA_XSP16, literal(-8)))
        CFI (cfiCond28) V4 load(1, XDATA, add(CFA_XSP16, literal(-7)))
        CFI (cfiCond28) V5 load(1, XDATA, add(CFA_XSP16, literal(-6)))
        CFI (cfiCond28) R7 load(1, XDATA, add(CFA_XSP16, literal(-5)))
        CFI (cfiCond28) ?RET_LOW load(1, XDATA, add(CFA_XSP16, literal(-4)))
        CFI (cfiCond28) ?RET_HIGH load(1, XDATA, add(CFA_XSP16, literal(-3)))
        CFI (cfiCond28) DPL0 load(1, XDATA, add(CFA_XSP16, literal(-2)))
        CFI (cfiCond28) DPH0 load(1, XDATA, add(CFA_XSP16, literal(-1)))
        CFI (cfiCond28) CFA_SP SP+0
        CFI (cfiCond28) CFA_XSP16 add(XSP16, 13)
??Subroutine81_1:
        LCALL   load
        ; Setup parameters for call to function wait_aes
        ; Setup parameters for call to function wait_aes
        ; Setup parameters for call to function wait_aes
        ; Setup parameters for call to function wait_aes
        ; Setup parameters for call to function wait_aes
        ; Setup parameters for call to function wait_aes
        ; Setup parameters for call to function wait_aes
        ; Setup parameters for call to function wait_aes
        LCALL   wait_aes
        RET
        CFI EndBlock cfiCond20
        CFI EndBlock cfiCond21
        CFI EndBlock cfiCond22
        CFI EndBlock cfiCond23
        CFI EndBlock cfiPicker24
        CFI EndBlock cfiCond25
        CFI EndBlock cfiCond26
        CFI EndBlock cfiCond27
        CFI EndBlock cfiCond28

        RSEG NEAR_CODE:CODE:NOROOT(0)
?Subroutine24:
        CFI Block cfiCond29 Using cfiCommon0
        CFI NoFunction
        CFI Conditional ??CrossCallReturnLabel_63
        CFI R6 load(1, XDATA, add(CFA_XSP16, literal(-8)))
        CFI VB load(1, XDATA, add(CFA_XSP16, literal(-7)))
        CFI V0 load(1, XDATA, add(CFA_XSP16, literal(-6)))
        CFI R7 load(1, XDATA, add(CFA_XSP16, literal(-5)))
        CFI ?RET_LOW load(1, XDATA, add(CFA_XSP16, literal(-4)))
        CFI ?RET_HIGH load(1, XDATA, add(CFA_XSP16, literal(-3)))
        CFI DPL0 load(1, XDATA, add(CFA_XSP16, literal(-2)))
        CFI DPH0 load(1, XDATA, add(CFA_XSP16, literal(-1)))
        CFI CFA_SP SP+0
        CFI CFA_XSP16 add(XSP16, 8)
        CFI Block cfiCond30 Using cfiCommon0
        CFI (cfiCond30) NoFunction
        CFI (cfiCond30) Conditional ??CrossCallReturnLabel_64
        CFI (cfiCond30) DPL0 Frame(CFA_SP, 3)
        CFI (cfiCond30) DPH0 Frame(CFA_SP, 4)
        CFI (cfiCond30) CFA_SP SP+-4
        CFI Block cfiPicker31 Using cfiCommon1
        CFI (cfiPicker31) NoFunction
        CFI (cfiPicker31) Picker
        MOV     0xe1,#0x4
        LCALL   ?Subroutine89
??CrossCallReturnLabel_289:
        MOV     A,#-0x10
        MOVX    @DPTR,A
        RET
        CFI EndBlock cfiCond29
        CFI EndBlock cfiCond30
        CFI EndBlock cfiPicker31

        RSEG NEAR_CODE:CODE:NOROOT(0)
//  508 void restoreRadio(){
restoreRadio:
        CFI Block cfiBlock32 Using cfiCommon0
        CFI Function restoreRadio
        PUSH    DPL
        CFI DPL0 Frame(CFA_SP, 3)
        CFI CFA_SP SP+-3
        PUSH    DPH
        CFI DPH0 Frame(CFA_SP, 4)
        CFI CFA_SP SP+-4
        ; Saved register size: 2
        ; Auto size: 0
//  509     //ticks[ ReceiveData ] = 1;
//  510     //HAL_INT_ENABLE(INUM_RF,  INT_ON);    // Enable RF general interrupt
//  511     //INT_GLOBAL_ENABLE( INT_ON );             // Enable interrupts globally
//  512     //DMAARM = 0x83; RFST = STROBE_IDLE; 
//  513     ticks[ ReceiveData ] = 1;
        LCALL   ?Subroutine1
//  514 }
??CrossCallReturnLabel_416:
        LJMP    ??Subroutine115_0
        CFI EndBlock cfiBlock32
//  515 /******************************************************************************/

        RSEG NEAR_CODE:CODE:NOROOT(0)
//  516 void init(void){
init:
        CFI Block cfiBlock33 Using cfiCommon0
        CFI Function init
        FUNCALL init, zerofill
        LOCFRAME ISTACK, 0, STACK
        LOCFRAME PSTACK, 0, STACK
        LOCFRAME XSTACK, 15, STACK
        LOCFRAME IOVERLAY, 0, STATIC
        LOCFRAME DOVERLAY, 0, STATIC
        ARGFRAME ISTACK, 0, STACK
        ARGFRAME PSTACK, 0, STACK
        ARGFRAME XSTACK, 15, STACK
        ARGFRAME IOVERLAY, 0, STATIC
        ARGFRAME DOVERLAY, 0, STATIC
        FUNCALL init, setup_hopper
        LOCFRAME ISTACK, 0, STACK
        LOCFRAME PSTACK, 0, STACK
        LOCFRAME XSTACK, 15, STACK
        LOCFRAME IOVERLAY, 0, STATIC
        LOCFRAME DOVERLAY, 0, STATIC
        ARGFRAME ISTACK, 0, STACK
        ARGFRAME PSTACK, 0, STACK
        ARGFRAME XSTACK, 15, STACK
        ARGFRAME IOVERLAY, 0, STATIC
        ARGFRAME DOVERLAY, 0, STATIC
        FUNCALL init, dmaRadioSetup
        LOCFRAME ISTACK, 0, STACK
        LOCFRAME PSTACK, 0, STACK
        LOCFRAME XSTACK, 15, STACK
        LOCFRAME IOVERLAY, 0, STATIC
        LOCFRAME DOVERLAY, 0, STATIC
        ARGFRAME ISTACK, 0, STACK
        ARGFRAME PSTACK, 0, STACK
        ARGFRAME XSTACK, 15, STACK
        ARGFRAME IOVERLAY, 0, STATIC
        ARGFRAME DOVERLAY, 0, STATIC
        FUNCALL init, def_freq
        LOCFRAME ISTACK, 0, STACK
        LOCFRAME PSTACK, 0, STACK
        LOCFRAME XSTACK, 15, STACK
        LOCFRAME IOVERLAY, 0, STATIC
        LOCFRAME DOVERLAY, 0, STATIC
        ARGFRAME ISTACK, 0, STACK
        ARGFRAME PSTACK, 0, STACK
        ARGFRAME XSTACK, 15, STACK
        ARGFRAME IOVERLAY, 0, STATIC
        ARGFRAME DOVERLAY, 0, STATIC
        FUNCALL init, setupRadio
        LOCFRAME ISTACK, 0, STACK
        LOCFRAME PSTACK, 0, STACK
        LOCFRAME XSTACK, 15, STACK
        LOCFRAME IOVERLAY, 0, STATIC
        LOCFRAME DOVERLAY, 0, STATIC
        ARGFRAME ISTACK, 0, STACK
        ARGFRAME PSTACK, 0, STACK
        ARGFRAME XSTACK, 15, STACK
        ARGFRAME IOVERLAY, 0, STATIC
        ARGFRAME DOVERLAY, 0, STATIC
        MOV     A,#-0xf
        LCALL   ?FUNC_ENTER_XDATA
        CFI DPH0 load(1, XDATA, add(CFA_XSP16, literal(-1)))
        CFI DPL0 load(1, XDATA, add(CFA_XSP16, literal(-2)))
        CFI ?RET_HIGH load(1, XDATA, add(CFA_XSP16, literal(-3)))
        CFI ?RET_LOW load(1, XDATA, add(CFA_XSP16, literal(-4)))
        CFI R7 load(1, XDATA, add(CFA_XSP16, literal(-5)))
        CFI V7 load(1, XDATA, add(CFA_XSP16, literal(-6)))
        CFI V6 load(1, XDATA, add(CFA_XSP16, literal(-7)))
        CFI V5 load(1, XDATA, add(CFA_XSP16, literal(-8)))
        CFI V4 load(1, XDATA, add(CFA_XSP16, literal(-9)))
        CFI V3 load(1, XDATA, add(CFA_XSP16, literal(-10)))
        CFI V2 load(1, XDATA, add(CFA_XSP16, literal(-11)))
        CFI V1 load(1, XDATA, add(CFA_XSP16, literal(-12)))
        CFI V0 load(1, XDATA, add(CFA_XSP16, literal(-13)))
        CFI VB load(1, XDATA, add(CFA_XSP16, literal(-14)))
        CFI R6 load(1, XDATA, add(CFA_XSP16, literal(-15)))
        CFI CFA_SP SP+0
        CFI CFA_XSP16 add(XSP16, 15)
        ; Saved register size: 15
        ; Auto size: 0
//  517 BYTE pin;
//  518     P0DIR = 0;    // all port 0 pins are input
        MOV     0xfd,#0x0
//  519     P0INP = 0xFF; // all port 0 pins are tristate
        MOV     0x8f,#-0x1
//  520     ADC_ENABLE_CHANNELS( 0xFF );
        MOV     A,0xf2
        MOV     0xf2,#-0x1
//  521     for( pin = 0; pin < 8; pin++ ){ IO_ADC_PORT0_PIN( pin, IO_ADC_EN); }
        MOV     R2,#0x0
??init_0:
        MOV     ?V0 + 0,#0x1
        MOV     ?V0 + 1,#0x0
        MOV     A,R2
        MOV     R0,#?V0 + 0
        LCALL   ?S_SHL
        MOV     A,?V0 + 0
        ORL     A,0xf2
        MOV     0xf2,A
        INC     R2
        MOV     A,R2
        CLR     C
        SUBB    A,#0x8
        JC      ??init_0
//  522 
//  523     // 2 top pins are secial function - timer 3 channels
//  524     P1SEL = 0xC0;                          
        MOV     0xf4,#-0x40
//  525     // pins 7(oc) 6(ov) 4(on/off), 3(mpp), 1(LED), 0(mpp cycle) are for output
//  526     P1DIR = 0xDB;   // 1101 1011
        MOV     0xfe,#-0x25
//  527 
//  528     T3CTL   = 0x50; // was 0x70, prescaler 1/4, normal operation, mode - free running
        MOV     0xcb,#0x50
//  529     T3CCTL0 = 0x24; // clear output on compare up, set on 0, enabled
        MOV     0xcc,#0x24
//  530     T3CCTL1 = 0x24; // clear output on compare up, set on 0, enabled
        MOV     0xce,#0x24
//  531     PERCFG  = 0x20; // Timer3 has alternate 2 location - P1_6 & P1_7
        MOV     0xf1,#0x20
//  532 
//  533     P2SEL   = 0x20; // Timer3 has priority over USART1
        MOV     0xf5,#0x20
//  534     // pull down commented out for version 8
//  535     //P2DIR   = 0x0F; P2_1 = 0; P2_2 = 0;
//  536     
//  537     //P1_3 = 1; //P1 |= 8;  // MPP ON
//  538     zerofill( (BYTE *)adcsTemp, sizeof(adcsTemp) );
        ; Setup parameters for call to function zerofill
        MOV     R1,#0x12
        MOV     R2,#(adcsTemp & 0xff)
        MOV     R3,#((adcsTemp >> 8) & 0xff)
        LCALL   zerofill
//  539     //     LED down,  MPP off, Module Off 
//  540     //P1 &= ~ ( 2 | 8 | 0x10 ); 
//  541     
//  542     P0SEL = 0;
        MOV     0xf3,#0x0
//  543     // Choose the crystal oscillator as the system clock
//  544  //   P1_1 = 0;
//  545  //   halPowerClkMgmtSetMainClkSrc(CRYSTAL);
//  546     // Select frequency and data rate from LCD menu, then configure the radio
//  547     
//  548     // Configure interrupt for every time a packet is sent
//  549     
//  550     FSCTRL0 = 0;
        CLR     A
        MOV     DPTR,#-0x20f8
        MOVX    @DPTR,A
//  551         
//  552     setup_hopper( page.channel );
        ; Setup parameters for call to function setup_hopper
        MOV     DPTR,#(page + 164)
        MOVX    A,@DPTR
        MOV     R1,A
        LCALL   setup_hopper
//  553     dmaRadioSetup();
        ; Setup parameters for call to function dmaRadioSetup
        LCALL   dmaRadioSetup
//  554 
//  555     //FREQ2 = 0x64;  FREQ1 = 0x6A; FREQ0 = 0xAA; // always FCC setupFrequency();
//  556     def_freq();
        ; Setup parameters for call to function def_freq
        LCALL   def_freq
//  557     setupRadio( curChannel ); //page.is500Always? page.starting500Channel : page.channel );  // global interrupts are inabled inside the setupRadio
        ; Setup parameters for call to function setupRadio
        LCALL   ?Subroutine51
//  558 
//  559     //calibrateParking();
//  560 
//  561     invVref0 = 1.0 / page.vrefPolynom[0];
??CrossCallReturnLabel_130:
        MOV     ?V0 + 0,#0x0
        MOV     ?V0 + 1,#0x0
        MOV     ?V0 + 2,#-0x80
        MOV     ?V0 + 3,#0x3f
        MOV     DPTR,#(page + 28)
        MOV     R0,#?V0 + 4
        LCALL   ?L_MOV_X
        MOV     R0,#?V0 + 0
        MOV     R1,#?V0 + 4
        LCALL   ?FLT_DIV
        MOV     DPTR,#invVref0
        MOV     R0,#?V0 + 0
        LCALL   ?L_MOV_TO_X
//  562     //__________________________________________________________________________
//  563    // Over Voltage     Over Current
//  564 
//  565     T3CTL |= 0x14;
        ORL     0xcb,#0x14
        MOV     A,0xcb
//  566     
//  567     HAL_INT_ENABLE(INUM_T1,  INT_ON);    // enable Timer1 interrupt
        SETB    0xb8.1
//  568     HAL_INT_ENABLE(INUM_ADC, INT_ON);    // enable ADC interrupt
        SETB    0xa8.1
//  569     HAL_INT_ENABLE(INUM_RF,  INT_ON);    // Enable RF general interrupt
        ORL     0x9a,#0x1
//  570 }
        LJMP    ??Subroutine121_1
        CFI EndBlock cfiBlock33
        REQUIRE P0INP
        REQUIRE IEN2
        REQUIRE _A_IEN0
        REQUIRE _A_IEN1
        REQUIRE T3CTL
        REQUIRE T3CCTL0
        REQUIRE T3CCTL1
        REQUIRE PERCFG
        REQUIRE ADCCFG
        REQUIRE P0SEL
        REQUIRE P1SEL
        REQUIRE P2SEL
        REQUIRE P0DIR
        REQUIRE P1DIR
//  571 /******************************************************************************/

        RSEG NEAR_CODE:CODE:NOROOT(0)
//  572 void ov_startup(void)
ov_startup:
        CFI Block cfiBlock34 Using cfiCommon0
        CFI Function ov_startup
//  573 {
        PUSH    DPL
        CFI DPL0 Frame(CFA_SP, 3)
        CFI CFA_SP SP+-3
        PUSH    DPH
        CFI DPH0 Frame(CFA_SP, 4)
        CFI CFA_SP SP+-4
        ; Saved register size: 2
        ; Auto size: 0
//  574   // ensure FETs are good/Module can turn on before beginning ov_startup sequence
//  575   // and turning module on.
//  576   if (*ModuleOffRememberedPtr == ModuleStatusCanTurnOn)
        MOV     DPTR,#-0x3
        MOVX    A,@DPTR
        JNZ     ??ov_startup_0
//  577   {
//  578     if( page.ov_startup )
        MOV     DPTR,#(page + 223)
        MOVX    A,@DPTR
        MOV     R2,A
        JZ      ??CrossCallReturnLabel_17
//  579     {
//  580       T3CC0 = (page.ov_startup < page.ov) ? page.ov_startup : page.ov; 
        MOV     DPTR,#(page + 187)
        MOVX    A,@DPTR
        MOV     R3,A
        MOV     A,R2
        CLR     C
        SUBB    A,R3
        JNC     ??ov_startup_1
        MOV     A,R2
        SJMP    ??ov_startup_2
??ov_startup_1:
        MOV     A,R3
??ov_startup_2:
        MOV     R4,A
        MOV     0xcd,R4
//  581       atomicChange( OvStartup, TICKS_IN_SEC );
        MOV     DPTR,#ticks
        MOVX    A,@DPTR
        ADD     A,#0x1e
        LCALL   ??Subroutine5_0
//  582       //        #ifdef MidString                                                                            
//  583       //        compute98();                                                                                
//  584       //        #endif
//  585     }
//  586     P1_4 = 1;
??CrossCallReturnLabel_17:
        SETB    0x90.4
//  587   }
//  588 }
??ov_startup_0:
        LJMP    ??Subroutine115_0
        CFI EndBlock cfiBlock34
        REQUIRE _A_P1
        REQUIRE T3CC0
//  589 
//  590 /******************************************************************************/

        RSEG XDATA_Z:XDATA:NOROOT(0)
//  591 float *_coeff, invRef = 0;
_coeff:
        DS 2
        REQUIRE __INIT_XDATA_Z

        RSEG XDATA_Z:XDATA:NOROOT(0)
invRef:
        DS 4
        REQUIRE __INIT_XDATA_Z

        RSEG NEAR_CODE:CODE:NOROOT(0)
//  592 float mult( float t, INT16 i ){ return (t)*(float)i; }
mult:
        CFI Block cfiBlock35 Using cfiCommon0
        CFI Function mult
        MOV     A,#-0xf
        LCALL   ?FUNC_ENTER_XDATA
        CFI DPH0 load(1, XDATA, add(CFA_XSP16, literal(-1)))
        CFI DPL0 load(1, XDATA, add(CFA_XSP16, literal(-2)))
        CFI ?RET_HIGH load(1, XDATA, add(CFA_XSP16, literal(-3)))
        CFI ?RET_LOW load(1, XDATA, add(CFA_XSP16, literal(-4)))
        CFI R7 load(1, XDATA, add(CFA_XSP16, literal(-5)))
        CFI V7 load(1, XDATA, add(CFA_XSP16, literal(-6)))
        CFI V6 load(1, XDATA, add(CFA_XSP16, literal(-7)))
        CFI V5 load(1, XDATA, add(CFA_XSP16, literal(-8)))
        CFI V4 load(1, XDATA, add(CFA_XSP16, literal(-9)))
        CFI V3 load(1, XDATA, add(CFA_XSP16, literal(-10)))
        CFI V2 load(1, XDATA, add(CFA_XSP16, literal(-11)))
        CFI V1 load(1, XDATA, add(CFA_XSP16, literal(-12)))
        CFI V0 load(1, XDATA, add(CFA_XSP16, literal(-13)))
        CFI VB load(1, XDATA, add(CFA_XSP16, literal(-14)))
        CFI R6 load(1, XDATA, add(CFA_XSP16, literal(-15)))
        CFI CFA_SP SP+0
        CFI CFA_XSP16 add(XSP16, 15)
        ; Saved register size: 15
        ; Auto size: 0
        MOV     ?V0 + 4,R2
        MOV     ?V0 + 5,R3
        MOV     ?V0 + 6,R4
        MOV     ?V0 + 7,R5
        MOV     A,#0xf
        LCALL   ?XSTACK_DISP0_8
        LCALL   ?Subroutine26
??CrossCallReturnLabel_67:
        LCALL   ?Subroutine83
??CrossCallReturnLabel_269:
        LCALL   ?L_TO_FLT
        LJMP    ?Subroutine121
        CFI EndBlock cfiBlock35

        RSEG NEAR_CODE:CODE:NOROOT(0)
//  593 float lin_coeff( float f ){ return _coeff[0]*f + _coeff[1]; }
lin_coeff:
        CFI Block cfiBlock36 Using cfiCommon0
        CFI Function lin_coeff
        MOV     A,#-0xf
        LCALL   ?FUNC_ENTER_XDATA
        CFI DPH0 load(1, XDATA, add(CFA_XSP16, literal(-1)))
        CFI DPL0 load(1, XDATA, add(CFA_XSP16, literal(-2)))
        CFI ?RET_HIGH load(1, XDATA, add(CFA_XSP16, literal(-3)))
        CFI ?RET_LOW load(1, XDATA, add(CFA_XSP16, literal(-4)))
        CFI R7 load(1, XDATA, add(CFA_XSP16, literal(-5)))
        CFI V7 load(1, XDATA, add(CFA_XSP16, literal(-6)))
        CFI V6 load(1, XDATA, add(CFA_XSP16, literal(-7)))
        CFI V5 load(1, XDATA, add(CFA_XSP16, literal(-8)))
        CFI V4 load(1, XDATA, add(CFA_XSP16, literal(-9)))
        CFI V3 load(1, XDATA, add(CFA_XSP16, literal(-10)))
        CFI V2 load(1, XDATA, add(CFA_XSP16, literal(-11)))
        CFI V1 load(1, XDATA, add(CFA_XSP16, literal(-12)))
        CFI V0 load(1, XDATA, add(CFA_XSP16, literal(-13)))
        CFI VB load(1, XDATA, add(CFA_XSP16, literal(-14)))
        CFI R6 load(1, XDATA, add(CFA_XSP16, literal(-15)))
        CFI CFA_SP SP+0
        CFI CFA_XSP16 add(XSP16, 15)
        ; Saved register size: 15
        ; Auto size: 0
        MOV     ?V0 + 0,R2
        MOV     ?V0 + 1,R3
        MOV     ?V0 + 2,R4
        MOV     ?V0 + 3,R5
        MOV     DPTR,#_coeff
        LCALL   ??Subroutine47_1
??CrossCallReturnLabel_117:
        MOV     R0,#?V0 + 4
        LCALL   ?L_MOV_X
        MOV     R0,#?V0 + 4
        MOV     R1,#?V0 + 0
        LCALL   ?FLT_MUL
        LCALL   ?Subroutine46
??CrossCallReturnLabel_113:
        MOV     R0,#?V0 + 0
        LCALL   ?L_MOV_X
        MOV     R0,#?V0 + 4
        MOV     R1,#?V0 + 0
        LCALL   ?FLT_ADD
        LJMP    ??Subroutine121_0
        CFI EndBlock cfiBlock36

        RSEG NEAR_CODE:CODE:NOROOT(0)
//  594 float lin_coeff_t( float f ){    return (_coeff[1] - f )*_coeff[0]; }
lin_coeff_t:
        CFI Block cfiBlock37 Using cfiCommon0
        CFI Function lin_coeff_t
        MOV     A,#-0xf
        LCALL   ?FUNC_ENTER_XDATA
        CFI DPH0 load(1, XDATA, add(CFA_XSP16, literal(-1)))
        CFI DPL0 load(1, XDATA, add(CFA_XSP16, literal(-2)))
        CFI ?RET_HIGH load(1, XDATA, add(CFA_XSP16, literal(-3)))
        CFI ?RET_LOW load(1, XDATA, add(CFA_XSP16, literal(-4)))
        CFI R7 load(1, XDATA, add(CFA_XSP16, literal(-5)))
        CFI V7 load(1, XDATA, add(CFA_XSP16, literal(-6)))
        CFI V6 load(1, XDATA, add(CFA_XSP16, literal(-7)))
        CFI V5 load(1, XDATA, add(CFA_XSP16, literal(-8)))
        CFI V4 load(1, XDATA, add(CFA_XSP16, literal(-9)))
        CFI V3 load(1, XDATA, add(CFA_XSP16, literal(-10)))
        CFI V2 load(1, XDATA, add(CFA_XSP16, literal(-11)))
        CFI V1 load(1, XDATA, add(CFA_XSP16, literal(-12)))
        CFI V0 load(1, XDATA, add(CFA_XSP16, literal(-13)))
        CFI VB load(1, XDATA, add(CFA_XSP16, literal(-14)))
        CFI R6 load(1, XDATA, add(CFA_XSP16, literal(-15)))
        CFI CFA_SP SP+0
        CFI CFA_XSP16 add(XSP16, 15)
        ; Saved register size: 15
        ; Auto size: 0
        MOV     ?V0 + 0,R2
        MOV     ?V0 + 1,R3
        MOV     ?V0 + 2,R4
        MOV     ?V0 + 3,R5
        LCALL   ?Subroutine46
??CrossCallReturnLabel_114:
        MOV     R0,#?V0 + 4
        LCALL   ?L_MOV_X
        MOV     R0,#?V0 + 4
        MOV     R1,#?V0 + 0
        LCALL   ?FLT_SUB
        MOV     DPTR,#_coeff
        LCALL   ??Subroutine47_1
??CrossCallReturnLabel_118:
        MOV     R0,#?V0 + 0
        LCALL   ?L_MOV_X
        LJMP    ?Subroutine121
        CFI EndBlock cfiBlock37

        RSEG NEAR_CODE:CODE:NOROOT(0)
?Subroutine46:
        CFI Block cfiCond38 Using cfiCommon0
        CFI NoFunction
        CFI Conditional ??CrossCallReturnLabel_113
        CFI R6 load(1, XDATA, add(CFA_XSP16, literal(-15)))
        CFI VB load(1, XDATA, add(CFA_XSP16, literal(-14)))
        CFI V0 load(1, XDATA, add(CFA_XSP16, literal(-13)))
        CFI V1 load(1, XDATA, add(CFA_XSP16, literal(-12)))
        CFI V2 load(1, XDATA, add(CFA_XSP16, literal(-11)))
        CFI V3 load(1, XDATA, add(CFA_XSP16, literal(-10)))
        CFI V4 load(1, XDATA, add(CFA_XSP16, literal(-9)))
        CFI V5 load(1, XDATA, add(CFA_XSP16, literal(-8)))
        CFI V6 load(1, XDATA, add(CFA_XSP16, literal(-7)))
        CFI V7 load(1, XDATA, add(CFA_XSP16, literal(-6)))
        CFI R7 load(1, XDATA, add(CFA_XSP16, literal(-5)))
        CFI ?RET_LOW load(1, XDATA, add(CFA_XSP16, literal(-4)))
        CFI ?RET_HIGH load(1, XDATA, add(CFA_XSP16, literal(-3)))
        CFI DPL0 load(1, XDATA, add(CFA_XSP16, literal(-2)))
        CFI DPH0 load(1, XDATA, add(CFA_XSP16, literal(-1)))
        CFI CFA_SP SP+0
        CFI CFA_XSP16 add(XSP16, 15)
        CFI Block cfiCond39 Using cfiCommon0
        CFI (cfiCond39) NoFunction
        CFI (cfiCond39) Conditional ??CrossCallReturnLabel_114
        CFI (cfiCond39) R6 load(1, XDATA, add(CFA_XSP16, literal(-15)))
        CFI (cfiCond39) VB load(1, XDATA, add(CFA_XSP16, literal(-14)))
        CFI (cfiCond39) V0 load(1, XDATA, add(CFA_XSP16, literal(-13)))
        CFI (cfiCond39) V1 load(1, XDATA, add(CFA_XSP16, literal(-12)))
        CFI (cfiCond39) V2 load(1, XDATA, add(CFA_XSP16, literal(-11)))
        CFI (cfiCond39) V3 load(1, XDATA, add(CFA_XSP16, literal(-10)))
        CFI (cfiCond39) V4 load(1, XDATA, add(CFA_XSP16, literal(-9)))
        CFI (cfiCond39) V5 load(1, XDATA, add(CFA_XSP16, literal(-8)))
        CFI (cfiCond39) V6 load(1, XDATA, add(CFA_XSP16, literal(-7)))
        CFI (cfiCond39) V7 load(1, XDATA, add(CFA_XSP16, literal(-6)))
        CFI (cfiCond39) R7 load(1, XDATA, add(CFA_XSP16, literal(-5)))
        CFI (cfiCond39) ?RET_LOW load(1, XDATA, add(CFA_XSP16, literal(-4)))
        CFI (cfiCond39) ?RET_HIGH load(1, XDATA, add(CFA_XSP16, literal(-3)))
        CFI (cfiCond39) DPL0 load(1, XDATA, add(CFA_XSP16, literal(-2)))
        CFI (cfiCond39) DPH0 load(1, XDATA, add(CFA_XSP16, literal(-1)))
        CFI (cfiCond39) CFA_SP SP+0
        CFI (cfiCond39) CFA_XSP16 add(XSP16, 15)
        CFI Block cfiPicker40 Using cfiCommon1
        CFI (cfiPicker40) NoFunction
        CFI (cfiPicker40) Picker
        MOV     DPTR,#_coeff
        LCALL   ??Subroutine92_0
??CrossCallReturnLabel_397:
        RET
        CFI EndBlock cfiCond38
        CFI EndBlock cfiCond39
        CFI EndBlock cfiPicker40

        RSEG NEAR_CODE:CODE:NOROOT(0)
//  595 float lin( BYTE idx ){
lin:
        CFI Block cfiBlock41 Using cfiCommon0
        CFI Function lin
        FUNCALL lin, lin_coeff_t
        LOCFRAME ISTACK, 0, STACK
        LOCFRAME PSTACK, 0, STACK
        LOCFRAME XSTACK, 15, STACK
        LOCFRAME IOVERLAY, 0, STATIC
        LOCFRAME DOVERLAY, 0, STATIC
        ARGFRAME ISTACK, 0, STACK
        ARGFRAME PSTACK, 0, STACK
        ARGFRAME XSTACK, 15, STACK
        ARGFRAME IOVERLAY, 0, STATIC
        ARGFRAME DOVERLAY, 0, STATIC
        MOV     A,#-0xf
        LCALL   ?FUNC_ENTER_XDATA
        CFI DPH0 load(1, XDATA, add(CFA_XSP16, literal(-1)))
        CFI DPL0 load(1, XDATA, add(CFA_XSP16, literal(-2)))
        CFI ?RET_HIGH load(1, XDATA, add(CFA_XSP16, literal(-3)))
        CFI ?RET_LOW load(1, XDATA, add(CFA_XSP16, literal(-4)))
        CFI R7 load(1, XDATA, add(CFA_XSP16, literal(-5)))
        CFI V7 load(1, XDATA, add(CFA_XSP16, literal(-6)))
        CFI V6 load(1, XDATA, add(CFA_XSP16, literal(-7)))
        CFI V5 load(1, XDATA, add(CFA_XSP16, literal(-8)))
        CFI V4 load(1, XDATA, add(CFA_XSP16, literal(-9)))
        CFI V3 load(1, XDATA, add(CFA_XSP16, literal(-10)))
        CFI V2 load(1, XDATA, add(CFA_XSP16, literal(-11)))
        CFI V1 load(1, XDATA, add(CFA_XSP16, literal(-12)))
        CFI V0 load(1, XDATA, add(CFA_XSP16, literal(-13)))
        CFI VB load(1, XDATA, add(CFA_XSP16, literal(-14)))
        CFI R6 load(1, XDATA, add(CFA_XSP16, literal(-15)))
        CFI CFA_SP SP+0
        CFI CFA_XSP16 add(XSP16, 15)
        ; Saved register size: 15
        ; Auto size: 0
//  596 float t  = ((float)adcs[ idx ]) * page.vrefPolynom[0] * invRef; // invRef = 1.0 / (float)adcs[ REF ];
//  597     return lin_coeff_t( t ); //( coeff[1] - t ) * coeff[0];  
        ; Setup parameters for call to function lin_coeff_t
        MOV     ?V0 + 0,R1
        MOV     ?V0 + 1,#0x0
        MOV     A,#0x2
        MOV     R0,#?V0 + 0
        LCALL   ?S_SHL
        MOV     A,?V0 + 0
        ADD     A,#(adcs & 0xff)
        MOV     DPL,A
        MOV     A,?V0 + 1
        ADDC    A,#((adcs >> 8) & 0xff)
        MOV     DPH,A
        MOV     R0,#?V0 + 0
        LCALL   ?L_MOV_X
        MOV     R0,#?V0 + 0
        LCALL   ?L_TO_FLT
        MOV     DPTR,#(page + 28)
        MOV     R0,#?V0 + 4
        LCALL   ?L_MOV_X
        MOV     R0,#?V0 + 0
        MOV     R1,#?V0 + 4
        LCALL   ?FLT_MUL
        MOV     DPTR,#invRef
        MOV     R0,#?V0 + 4
        LCALL   ?L_MOV_X
        MOV     R0,#?V0 + 0
        MOV     R1,#?V0 + 4
        LCALL   ?FLT_MUL
        MOV     R2,?V0 + 0
        MOV     R3,?V0 + 1
        MOV     R4,?V0 + 2
        MOV     R5,?V0 + 3
        LCALL   lin_coeff_t
        SJMP    ??Subroutine121_1
        CFI EndBlock cfiBlock41
//  598 }

        RSEG NEAR_CODE:CODE:NOROOT(0)
//  599 float cube_coeff( float *t ){ 
cube_coeff:
        CFI Block cfiBlock42 Using cfiCommon0
        CFI Function cube_coeff
        MOV     A,#-0xf
        LCALL   ?FUNC_ENTER_XDATA
        CFI DPH0 load(1, XDATA, add(CFA_XSP16, literal(-1)))
        CFI DPL0 load(1, XDATA, add(CFA_XSP16, literal(-2)))
        CFI ?RET_HIGH load(1, XDATA, add(CFA_XSP16, literal(-3)))
        CFI ?RET_LOW load(1, XDATA, add(CFA_XSP16, literal(-4)))
        CFI R7 load(1, XDATA, add(CFA_XSP16, literal(-5)))
        CFI V7 load(1, XDATA, add(CFA_XSP16, literal(-6)))
        CFI V6 load(1, XDATA, add(CFA_XSP16, literal(-7)))
        CFI V5 load(1, XDATA, add(CFA_XSP16, literal(-8)))
        CFI V4 load(1, XDATA, add(CFA_XSP16, literal(-9)))
        CFI V3 load(1, XDATA, add(CFA_XSP16, literal(-10)))
        CFI V2 load(1, XDATA, add(CFA_XSP16, literal(-11)))
        CFI V1 load(1, XDATA, add(CFA_XSP16, literal(-12)))
        CFI V0 load(1, XDATA, add(CFA_XSP16, literal(-13)))
        CFI VB load(1, XDATA, add(CFA_XSP16, literal(-14)))
        CFI R6 load(1, XDATA, add(CFA_XSP16, literal(-15)))
        CFI CFA_SP SP+0
        CFI CFA_XSP16 add(XSP16, 15)
        ; Saved register size: 15
        ; Auto size: 0
//  600 //  return ( ( ( _coeff[0]*t + _coeff[1] )*t + _coeff[2] )*t + _coeff[3] ); 
//  601 float acc = _coeff[0]; 
        MOV     DPTR,#_coeff
        LCALL   ??Subroutine47_1
??CrossCallReturnLabel_119:
        MOV     R0,#?V0 + 0
        LCALL   ?L_MOV_X
//  602 BYTE i;
//  603     for( i = 1; i < 4; i++ ) acc = acc*(*t) + _coeff[i];
        MOV     R5,#0x1
??cube_coeff_0:
        MOV     DPL,R2
        MOV     DPH,R3
        MOV     R0,#?V0 + 4
        LCALL   ?L_MOV_X
        MOV     R0,#?V0 + 0
        MOV     R1,#?V0 + 4
        LCALL   ?FLT_MUL
        MOV     ?V0 + 4,R5
        MOV     ?V0 + 5,#0x0
        MOV     A,#0x2
        MOV     R0,#?V0 + 4
        LCALL   ?S_SHL
        MOV     DPTR,#_coeff
        MOVX    A,@DPTR
        ADD     A,?V0 + 4
        MOV     R4,A
        INC     DPTR
        MOVX    A,@DPTR
        ADDC    A,?V0 + 5
        MOV     DPL,R4
        MOV     DPH,A
        MOV     R0,#?V0 + 4
        LCALL   ?L_MOV_X
        MOV     R0,#?V0 + 0
        MOV     R1,#?V0 + 4
        LCALL   ?FLT_ADD
        INC     R5
        MOV     A,R5
        CLR     C
        SUBB    A,#0x4
        JC      ??cube_coeff_0
        CFI EndBlock cfiBlock42
//  604     return acc;
        REQUIRE ?Subroutine124
        ; // Fall through to label ?Subroutine124
//  605 }

        RSEG NEAR_CODE:CODE:NOROOT(0)
?Subroutine124:
        CFI Block cfiBlock43 Using cfiCommon0
        CFI NoFunction
        CFI CFA_SP SP+0
        CFI CFA_XSP16 add(XSP16, 15)
        CFI VB load(1, XDATA, add(CFA_XSP16, literal(-14)))
        CFI DPL0 load(1, XDATA, add(CFA_XSP16, literal(-2)))
        CFI DPH0 load(1, XDATA, add(CFA_XSP16, literal(-1)))
        CFI R6 load(1, XDATA, add(CFA_XSP16, literal(-15)))
        CFI R7 load(1, XDATA, add(CFA_XSP16, literal(-5)))
        CFI V0 load(1, XDATA, add(CFA_XSP16, literal(-13)))
        CFI V1 load(1, XDATA, add(CFA_XSP16, literal(-12)))
        CFI V2 load(1, XDATA, add(CFA_XSP16, literal(-11)))
        CFI V3 load(1, XDATA, add(CFA_XSP16, literal(-10)))
        CFI V4 load(1, XDATA, add(CFA_XSP16, literal(-9)))
        CFI V5 load(1, XDATA, add(CFA_XSP16, literal(-8)))
        CFI V6 load(1, XDATA, add(CFA_XSP16, literal(-7)))
        CFI V7 load(1, XDATA, add(CFA_XSP16, literal(-6)))
        CFI ?RET_HIGH load(1, XDATA, add(CFA_XSP16, literal(-3)))
        CFI ?RET_LOW load(1, XDATA, add(CFA_XSP16, literal(-4)))
        MOV     R2,?V0 + 0
        MOV     R3,?V0 + 1
        MOV     R4,?V0 + 2
        MOV     R5,?V0 + 3
        SJMP    ??Subroutine121_1
        CFI EndBlock cfiBlock43

        RSEG NEAR_CODE:CODE:NOROOT(0)
?Subroutine121:
        CFI Block cfiBlock44 Using cfiCommon0
        CFI NoFunction
        CFI CFA_SP SP+0
        CFI CFA_XSP16 add(XSP16, 15)
        CFI VB load(1, XDATA, add(CFA_XSP16, literal(-14)))
        CFI DPL0 load(1, XDATA, add(CFA_XSP16, literal(-2)))
        CFI DPH0 load(1, XDATA, add(CFA_XSP16, literal(-1)))
        CFI R6 load(1, XDATA, add(CFA_XSP16, literal(-15)))
        CFI R7 load(1, XDATA, add(CFA_XSP16, literal(-5)))
        CFI V0 load(1, XDATA, add(CFA_XSP16, literal(-13)))
        CFI V1 load(1, XDATA, add(CFA_XSP16, literal(-12)))
        CFI V2 load(1, XDATA, add(CFA_XSP16, literal(-11)))
        CFI V3 load(1, XDATA, add(CFA_XSP16, literal(-10)))
        CFI V4 load(1, XDATA, add(CFA_XSP16, literal(-9)))
        CFI V5 load(1, XDATA, add(CFA_XSP16, literal(-8)))
        CFI V6 load(1, XDATA, add(CFA_XSP16, literal(-7)))
        CFI V7 load(1, XDATA, add(CFA_XSP16, literal(-6)))
        CFI ?RET_HIGH load(1, XDATA, add(CFA_XSP16, literal(-3)))
        CFI ?RET_LOW load(1, XDATA, add(CFA_XSP16, literal(-4)))
        MOV     R0,#?V0 + 4
        MOV     R1,#?V0 + 0
        LCALL   ?FLT_MUL
??Subroutine121_0:
        MOV     R2,?V0 + 4
        MOV     R3,?V0 + 5
        MOV     R4,?V0 + 6
        MOV     R5,?V0 + 7
??Subroutine121_1:
        MOV     R7,#0x8
        LJMP    ?FUNC_LEAVE_XDATA
        CFI EndBlock cfiBlock44

        RSEG XDATA_Z:XDATA:NOROOT(0)
//  606 float checkVref;
checkVref:
        DS 4
        REQUIRE __INIT_XDATA_Z

        RSEG NEAR_CODE:CODE:NOROOT(0)
//  607 float processCheck( INT16 val ){ return lin_coeff( ((float)val) * checkVref );  }
processCheck:
        CFI Block cfiBlock45 Using cfiCommon0
        CFI Function processCheck
        FUNCALL processCheck, lin_coeff
        LOCFRAME ISTACK, 0, STACK
        LOCFRAME PSTACK, 0, STACK
        LOCFRAME XSTACK, 15, STACK
        LOCFRAME IOVERLAY, 0, STATIC
        LOCFRAME DOVERLAY, 0, STATIC
        ARGFRAME ISTACK, 0, STACK
        ARGFRAME PSTACK, 0, STACK
        ARGFRAME XSTACK, 15, STACK
        ARGFRAME IOVERLAY, 0, STATIC
        ARGFRAME DOVERLAY, 0, STATIC
        MOV     A,#-0xf
        LCALL   ?FUNC_ENTER_XDATA
        CFI DPH0 load(1, XDATA, add(CFA_XSP16, literal(-1)))
        CFI DPL0 load(1, XDATA, add(CFA_XSP16, literal(-2)))
        CFI ?RET_HIGH load(1, XDATA, add(CFA_XSP16, literal(-3)))
        CFI ?RET_LOW load(1, XDATA, add(CFA_XSP16, literal(-4)))
        CFI R7 load(1, XDATA, add(CFA_XSP16, literal(-5)))
        CFI V7 load(1, XDATA, add(CFA_XSP16, literal(-6)))
        CFI V6 load(1, XDATA, add(CFA_XSP16, literal(-7)))
        CFI V5 load(1, XDATA, add(CFA_XSP16, literal(-8)))
        CFI V4 load(1, XDATA, add(CFA_XSP16, literal(-9)))
        CFI V3 load(1, XDATA, add(CFA_XSP16, literal(-10)))
        CFI V2 load(1, XDATA, add(CFA_XSP16, literal(-11)))
        CFI V1 load(1, XDATA, add(CFA_XSP16, literal(-12)))
        CFI V0 load(1, XDATA, add(CFA_XSP16, literal(-13)))
        CFI VB load(1, XDATA, add(CFA_XSP16, literal(-14)))
        CFI R6 load(1, XDATA, add(CFA_XSP16, literal(-15)))
        CFI CFA_SP SP+0
        CFI CFA_XSP16 add(XSP16, 15)
        ; Saved register size: 15
        ; Auto size: 0
        ; Setup parameters for call to function lin_coeff
        MOV     ?V0 + 0,R2
        MOV     A,R3
        MOV     ?V0 + 1,A
        LCALL   ?Subroutine83
??CrossCallReturnLabel_270:
        LCALL   ?L_TO_FLT
        MOV     DPTR,#checkVref
        MOV     R0,#?V0 + 4
        LCALL   ?L_MOV_X
        MOV     R0,#?V0 + 0
        MOV     R1,#?V0 + 4
        LCALL   ?FLT_MUL
        MOV     R2,?V0 + 0
        MOV     R3,?V0 + 1
        MOV     R4,?V0 + 2
        MOV     R5,?V0 + 3
        LCALL   lin_coeff
        SJMP    ??Subroutine121_1
        CFI EndBlock cfiBlock45

        RSEG NEAR_CODE:CODE:NOROOT(0)
?Subroutine83:
        CFI Block cfiCond46 Using cfiCommon0
        CFI NoFunction
        CFI Conditional ??CrossCallReturnLabel_269
        CFI R6 load(1, XDATA, add(CFA_XSP16, literal(-15)))
        CFI VB load(1, XDATA, add(CFA_XSP16, literal(-14)))
        CFI V0 load(1, XDATA, add(CFA_XSP16, literal(-13)))
        CFI V1 load(1, XDATA, add(CFA_XSP16, literal(-12)))
        CFI V2 load(1, XDATA, add(CFA_XSP16, literal(-11)))
        CFI V3 load(1, XDATA, add(CFA_XSP16, literal(-10)))
        CFI V4 load(1, XDATA, add(CFA_XSP16, literal(-9)))
        CFI V5 load(1, XDATA, add(CFA_XSP16, literal(-8)))
        CFI V6 load(1, XDATA, add(CFA_XSP16, literal(-7)))
        CFI V7 load(1, XDATA, add(CFA_XSP16, literal(-6)))
        CFI R7 load(1, XDATA, add(CFA_XSP16, literal(-5)))
        CFI ?RET_LOW load(1, XDATA, add(CFA_XSP16, literal(-4)))
        CFI ?RET_HIGH load(1, XDATA, add(CFA_XSP16, literal(-3)))
        CFI DPL0 load(1, XDATA, add(CFA_XSP16, literal(-2)))
        CFI DPH0 load(1, XDATA, add(CFA_XSP16, literal(-1)))
        CFI CFA_SP SP+0
        CFI CFA_XSP16 add(XSP16, 15)
        CFI Block cfiCond47 Using cfiCommon0
        CFI (cfiCond47) NoFunction
        CFI (cfiCond47) Conditional ??CrossCallReturnLabel_270
        CFI (cfiCond47) R6 load(1, XDATA, add(CFA_XSP16, literal(-15)))
        CFI (cfiCond47) VB load(1, XDATA, add(CFA_XSP16, literal(-14)))
        CFI (cfiCond47) V0 load(1, XDATA, add(CFA_XSP16, literal(-13)))
        CFI (cfiCond47) V1 load(1, XDATA, add(CFA_XSP16, literal(-12)))
        CFI (cfiCond47) V2 load(1, XDATA, add(CFA_XSP16, literal(-11)))
        CFI (cfiCond47) V3 load(1, XDATA, add(CFA_XSP16, literal(-10)))
        CFI (cfiCond47) V4 load(1, XDATA, add(CFA_XSP16, literal(-9)))
        CFI (cfiCond47) V5 load(1, XDATA, add(CFA_XSP16, literal(-8)))
        CFI (cfiCond47) V6 load(1, XDATA, add(CFA_XSP16, literal(-7)))
        CFI (cfiCond47) V7 load(1, XDATA, add(CFA_XSP16, literal(-6)))
        CFI (cfiCond47) R7 load(1, XDATA, add(CFA_XSP16, literal(-5)))
        CFI (cfiCond47) ?RET_LOW load(1, XDATA, add(CFA_XSP16, literal(-4)))
        CFI (cfiCond47) ?RET_HIGH load(1, XDATA, add(CFA_XSP16, literal(-3)))
        CFI (cfiCond47) DPL0 load(1, XDATA, add(CFA_XSP16, literal(-2)))
        CFI (cfiCond47) DPH0 load(1, XDATA, add(CFA_XSP16, literal(-1)))
        CFI (cfiCond47) CFA_SP SP+0
        CFI (cfiCond47) CFA_XSP16 add(XSP16, 15)
        CFI Block cfiPicker48 Using cfiCommon1
        CFI (cfiPicker48) NoFunction
        CFI (cfiPicker48) Picker
        RLC     A
        SUBB    A,0xE0 /* A   */
        MOV     ?V0 + 2,A
        MOV     ?V0 + 3,A
        MOV     R0,#?V0 + 0
        RET
        CFI EndBlock cfiCond46
        CFI EndBlock cfiCond47
        CFI EndBlock cfiPicker48
//  608 /******************************************************************************/

        RSEG XDATA_Z:XDATA:NOROOT(0)
//  609 UINT16  last[ N_CHANNELS ]; //Vout, lastPin, lastIout, lastGnd, lastRef, lastVin, lastTex, lastTin;
last:
        DS 18
        REQUIRE __INIT_XDATA_Z

        RSEG XDATA_Z:XDATA:NOROOT(0)
//  610 UINT16  checkVoutOnT  = 0, checkPD = 0;
checkVoutOnT:
        DS 2
        REQUIRE __INIT_XDATA_Z

        RSEG XDATA_Z:XDATA:NOROOT(0)
checkPD:
        DS 2
        REQUIRE __INIT_XDATA_Z
//  611 

        RSEG NEAR_CODE:CODE:NOROOT(0)
//  612 void read_page(void){
read_page:
        CFI Block cfiBlock49 Using cfiCommon0
        CFI Function read_page
        FUNCALL read_page, mymemcpy
        LOCFRAME ISTACK, 2, STACK
        LOCFRAME PSTACK, 0, STACK
        LOCFRAME XSTACK, 0, STACK
        LOCFRAME IOVERLAY, 0, STATIC
        LOCFRAME DOVERLAY, 0, STATIC
        ARGFRAME ISTACK, 2, STACK
        ARGFRAME PSTACK, 0, STACK
        ARGFRAME XSTACK, 0, STACK
        ARGFRAME IOVERLAY, 0, STATIC
        ARGFRAME DOVERLAY, 0, STATIC
        FUNCALL read_page, mymemcpy
        LOCFRAME ISTACK, 2, STACK
        LOCFRAME PSTACK, 0, STACK
        LOCFRAME XSTACK, 0, STACK
        LOCFRAME IOVERLAY, 0, STATIC
        LOCFRAME DOVERLAY, 0, STATIC
        ARGFRAME ISTACK, 2, STACK
        ARGFRAME PSTACK, 0, STACK
        ARGFRAME XSTACK, 0, STACK
        ARGFRAME IOVERLAY, 0, STATIC
        ARGFRAME DOVERLAY, 0, STATIC
        FUNCALL read_page, switchTo255
        LOCFRAME ISTACK, 2, STACK
        LOCFRAME PSTACK, 0, STACK
        LOCFRAME XSTACK, 0, STACK
        LOCFRAME IOVERLAY, 0, STATIC
        LOCFRAME DOVERLAY, 0, STATIC
        ARGFRAME ISTACK, 2, STACK
        ARGFRAME PSTACK, 0, STACK
        ARGFRAME XSTACK, 0, STACK
        ARGFRAME IOVERLAY, 0, STATIC
        ARGFRAME DOVERLAY, 0, STATIC
        PUSH    DPL
        CFI DPL0 Frame(CFA_SP, 3)
        CFI CFA_SP SP+-3
        PUSH    DPH
        CFI DPH0 Frame(CFA_SP, 4)
        CFI CFA_SP SP+-4
        ; Saved register size: 2
        ; Auto size: 0
//  613     mymemcpy( (BYTE *)&page, (BYTE *)PAGEADDR, PAGESIZE ); //+4 ); 
        ; Setup parameters for call to function mymemcpy
        MOV     R1,#-0xe
        MOV     R4,#0x0
        MOV     R5,#0x5c
        MOV     R2,#(page & 0xff)
        MOV     R3,#((page >> 8) & 0xff)
        LCALL   mymemcpy
//  614     //if( page.barrier == 0xAAAA ){
//  615     if( page.barrier == 0xAAAA  && page.post_barrier == 0x5555 ){
        MOV     DPTR,#page
        MOVX    A,@DPTR
        XRL     A,#0xaa
        JNZ     ??read_page_0
        INC     DPTR
        MOVX    A,@DPTR
        XRL     A,#0xaa
??read_page_0:
        JNZ     ??read_page_1
        MOV     DPTR,#(page + 240)
        MOVX    A,@DPTR
        XRL     A,#0x55
        JNZ     ??read_page_2
        INC     DPTR
        MOVX    A,@DPTR
        XRL     A,#0x55
??read_page_2:
        JZ      ??read_page_3
//  616         /* page F compatibility - not needed anymore
//  617         zerofill( (BYTE *)&page.syncword, 8 );
//  618         page.syncword = 0xF0F0; 
//  619         page.vin_disable_radio = 6;
//  620         page.vin_limit         = 0; 
//  621         page.vin_turn_on       = 120;
//  622         page.vin_switch_off    = 100;
//  623         */
//  624         //BYTE *ptr = nextSlot();
//  625         //if( ptr && ptr > (BYTE *)(PAGEADDR+PAGESIZE+4) ){ ptr -= 4;  mymemcpy( (BYTE *)&energy, ptr, 4 );  }
//  626         //zerofill( (BYTE *)&deltaEnergy, 4 );
//  627     }else{
//  628         //page.barrier = 0xAAAA; page.post_barrier = 0x5555;
//  629         mymemcpy((BYTE *)&page, (BYTE *)default_pb, PAGESIZE );
??read_page_1:
        ; Setup parameters for call to function mymemcpy
        MOV     R1,#-0xe
        MOV     R4,#(default_pb & 0xff)
        MOV     R5,#((default_pb >> 8) & 0xff)
        MOV     R2,#(page & 0xff)
        MOV     R3,#((page >> 8) & 0xff)
        LCALL   mymemcpy
//  630         // partial PB restoration goes here
//  631         //void (*f)( void ) = ( void (*)( void ) )0x603F;  (*f)();  // to 8k image
//  632         switchTo255(); ch255 = FALSE;
        ; Setup parameters for call to function switchTo255
        LCALL   ?Subroutine84
//  633         page.ov         = *((BYTE *)0x3DC);
??CrossCallReturnLabel_271:
        MOV     DPTR,#0x3dc
        MOVX    A,@DPTR
        MOV     DPTR,#(page + 187)
        MOVX    @DPTR,A
//  634         page.oc         = *((BYTE *)0x3DD);
        MOV     DPTR,#0x3dd
        MOVX    A,@DPTR
        MOV     DPTR,#(page + 188)
        MOVX    @DPTR,A
//  635         //page.ov_startup = 100;//*((BYTE *)0x3DE);
//  636         //page.myBunch = 0;   page.netId  = 0;
//  637          /*
//  638         page.channel = 255; page.pureOffset = -130;
//  639         page.edAddr    = 2; page.gwAddr     = 1; 
//  640         page.vin_limit = 0; 
//  641         mymemcpy( (BYTE *)page.curKey, (BYTE *)theKey, 32 );
//  642         //page.myBunch = 0;   page.netId  = 0;
//  643         mymemcpy( (BYTE *)&page, (BYTE *)0x3D4, 12 );    // netid, bunch, mac
//  644         //zerofill( (BYTE *)&energy, 8 );
//  645         */
//  646     }
//  647     
//  648     page.versionHigh = FWVersionHigh;
??read_page_3:
        MOV     DPTR,#(page + 216)
        MOV     A,#0x58
        MOVX    @DPTR,A
        INC     DPTR
        MOV     A,#0x1b
        MOVX    @DPTR,A
//  649     page.versionLow = FWVersionLow;
        MOV     DPTR,#(page + 214)
        MOV     A,#0xb
        LCALL   ?Subroutine119
//  650     page.versionSuffix[0] = FWSuffixOne;
??CrossCallReturnLabel_402:
        MOV     A,#0x31
        MOV     DPTR,#(page + 144)
        MOVX    @DPTR,A
//  651     page.versionSuffix[1] = FWSuffixTwo;
        MOV     A,#0x42
        MOV     DPTR,#(page + 145)
        MOVX    @DPTR,A
//  652     page.versionSuffix[2] = FWSuffixThree;    
        MOV     DPTR,#(page + 146)
        MOVX    @DPTR,A
//  653     ch255 = FALSE;
        CLR     A
        MOV     DPTR,#ch255
        SJMP    ?Subroutine115
        CFI EndBlock cfiBlock49
//  654 }
//  655 //float polynomial[] = { 0, 0, 0, -200 }; // -0.000693, 0.0556, 0.613, -220.0};

        RSEG NEAR_CODE:CODE:NOROOT(0)
//  656 void switchTo255(){
switchTo255:
        CFI Block cfiBlock50 Using cfiCommon0
        CFI Function switchTo255
        FUNCALL switchTo255, mymemcpy
        LOCFRAME ISTACK, 2, STACK
        LOCFRAME PSTACK, 0, STACK
        LOCFRAME XSTACK, 0, STACK
        LOCFRAME IOVERLAY, 0, STATIC
        LOCFRAME DOVERLAY, 0, STATIC
        ARGFRAME ISTACK, 2, STACK
        ARGFRAME PSTACK, 0, STACK
        ARGFRAME XSTACK, 0, STACK
        ARGFRAME IOVERLAY, 0, STATIC
        ARGFRAME DOVERLAY, 0, STATIC
        FUNCALL switchTo255, mymemcpy
        LOCFRAME ISTACK, 2, STACK
        LOCFRAME PSTACK, 0, STACK
        LOCFRAME XSTACK, 0, STACK
        LOCFRAME IOVERLAY, 0, STATIC
        LOCFRAME DOVERLAY, 0, STATIC
        ARGFRAME ISTACK, 2, STACK
        ARGFRAME PSTACK, 0, STACK
        ARGFRAME XSTACK, 0, STACK
        ARGFRAME IOVERLAY, 0, STATIC
        ARGFRAME DOVERLAY, 0, STATIC
        FUNCALL switchTo255, softKick
        LOCFRAME ISTACK, 2, STACK
        LOCFRAME PSTACK, 0, STACK
        LOCFRAME XSTACK, 0, STACK
        LOCFRAME IOVERLAY, 0, STATIC
        LOCFRAME DOVERLAY, 0, STATIC
        ARGFRAME ISTACK, 2, STACK
        ARGFRAME PSTACK, 0, STACK
        ARGFRAME XSTACK, 0, STACK
        ARGFRAME IOVERLAY, 0, STATIC
        ARGFRAME DOVERLAY, 0, STATIC
        PUSH    DPL
        CFI DPL0 Frame(CFA_SP, 3)
        CFI CFA_SP SP+-3
        PUSH    DPH
        CFI DPH0 Frame(CFA_SP, 4)
        CFI CFA_SP SP+-4
        ; Saved register size: 2
        ; Auto size: 0
//  657     curChannel = page.channel = 255;   
        MOV     A,#-0x1
        MOV     DPTR,#(page + 164)
        MOVX    @DPTR,A
        MOV     DPTR,#curChannel
        LCALL   ?Subroutine78
//  658     page.use12kbod  = TRUE;   page.hoppingAllowed = FALSE;
??CrossCallReturnLabel_251:
        CLR     0xE0 /* A   */.4
        MOVX    @DPTR,A
        SETB    0xE0 /* A   */.2
        MOVX    @DPTR,A
//  659     page.useFEC     = FALSE;  page.is500Always = FALSE; 
        MOV     DPTR,#(page + 219)
        MOVX    A,@DPTR
        CLR     0xE0 /* A   */.4
        LCALL   ?Subroutine78
//  660     page.isRelay    = FALSE;  page.searchCommunication = FALSE;
??CrossCallReturnLabel_252:
        ANL     A,#0x1f
        MOVX    @DPTR,A
//  661     page.vin_disable_radio = 0;
        CLR     A
        MOV     DPTR,#(page + 156)
        MOVX    @DPTR,A
//  662     //page.production = 0;
//  663     //page.fuseComm   = 0;    page.fuseOVOC = 0;
//  664     mymemcpy( (BYTE *)page.curKey, (BYTE *)theKey, 32 ); 
        ; Setup parameters for call to function mymemcpy
        MOV     R1,#0x20
        MOV     R4,#(theKey & 0xff)
        MOV     R5,#((theKey >> 8) & 0xff)
        MOV     R2,#((page + 96) & 0xff)
        MOV     R3,#(((page + 96) >> 8) & 0xff)
        LCALL   mymemcpy
//  665     //mymemcpy( (BYTE *)page.dFk,    (BYTE *)polynomial, 16 );
//  666     page.syncword = 0xF0F0; page.edAddr = 2; page.gwAddr = 1;
        MOV     DPTR,#(page + 154)
        MOV     A,#-0x10
        LCALL   ?Subroutine68
//  667     mymemcpy( (BYTE *)&page, (BYTE *)0x3D0, 12 );    // barrier, netid (0), bunch (0), group, mac, 
??CrossCallReturnLabel_223:
        ; Setup parameters for call to function mymemcpy
        MOV     R1,#0xc
        MOV     R4,#-0x30
        MOV     R5,#0x3
        MOV     R2,#(page & 0xff)
        MOV     R3,#((page >> 8) & 0xff)
        LCALL   mymemcpy
//  668     ch255 = TRUE;   softKick();
        MOV     A,#0x1
        MOV     DPTR,#ch255
        MOVX    @DPTR,A
        ; Setup parameters for call to function softKick
        LCALL   softKick
//  669     //page.myBunch    =  0;     page.netId = 0;  
//  670 }
        SJMP    ??Subroutine115_0
        CFI EndBlock cfiBlock50

        RSEG NEAR_CODE:CODE:NOROOT(0)
?Subroutine115:
        CFI Block cfiBlock51 Using cfiCommon0
        CFI NoFunction
        CFI CFA_SP SP+-4
        CFI DPL0 Frame(CFA_SP, 3)
        CFI DPH0 Frame(CFA_SP, 4)
        MOVX    @DPTR,A
??Subroutine115_0:
        POP     DPH
        CFI CFA_SP SP+-3
        CFI DPH0 SameValue
        POP     DPL
        CFI CFA_SP SP+-2
        CFI DPL0 SameValue
        RET
        CFI EndBlock cfiBlock51
//  671 
//  672 
//  673 
//  674 #ifdef MidString

        RSEG XDATA_Z:XDATA:NOROOT(0)
//  675 INT16 iOutIin1Diff; // Used in compute ADCs for FET failure
iOutIin1Diff:
        DS 2
        REQUIRE __INIT_XDATA_Z

        RSEG XDATA_Z:XDATA:NOROOT(0)
//  676 INT16 iOutIin2Diff; // Global to save time with computeADCs
iOutIin2Diff:
        DS 2
        REQUIRE __INIT_XDATA_Z
//  677 #endif
//  678 

        RSEG NEAR_CODE:CODE:NOROOT(0)
//  679 void checkVin(void)
checkVin:
        CFI Block cfiBlock52 Using cfiCommon0
        CFI Function checkVin
//  680 {
        FUNCALL checkVin, ov_startup
        LOCFRAME ISTACK, 0, STACK
        LOCFRAME PSTACK, 0, STACK
        LOCFRAME XSTACK, 15, STACK
        LOCFRAME IOVERLAY, 0, STATIC
        LOCFRAME DOVERLAY, 0, STATIC
        ARGFRAME ISTACK, 0, STACK
        ARGFRAME PSTACK, 0, STACK
        ARGFRAME XSTACK, 15, STACK
        ARGFRAME IOVERLAY, 0, STATIC
        ARGFRAME DOVERLAY, 0, STATIC
        FUNCALL checkVin, ov_startup
        LOCFRAME ISTACK, 0, STACK
        LOCFRAME PSTACK, 0, STACK
        LOCFRAME XSTACK, 15, STACK
        LOCFRAME IOVERLAY, 0, STATIC
        LOCFRAME DOVERLAY, 0, STATIC
        ARGFRAME ISTACK, 0, STACK
        ARGFRAME PSTACK, 0, STACK
        ARGFRAME XSTACK, 15, STACK
        ARGFRAME IOVERLAY, 0, STATIC
        ARGFRAME DOVERLAY, 0, STATIC
        FUNCALL checkVin, lin_coeff
        LOCFRAME ISTACK, 0, STACK
        LOCFRAME PSTACK, 0, STACK
        LOCFRAME XSTACK, 15, STACK
        LOCFRAME IOVERLAY, 0, STATIC
        LOCFRAME DOVERLAY, 0, STATIC
        ARGFRAME ISTACK, 0, STACK
        ARGFRAME PSTACK, 0, STACK
        ARGFRAME XSTACK, 15, STACK
        ARGFRAME IOVERLAY, 0, STATIC
        ARGFRAME DOVERLAY, 0, STATIC
        FUNCALL checkVin, convU
        LOCFRAME ISTACK, 0, STACK
        LOCFRAME PSTACK, 0, STACK
        LOCFRAME XSTACK, 15, STACK
        LOCFRAME IOVERLAY, 0, STATIC
        LOCFRAME DOVERLAY, 0, STATIC
        ARGFRAME ISTACK, 0, STACK
        ARGFRAME PSTACK, 0, STACK
        ARGFRAME XSTACK, 15, STACK
        ARGFRAME IOVERLAY, 0, STATIC
        ARGFRAME DOVERLAY, 0, STATIC
        FUNCALL checkVin, switchTo255
        LOCFRAME ISTACK, 0, STACK
        LOCFRAME PSTACK, 0, STACK
        LOCFRAME XSTACK, 15, STACK
        LOCFRAME IOVERLAY, 0, STATIC
        LOCFRAME DOVERLAY, 0, STATIC
        ARGFRAME ISTACK, 0, STACK
        ARGFRAME PSTACK, 0, STACK
        ARGFRAME XSTACK, 15, STACK
        ARGFRAME IOVERLAY, 0, STATIC
        ARGFRAME DOVERLAY, 0, STATIC
        FUNCALL checkVin, switchTo255
        LOCFRAME ISTACK, 0, STACK
        LOCFRAME PSTACK, 0, STACK
        LOCFRAME XSTACK, 15, STACK
        LOCFRAME IOVERLAY, 0, STATIC
        LOCFRAME DOVERLAY, 0, STATIC
        ARGFRAME ISTACK, 0, STACK
        ARGFRAME PSTACK, 0, STACK
        ARGFRAME XSTACK, 15, STACK
        ARGFRAME IOVERLAY, 0, STATIC
        ARGFRAME DOVERLAY, 0, STATIC
        FUNCALL checkVin, read_page
        LOCFRAME ISTACK, 0, STACK
        LOCFRAME PSTACK, 0, STACK
        LOCFRAME XSTACK, 15, STACK
        LOCFRAME IOVERLAY, 0, STATIC
        LOCFRAME DOVERLAY, 0, STATIC
        ARGFRAME ISTACK, 0, STACK
        ARGFRAME PSTACK, 0, STACK
        ARGFRAME XSTACK, 15, STACK
        ARGFRAME IOVERLAY, 0, STATIC
        ARGFRAME DOVERLAY, 0, STATIC
        FUNCALL checkVin, softKick
        LOCFRAME ISTACK, 0, STACK
        LOCFRAME PSTACK, 0, STACK
        LOCFRAME XSTACK, 15, STACK
        LOCFRAME IOVERLAY, 0, STATIC
        LOCFRAME DOVERLAY, 0, STATIC
        ARGFRAME ISTACK, 0, STACK
        ARGFRAME PSTACK, 0, STACK
        ARGFRAME XSTACK, 15, STACK
        ARGFRAME IOVERLAY, 0, STATIC
        ARGFRAME DOVERLAY, 0, STATIC
        FUNCALL checkVin, lin_coeff_t
        LOCFRAME ISTACK, 0, STACK
        LOCFRAME PSTACK, 0, STACK
        LOCFRAME XSTACK, 15, STACK
        LOCFRAME IOVERLAY, 0, STATIC
        LOCFRAME DOVERLAY, 0, STATIC
        ARGFRAME ISTACK, 0, STACK
        ARGFRAME PSTACK, 0, STACK
        ARGFRAME XSTACK, 15, STACK
        ARGFRAME IOVERLAY, 0, STATIC
        ARGFRAME DOVERLAY, 0, STATIC
        FUNCALL checkVin, ov_startup
        LOCFRAME ISTACK, 0, STACK
        LOCFRAME PSTACK, 0, STACK
        LOCFRAME XSTACK, 15, STACK
        LOCFRAME IOVERLAY, 0, STATIC
        LOCFRAME DOVERLAY, 0, STATIC
        ARGFRAME ISTACK, 0, STACK
        ARGFRAME PSTACK, 0, STACK
        ARGFRAME XSTACK, 15, STACK
        ARGFRAME IOVERLAY, 0, STATIC
        ARGFRAME DOVERLAY, 0, STATIC
        FUNCALL checkVin, oc2timer
        LOCFRAME ISTACK, 0, STACK
        LOCFRAME PSTACK, 0, STACK
        LOCFRAME XSTACK, 15, STACK
        LOCFRAME IOVERLAY, 0, STATIC
        LOCFRAME DOVERLAY, 0, STATIC
        ARGFRAME ISTACK, 0, STACK
        ARGFRAME PSTACK, 0, STACK
        ARGFRAME XSTACK, 15, STACK
        ARGFRAME IOVERLAY, 0, STATIC
        ARGFRAME DOVERLAY, 0, STATIC
        FUNCALL checkVin, oc2timer
        LOCFRAME ISTACK, 0, STACK
        LOCFRAME PSTACK, 0, STACK
        LOCFRAME XSTACK, 15, STACK
        LOCFRAME IOVERLAY, 0, STATIC
        LOCFRAME DOVERLAY, 0, STATIC
        ARGFRAME ISTACK, 0, STACK
        ARGFRAME PSTACK, 0, STACK
        ARGFRAME XSTACK, 15, STACK
        ARGFRAME IOVERLAY, 0, STATIC
        ARGFRAME DOVERLAY, 0, STATIC
        FUNCALL checkVin, oc2timer
        LOCFRAME ISTACK, 0, STACK
        LOCFRAME PSTACK, 0, STACK
        LOCFRAME XSTACK, 15, STACK
        LOCFRAME IOVERLAY, 0, STATIC
        LOCFRAME DOVERLAY, 0, STATIC
        ARGFRAME ISTACK, 0, STACK
        ARGFRAME PSTACK, 0, STACK
        ARGFRAME XSTACK, 15, STACK
        ARGFRAME IOVERLAY, 0, STATIC
        ARGFRAME DOVERLAY, 0, STATIC
        FUNCALL checkVin, lin_coeff
        LOCFRAME ISTACK, 0, STACK
        LOCFRAME PSTACK, 0, STACK
        LOCFRAME XSTACK, 15, STACK
        LOCFRAME IOVERLAY, 0, STATIC
        LOCFRAME DOVERLAY, 0, STATIC
        ARGFRAME ISTACK, 0, STACK
        ARGFRAME PSTACK, 0, STACK
        ARGFRAME XSTACK, 15, STACK
        ARGFRAME IOVERLAY, 0, STATIC
        ARGFRAME DOVERLAY, 0, STATIC
        FUNCALL checkVin, convU
        LOCFRAME ISTACK, 0, STACK
        LOCFRAME PSTACK, 0, STACK
        LOCFRAME XSTACK, 15, STACK
        LOCFRAME IOVERLAY, 0, STATIC
        LOCFRAME DOVERLAY, 0, STATIC
        ARGFRAME ISTACK, 0, STACK
        ARGFRAME PSTACK, 0, STACK
        ARGFRAME XSTACK, 15, STACK
        ARGFRAME IOVERLAY, 0, STATIC
        ARGFRAME DOVERLAY, 0, STATIC
        FUNCALL checkVin, oc2timer
        LOCFRAME ISTACK, 0, STACK
        LOCFRAME PSTACK, 0, STACK
        LOCFRAME XSTACK, 15, STACK
        LOCFRAME IOVERLAY, 0, STATIC
        LOCFRAME DOVERLAY, 0, STATIC
        ARGFRAME ISTACK, 0, STACK
        ARGFRAME PSTACK, 0, STACK
        ARGFRAME XSTACK, 15, STACK
        ARGFRAME IOVERLAY, 0, STATIC
        ARGFRAME DOVERLAY, 0, STATIC
        FUNCALL checkVin, oc2timer
        LOCFRAME ISTACK, 0, STACK
        LOCFRAME PSTACK, 0, STACK
        LOCFRAME XSTACK, 15, STACK
        LOCFRAME IOVERLAY, 0, STATIC
        LOCFRAME DOVERLAY, 0, STATIC
        ARGFRAME ISTACK, 0, STACK
        ARGFRAME PSTACK, 0, STACK
        ARGFRAME XSTACK, 15, STACK
        ARGFRAME IOVERLAY, 0, STATIC
        ARGFRAME DOVERLAY, 0, STATIC
        MOV     A,#-0xf
        LCALL   ?FUNC_ENTER_XDATA
        CFI DPH0 load(1, XDATA, add(CFA_XSP16, literal(-1)))
        CFI DPL0 load(1, XDATA, add(CFA_XSP16, literal(-2)))
        CFI ?RET_HIGH load(1, XDATA, add(CFA_XSP16, literal(-3)))
        CFI ?RET_LOW load(1, XDATA, add(CFA_XSP16, literal(-4)))
        CFI R7 load(1, XDATA, add(CFA_XSP16, literal(-5)))
        CFI V7 load(1, XDATA, add(CFA_XSP16, literal(-6)))
        CFI V6 load(1, XDATA, add(CFA_XSP16, literal(-7)))
        CFI V5 load(1, XDATA, add(CFA_XSP16, literal(-8)))
        CFI V4 load(1, XDATA, add(CFA_XSP16, literal(-9)))
        CFI V3 load(1, XDATA, add(CFA_XSP16, literal(-10)))
        CFI V2 load(1, XDATA, add(CFA_XSP16, literal(-11)))
        CFI V1 load(1, XDATA, add(CFA_XSP16, literal(-12)))
        CFI V0 load(1, XDATA, add(CFA_XSP16, literal(-13)))
        CFI VB load(1, XDATA, add(CFA_XSP16, literal(-14)))
        CFI R6 load(1, XDATA, add(CFA_XSP16, literal(-15)))
        CFI CFA_SP SP+0
        CFI CFA_XSP16 add(XSP16, 15)
        ; Saved register size: 15
        ; Auto size: 0
//  681   INT16  t;
//  682   UINT16 safe_vin_16;
//  683 
//  684 #ifdef MidString
//  685   static UINT16 currentFETTickCount = 0;
//  686   
//  687   /* 12/29/2017 BEGIN adding 1500V Protection Variables */
//  688   static INT16 protectionModuleOffTimer = 0;
//  689   /* 12/29/2017 END adding 1500V Protection Variables */
//  690   
//  691   if (checkForFETFailure)
        MOV     DPTR,#checkForFETFailure
        MOVX    A,@DPTR
        JNZ     $+5
        LJMP    ??CrossCallReturnLabel_404
//  692   {
//  693     iOutIin1Diff = (INT16)adcs16[2] - (INT16)adcs16[6];
        LCALL   ?Subroutine60
??CrossCallReturnLabel_164:
        MOV     DPTR,#(adcs16 + 12)
        LCALL   ?Subroutine44
??CrossCallReturnLabel_103:
        MOV     DPTR,#iOutIin1Diff
        LCALL   ??Subroutine114_0
//  694     iOutIin2Diff = (INT16)adcs16[2] - (INT16)adcs16[5];
??CrossCallReturnLabel_350:
        MOV     DPTR,#(adcs16 + 10)
        LCALL   ?Subroutine44
??CrossCallReturnLabel_104:
        MOV     DPTR,#iOutIin2Diff
        LCALL   ??Subroutine114_0
//  695     
//  696     if ( ((INT16)adcs16[2] > page.fetCurrentThreshold) && ( (iOutIin1Diff < page.fetDeltaCurrent) || (iOutIin2Diff < page.fetDeltaCurrent) )  )
??CrossCallReturnLabel_351:
        MOV     DPTR,#(page + 130)
        LCALL   ??Subroutine0_1
??CrossCallReturnLabel_372:
        JNC     ??checkVin_0
        MOV     DPTR,#(page + 132)
        LCALL   ??Subroutine60_0
??CrossCallReturnLabel_165:
        MOV     DPTR,#iOutIin1Diff
        LCALL   ??Subroutine0_1
??CrossCallReturnLabel_373:
        JC      ??checkVin_1
        MOV     DPTR,#iOutIin2Diff
        LCALL   ??Subroutine0_1
??CrossCallReturnLabel_374:
        JNC     ??checkVin_0
//  697     {
//  698       currentFETTickCount += 120;
??checkVin_1:
        MOV     DPTR,#??currentFETTickCount
        MOVX    A,@DPTR
        ADD     A,#0x78
        MOVX    @DPTR,A
        INC     DPTR
        MOVX    A,@DPTR
        ADDC    A,#0x0
        MOVX    @DPTR,A
//  699       netValue = MainNetValueFETFailing; // indicate FET failure being observed
        MOV     DPTR,#netValue
        MOV     A,#0xa
        LCALL   ?Subroutine119
//  700       
//  701       if (currentFETTickCount >= (INT16)page.fetFailureCount)
??CrossCallReturnLabel_403:
        MOV     DPTR,#(page + 128)
        LCALL   ??Subroutine60_0
??CrossCallReturnLabel_166:
        MOV     DPH,#((??currentFETTickCount >> 8) & 0xff)
        MOV     DPL,#(??currentFETTickCount & 0xff)
        LCALL   ?Subroutine95
??CrossCallReturnLabel_301:
        JC      ??CrossCallReturnLabel_404
//  702       {
//  703         P1_4 = 0; /*turn the module off  */
        CLR     0x90.4
//  704         fetFailure = TRUE; /* set guard to keep module from being turned on */
        MOV     A,#0x1
        MOV     DPTR,#fetFailure
        MOVX    @DPTR,A
//  705         checkForFETFailure = FALSE; /* No need to check further until power cycle or Module On */
        CLR     A
        MOV     DPTR,#checkForFETFailure
        LCALL   ?Subroutine73
//  706         netValue = MainNetValueFETFailed; /* indicate FET failure condition */
//  707         *ModuleOffRememberedPtr = ModuleStatusOffFetFailure; /* Remember module is off */
??CrossCallReturnLabel_400:
        MOV     A,#0x7e
        MOV     DPTR,#-0x3
        MOVX    @DPTR,A
//  708         currentFETTickCount = 0; /* Reset to 0 */
        MOV     DPTR,#??currentFETTickCount
        CLR     A
        MOVX    @DPTR,A
        INC     DPTR
        LJMP    ??checkVin_2
//  709       }
//  710     }
//  711     else
//  712     {
//  713       currentFETTickCount = 0; /* Ensure count is back to default */
??checkVin_0:
        MOV     DPTR,#??currentFETTickCount
        CLR     A
        MOVX    @DPTR,A
        INC     DPTR
        MOVX    @DPTR,A
//  714       netValue = MainNetValueStandard; /* "default" netValue for main image */
        MOV     DPTR,#netValue
        MOV     A,#0x32
        LCALL   ?Subroutine119
//  715     }
//  716   }
//  717    
//  718   /* 12/29/2017 BEGIN Adding 1500V Protection Code */
//  719   
//  720   if (fetFailure == FALSE) /* If fetFailure then module is already off */
??CrossCallReturnLabel_404:
        MOV     DPTR,#fetFailure
        MOVX    A,@DPTR
        JZ      $+5
        LJMP    ??checkVin_3
//  721   {
//  722     /* Check if Vout has exceeded VoutLimit and has not yet been observed */
//  723     if ((page.VoutLimitCount > 0) && ((ProtectionLimitsExceeded & VoutLimitMask) != VoutLimitMask) && (adcs16[0] > page.VoutLimit))
        MOV     DPTR,#(page + 136)
        LCALL   ?Subroutine8
??CrossCallReturnLabel_28:
        JC      ??CrossCallReturnLabel_200
        MOV     DPTR,#ProtectionLimitsExceeded
        MOVX    A,@DPTR
        MOV     C,0xE0 /* A   */.6
        JC      ??CrossCallReturnLabel_200
        MOV     DPTR,#adcs16
        LCALL   ??Subroutine60_0
??CrossCallReturnLabel_167:
        MOV     DPH,#(((page + 138) >> 8) & 0xff)
        MOV     DPL,#((page + 138) & 0xff)
        LCALL   ?Subroutine95
??CrossCallReturnLabel_302:
        JNC     ??CrossCallReturnLabel_200
//  724     {
//  725       P1_4 = 0; /* turn Module off */
        LCALL   ?Subroutine75
//  726       P1_3 = 0; /* turn MPP off */
//  727       
//  728       *ModuleOffRememberedPtr = ModuleStatusOffProtection; /* Remember why module is off */
//  729       ProtectionLimitsExceeded |= VoutLimitMask;   /* Set Protection byte to indicate Vout Protection */
??CrossCallReturnLabel_239:
        SETB    0xE0 /* A   */.6
        LCALL   ?Subroutine0
//  730       
//  731       if (protectionModuleOffTimer < page.VoutLimitCount) /* Set Protection timer to appropriate value */
??CrossCallReturnLabel_370:
        JNC     ??CrossCallReturnLabel_200
//  732       {
//  733         protectionModuleOffTimer = page.VoutLimitCount;
        LCALL   ?Subroutine67
//  734       }
//  735     }
//  736     
//  737     /* Check if Iout has exceeded IoutLimit and has not yet been observed */
//  738     if ((page.IoutLimitCount > 0) && ((ProtectionLimitsExceeded & IoutLimitMask) != IoutLimitMask) && ((INT16)adcs16[2] > page.IoutLimit))
??CrossCallReturnLabel_200:
        MOV     DPTR,#(page + 140)
        LCALL   ?Subroutine8
??CrossCallReturnLabel_29:
        JC      ??CrossCallReturnLabel_201
        MOV     DPTR,#ProtectionLimitsExceeded
        MOVX    A,@DPTR
        MOV     C,0xE0 /* A   */.7
        JC      ??CrossCallReturnLabel_201
        LCALL   ?Subroutine60
??CrossCallReturnLabel_168:
        MOV     DPH,#(((page + 142) >> 8) & 0xff)
        MOV     DPL,#((page + 142) & 0xff)
        LCALL   ??Subroutine0_1
??CrossCallReturnLabel_375:
        JNC     ??CrossCallReturnLabel_201
//  739     {
//  740       P1_4 = 0; /* turn Module off */
        LCALL   ?Subroutine75
//  741       P1_3 = 0; /* turn MPP off */
//  742       
//  743       *ModuleOffRememberedPtr = ModuleStatusOffProtection; /* Remember why module is off */
//  744       ProtectionLimitsExceeded |= IoutLimitMask;          /* Set Protection byte to indicate Vout Protection */
??CrossCallReturnLabel_240:
        SETB    0xE0 /* A   */.7
        MOVX    @DPTR,A
//  745       
//  746       if (protectionModuleOffTimer < page.IoutLimitCount) /* Set Protection timer to appropriate value */
        MOV     DPTR,#(page + 140)
        LCALL   ??Subroutine0_0
??CrossCallReturnLabel_376:
        JNC     ??CrossCallReturnLabel_201
//  747       {
//  748         protectionModuleOffTimer = page.IoutLimitCount;
        LCALL   ?Subroutine67
//  749       }
//  750     }
//  751     
//  752     /* Is Vout or Iout protection indicated? */
//  753     if (ProtectionLimitsExceeded >= VoutLimitMask)
??CrossCallReturnLabel_201:
        MOV     DPTR,#ProtectionLimitsExceeded
        MOVX    A,@DPTR
        CLR     C
        SUBB    A,#0x40
        JNC     $+5
        LJMP    ??checkVin_3
//  754     {
//  755       ProtectionLimitsExceeded |= CountDownTimerActive; /* Set the Countdown timer bit "true" until proven otherwise */
        MOVX    A,@DPTR
        SETB    0xE0 /* A   */.0
        MOVX    @DPTR,A
//  756       
//  757       if ((ProtectionLimitsExceeded & IoutLimitMask) == IoutLimitMask) /* IoutLimit Protection has been recognized */
        MOV     C,0xE0 /* A   */.7
        JNC     ??CrossCallReturnLabel_202
//  758       {
//  759         if ((INT16)adcs16[2] > (page.IoutLimit - Amps_1)) /* When Iout above IoutLimit - 1Amp, countdown timer is "re-maxed" */
        MOV     DPTR,#(page + 142)
        MOVX    A,@DPTR
        ADD     A,#0x18
        MOV     R2,A
        INC     DPTR
        MOVX    A,@DPTR
        ADDC    A,#-0x4
        MOV     R3,A
        MOV     DPTR,#(adcs16 + 4)
        LCALL   ?Subroutine20
??CrossCallReturnLabel_54:
        MOV     C,0xD0 /* PSW */.2
        XRL     A,PSW
        RLC     A
        JNC     ??CrossCallReturnLabel_202
//  760         {
//  761           ProtectionLimitsExceeded &= CountDownTimerNotActive; /* Countdown condition fails, so change timer bit */
        MOV     DPTR,#ProtectionLimitsExceeded
        MOVX    A,@DPTR
        CLR     0xE0 /* A   */.0
        MOVX    @DPTR,A
//  762           if (protectionModuleOffTimer < page.IoutLimitCount) /* Set Protection timer to appropriate value */
        MOV     DPTR,#(page + 140)
        LCALL   ??Subroutine0_0
??CrossCallReturnLabel_377:
        JNC     ??CrossCallReturnLabel_202
//  763           {
//  764             protectionModuleOffTimer = page.IoutLimitCount;
        LCALL   ?Subroutine67
//  765           }
//  766         }
//  767       } /* END if ((protectionLimitsExceeded & IoutLimitMask) == IoutLimitMask) */
//  768       
//  769       if ((ProtectionLimitsExceeded & VoutLimitMask) == VoutLimitMask) /* VoutLimit Protection has been recognized */
??CrossCallReturnLabel_202:
        MOV     DPTR,#ProtectionLimitsExceeded
        MOVX    A,@DPTR
        MOV     C,0xE0 /* A   */.6
        JNC     ??CrossCallReturnLabel_203
//  770       {
//  771         if (adcs16[0] > (page.VoutLimit - Volts_50)) /* When Vout above VoutLimit - 50 volts, countdown timer is "re-maxed" */
        MOV     DPTR,#(page + 138)
        MOVX    A,@DPTR
        ADD     A,#0x7e
        MOV     R2,A
        INC     DPTR
        MOVX    A,@DPTR
        ADDC    A,#-0x7
        MOV     R3,A
        MOV     DPTR,#adcs16
        LCALL   ?Subroutine20
??CrossCallReturnLabel_55:
        JNC     ??CrossCallReturnLabel_203
//  772         {
//  773           ProtectionLimitsExceeded &= CountDownTimerNotActive;  /* Countdown condition fails, so change timer bit */
        MOV     DPTR,#ProtectionLimitsExceeded
        MOVX    A,@DPTR
        CLR     0xE0 /* A   */.0
        LCALL   ?Subroutine0
//  774           if (protectionModuleOffTimer < page.VoutLimitCount)   /* Set Protection timer to appropriate value */
??CrossCallReturnLabel_371:
        JNC     ??CrossCallReturnLabel_203
//  775           {
//  776             protectionModuleOffTimer = page.VoutLimitCount;
        LCALL   ?Subroutine67
//  777           }
//  778         }
//  779       } /* END if ((protectionLimitsExceeded & VoutLimitMask) == VoutLimitMask) */
//  780       
//  781       /* Is Countdown timer active? (meaning it is ok to decrement it) */
//  782       if ((ProtectionLimitsExceeded & CountDownTimerActive) == CountDownTimerActive)
??CrossCallReturnLabel_203:
        MOV     DPTR,#ProtectionLimitsExceeded
        MOVX    A,@DPTR
        MOV     C,0xE0 /* A   */.0
        JNC     ??checkVin_3
//  783       {
//  784         protectionModuleOffTimer -= 120;
        MOV     DPTR,#??protectionModuleOffTimer
        MOVX    A,@DPTR
        ADD     A,#-0x78
        MOVX    @DPTR,A
        INC     DPTR
        MOVX    A,@DPTR
        ADDC    A,#-0x1
        MOVX    @DPTR,A
//  785         if (protectionModuleOffTimer <= 0)
        MOV     DPTR,#??protectionModuleOffTimer
        LCALL   ?Subroutine8
??CrossCallReturnLabel_30:
        JNC     ??checkVin_3
//  786         {
//  787           protectionModuleOffTimer = 0;
        MOV     DPTR,#??protectionModuleOffTimer
        CLR     A
        MOVX    @DPTR,A
        INC     DPTR
        LCALL   ??Subroutine75_0
//  788           ProtectionLimitsExceeded &= NotVoutAndIoutLimitNoCountDownMask;
??CrossCallReturnLabel_241:
        ANL     A,#0x3e
        MOVX    @DPTR,A
//  789           if (ProtectionLimitsExceeded == 0)
        JNZ     ??checkVin_4
//  790           {
//  791             *ModuleOffRememberedPtr = ModuleStatusCanTurnOn;
        CLR     A
        MOV     DPTR,#-0x3
        MOVX    @DPTR,A
//  792             P1_3 = page.mpp;
        LCALL   ?Subroutine57
//  793             ov_startup();   
        ; Setup parameters for call to function ov_startup
??CrossCallReturnLabel_156:
        LCALL   ov_startup
        SJMP    ??checkVin_3
//  794           } /* END if (ProtectionLimitsExceeded == 0) */
//  795           else /* Some form of Temperature Protection is on, act accordingly */
//  796           {
//  797             P1_3 = page.mpp;
??checkVin_4:
        LCALL   ?Subroutine57
//  798             if ((ProtectionLimitsExceeded & TemperatureModuleOffMask) == 0x00)
??CrossCallReturnLabel_157:
        MOV     DPTR,#ProtectionLimitsExceeded
        MOVX    A,@DPTR
        MOV     C,0xE0 /* A   */.5
        JC      ??checkVin_5
//  799             {
//  800               *ModuleOffRememberedPtr = ModuleStatusCanTurnOn;
        CLR     A
        MOV     DPTR,#-0x3
        MOVX    @DPTR,A
//  801               ov_startup();                 
        ; Setup parameters for call to function ov_startup
        SJMP    ??CrossCallReturnLabel_156
//  802             }
//  803             else
//  804             {
//  805               *ModuleOffRememberedPtr = ModuleStatusOffTemperature;
??checkVin_5:
        MOV     A,#-0x5a
        MOV     DPTR,#-0x3
??checkVin_2:
        MOVX    @DPTR,A
//  806             }
//  807           }
//  808         } /* END if (protectionModuleOffTimer <= 0) */
//  809       } /* END if ((ProtectionLimitsExceeded & CountDownTimerActive) == CountDownTimerActive)*/
//  810     } /* END if (ProtectionLimitsExceeded >= VoutLimitMask)*/
//  811   } /* END if (fetFailure == FALSE) */
//  812   
//  813   /* 12/29/2017 END Adding 1500V Protection Code */
//  814     
//  815 #endif
//  816   
//  817   checkVref = page.vrefPolynom[0] / ((float)last[4]);
??checkVin_3:
        MOV     DPTR,#(page + 28)
        MOV     R0,#?V0 + 4
        LCALL   ?L_MOV_X
        MOV     DPTR,#(last + 8)
        LCALL   ?Subroutine4
??CrossCallReturnLabel_13:
        LCALL   ?UL_TO_FLT
        MOV     R0,#?V0 + 4
        MOV     R1,#?V0 + 0
        LCALL   ?FLT_DIV
        MOV     DPTR,#checkVref
        MOV     R0,#?V0 + 4
        LCALL   ?L_MOV_TO_X
//  818   _coeff = page.linearK[3];
        MOV     DPTR,#_coeff
        MOV     A,#((page + 64) & 0xff)
        MOVX    @DPTR,A
        INC     DPTR
        MOV     A,#(((page + 64) >> 8) & 0xff)
        MOVX    @DPTR,A
//  819   
//  820   safe_vin_16  = convU( lin_coeff( ((float) last[5])*checkVref ) );
        ; Setup parameters for call to function convU
        ; Setup parameters for call to function lin_coeff
        MOV     DPTR,#(last + 10)
        LCALL   ?Subroutine4
??CrossCallReturnLabel_14:
        LCALL   ?UL_TO_FLT
        MOV     DPTR,#checkVref
        MOV     R0,#?V0 + 4
        LCALL   ?L_MOV_X
        MOV     R0,#?V0 + 0
        MOV     R1,#?V0 + 4
        LCALL   ?FLT_MUL
        LCALL   ?Subroutine82
//  821 
//  822 #ifndef MidString
//  823   if ( P1_3 == 0 )
//  824   {
//  825     if( P1_4  && (safe_vin_16 < (100*(UINT16)page.vin_switch_off) ) )
//  826     {
//  827       ticks[ TurnOn ] = 3 * TICKS_IN_SEC;
//  828       P1_4 = 0;
//  829     }
//  830     else if ( (P1_4 == 0) && turnOnFlag && ( safe_vin_16 > (100*(UINT16)page.vin_turn_on) ) )
//  831     {
//  832       turnOnFlag = 0;
//  833       ticks[ BypassMode ] = TICKS_IN_SEC;
//  834       P1_3 = 1;
//  835       ov_startup();
//  836     }
//  837   }
//  838 #endif
//  839   
//  840   if( (flags[ PackageReceived ]) || (flags[DataSent]) )
??CrossCallReturnLabel_267:
        MOV     DPTR,#flags
        LCALL   ?Subroutine96
??CrossCallReturnLabel_306:
        MOVX    A,@DPTR
        JNZ     ??checkVin_6
        MOV     DPTR,#(flags + 1)
        MOVX    A,@DPTR
        MOV     DPH,A
        MOV     DPL,R2
        INC     DPTR
        INC     DPTR
        MOVX    A,@DPTR
        JZ      ??checkVin_7
//  841   {
//  842     flags[AltCheckVin] = TRUE;
??checkVin_6:
        MOV     DPTR,#flags
        MOVX    A,@DPTR
        ADD     A,#0xb
        LCALL   ?Subroutine55
??CrossCallReturnLabel_139:
        MOV     A,#0x1
        LJMP    ??checkVin_8
//  843     return;
//  844   }
//  845   
//  846   txDisabled = 0;
??checkVin_7:
        CLR     A
        MOV     DPTR,#txDisabled
        MOVX    @DPTR,A
//  847   if ( page.vin_disable_radio )
        MOV     DPTR,#(page + 156)
        MOVX    A,@DPTR
        MOV     R2,A
        JZ      ??checkVin_9
//  848     txDisabled = ( safe_vin_16 < (1000*(UINT16)page.vin_disable_radio) );
        MOV     B,#-0x18
        MUL     AB
        XCH     A,R2
        MOV     R4,B
        MOV     B,#0x3
        MUL     AB
        ADD     A,R4
        MOV     R4,A
        CLR     A
        ADD     A,R4
        MOV     R3,A
        MOV     A,R0
        SUBB    A,R2
        MOV     A,R1
        SUBB    A,R3
        JNC     ??checkVin_10
        MOV     R2,#0x1
        SJMP    ??checkVin_11
??checkVin_10:
        MOV     R2,#0x0
??checkVin_11:
        MOV     A,R2
        MOV     DPTR,#txDisabled
        MOVX    @DPTR,A
//  849 
//  850 #ifndef MidString
//  851   if ( page.vin_limit )
//  852   {
//  853     register BOOL flag = ( safe_vin_16 < (page.vin_limit*100) );
//  854     if ( !ch255 && flag )
//  855     {
//  856       switchTo255();
//  857     }
//  858     else if ( ch255 && !flag )
//  859     {
//  860       BYTE curV255 = page.vin_limit;
//  861       read_page();
//  862       page.vin_limit = curV255;
//  863       curChannel = page.channel;
//  864       softKick();
//  865     }
//  866   }
//  867   else if ( ch255 )
//  868   {
//  869     BYTE curV255 = page.vin_limit;
//  870     read_page();
//  871     page.vin_limit = curV255;
//  872     curChannel = page.channel;
//  873     softKick();
//  874   }
//  875 #endif
//  876     
//  877 #ifdef MidString
//  878   /* 06/26/2017 - Added additional code regarding switching to and from channel 255, (looking at Iin1 (adcs16[6]) ) */
//  879   if (!ch255)
??checkVin_9:
        MOV     DPTR,#(page + 134)
        LCALL   ??Subroutine45_0
??CrossCallReturnLabel_105:
        MOV     DPTR,#ch255
        MOVX    A,@DPTR
        CLR     C
        JNZ     ??checkVin_12
//  880   {
//  881     if (safe_vin_16 > switchTo255Lim)
        MOV     A,R0
        SUBB    A,#-0x2b
        MOV     A,R1
        SUBB    A,#-0x53
        JC      ??checkVin_13
//  882     {
//  883       switchTo255();
        ; Setup parameters for call to function switchTo255
        LCALL   switchTo255
//  884       netValue = MainNetValueSafeVin;
        MOV     DPTR,#netValue
        MOV     A,#0x50
        SJMP    ??checkVin_14
//  885     }
//  886     else if ((INT16)adcs16[6] < (INT16)page.LowCurrentLimitTo255)
??checkVin_13:
        MOV     DPTR,#(adcs16 + 12)
        CLR     C
        MOVX    A,@DPTR
        SUBB    A,R2
        INC     DPTR
        MOVX    A,@DPTR
        LCALL   ?Subroutine103
??CrossCallReturnLabel_382:
        JNC     ??CrossCallReturnLabel_405
//  887     {
//  888       switchTo255();
        ; Setup parameters for call to function switchTo255
        LCALL   switchTo255
//  889       netValue = MainNetValueLowCurrentLimit;
        MOV     DPTR,#netValue
        MOV     A,#0x51
        SJMP    ??checkVin_14
//  890     }
//  891   }
//  892   else if ( ch255 && (( safe_vin_16 < switchFrom255Lim ) && ((INT16)adcs[6] >= (INT16)page.LowCurrentLimitTo255)))
??checkVin_12:
        MOV     A,R0
        SUBB    A,#0x10
        MOV     A,R1
        SUBB    A,#-0x5c
        JNC     ??CrossCallReturnLabel_405
        MOV     DPTR,#(adcs + 24)
        MOV     R0,#?V0 + 0
        LCALL   ?L_MOV_X
        CLR     C
        MOV     A,?V0 + 0
        SUBB    A,R2
        MOV     A,?V0 + 1
        LCALL   ?Subroutine103
??CrossCallReturnLabel_383:
        JC      ??CrossCallReturnLabel_405
//  893   {
//  894     read_page();
        ; Setup parameters for call to function read_page
        LCALL   read_page
//  895     if( page.is500Always )
        MOV     DPTR,#(page + 194)
        MOVX    A,@DPTR
        MOV     C,0xE0 /* A   */.6
        JNC     ??checkVin_15
//  896       curChannel = page.starting500Channel;
        MOV     DPTR,#(page + 218)
        MOVX    A,@DPTR
        MOV     DPTR,#curChannel
        MOVX    @DPTR,A
//  897     softKick();
??checkVin_15:
        ; Setup parameters for call to function softKick
        LCALL   softKick
//  898     netValue = MainNetValueStandard;
        MOV     DPTR,#netValue
        MOV     A,#0x32
??checkVin_14:
        LCALL   ?Subroutine119
//  899   }
//  900 #endif
//  901   
//  902   if ( (flags[ PackageReceived ]) || (flags[DataSent]) )
??CrossCallReturnLabel_405:
        LCALL   ??Subroutine3_0
??CrossCallReturnLabel_8:
        JZ      $+5
        LJMP    ??checkVin_6
        LCALL   ?Subroutine6
??CrossCallReturnLabel_21:
        JZ      $+5
        LJMP    ??checkVin_6
//  903   {
//  904     flags[AltCheckVin] = TRUE; 
//  905     return; 
//  906   }
//  907   
//  908   /* Start of Temperature protection code */
//  909   _coeff = page.linearK[4];
        MOV     DPTR,#_coeff
        MOV     A,#((page + 72) & 0xff)
        MOVX    @DPTR,A
        INC     DPTR
        MOV     A,#(((page + 72) >> 8) & 0xff)
        MOVX    @DPTR,A
//  910   t =  (INT16) lin_coeff_t( ((float)last[6]) * checkVref );
        ; Setup parameters for call to function lin_coeff_t
        MOV     DPTR,#(last + 12)
        LCALL   ?Subroutine4
??CrossCallReturnLabel_15:
        LCALL   ?UL_TO_FLT
        MOV     DPTR,#checkVref
        MOV     R0,#?V0 + 4
        LCALL   ?L_MOV_X
        MOV     R0,#?V0 + 0
        MOV     R1,#?V0 + 4
        LCALL   ?FLT_MUL
        MOV     R2,?V0 + 0
        MOV     R3,?V0 + 1
        MOV     R4,?V0 + 2
        MOV     R5,?V0 + 3
        LCALL   lin_coeff_t
        MOV     ?V0 + 0,R2
        MOV     ?V0 + 1,R3
        MOV     ?V0 + 2,R4
        MOV     ?V0 + 3,R5
        MOV     R0,#?V0 + 0
        LCALL   ?FLT_TO_L
        MOV     R2,?V0 + 0
        MOV     R3,?V0 + 1
//  911   
//  912   /* if T_SUPER_HOT enabled, and temperature exceeds value, turn off unit.
//  913      Critical Temperature Protection, i.e., T_SUPER_HOT */
//  914   if( page.t_mod_off && (t > ((INT16)page.t_mod_off)) )
        MOV     DPTR,#(page + 224)
        MOVX    A,@DPTR
        JZ      ??checkVin_16
        LCALL   ?Subroutine66
??CrossCallReturnLabel_198:
        JNC     ??checkVin_16
//  915   { 
//  916     P1_4 = 0;
        CLR     0x90.4
//  917     if (*ModuleOffRememberedPtr == ModuleStatusCanTurnOn)
        MOV     DPTR,#-0x3
        MOVX    A,@DPTR
        JNZ     ??checkVin_17
//  918       *ModuleOffRememberedPtr = ModuleStatusOffTemperature;
        MOV     A,#-0x5a
        MOVX    @DPTR,A
//  919     ProtectionLimitsExceeded |= TemperatureModuleOffAndSteppedDownMask;
??checkVin_17:
        MOV     DPTR,#ProtectionLimitsExceeded
        MOVX    A,@DPTR
        ORL     A,#0x30
??checkVin_18:
        MOVX    @DPTR,A
        LJMP    ??CrossCallReturnLabel_330
//  920   }
//  921   else if ( page.fallback_time && page.fallback_time!=0xFF )
??checkVin_16:
        MOV     DPTR,#(page + 227)
        MOVX    A,@DPTR
        MOV     ?V0 + 0,A
        JNZ     $+5
        LJMP    ??CrossCallReturnLabel_330
        MOV     A,#-0x1
        XRL     A,?V0 + 0
        JNZ     $+5
        LJMP    ??CrossCallReturnLabel_330
//  922   { /* Temperature above T_HOT */
//  923     if ( checkVoutOnT )
        MOV     DPTR,#checkVoutOnT
        MOVX    A,@DPTR
        JNZ     ??checkVin_19
        INC     DPTR
        MOVX    A,@DPTR
??checkVin_19:
        JZ      ??checkVin_20
//  924       checkVoutOnT--;
        MOV     DPTR,#checkVoutOnT
        LCALL   ?Subroutine49
??CrossCallReturnLabel_124:
        SJMP    ??checkVin_18
//  925     else
//  926     {
//  927       checkVoutOnT = 8 * (UINT16)page.fallback_time;
??checkVin_20:
        MOV     ?V0 + 1,#0x0
        MOV     A,#0x3
        MOV     R0,#?V0 + 0
        LCALL   ?S_SHL
        MOV     DPTR,#checkVoutOnT
        MOV     A,?V0 + 0
        MOVX    @DPTR,A
        INC     DPTR
        MOV     A,?V0 + 1
        LCALL   ??Subroutine75_0
//  928       if ((ProtectionLimitsExceeded & TemperatureSteppedDownMask) == TemperatureSteppedDownMask)
??CrossCallReturnLabel_242:
        MOV     C,0xE0 /* A   */.4
        JNC     ??checkVin_21
//  929       {
//  930         if ( t < ((INT16)page.ton_fallback) ) /* if temperature less than T_COLD */
        MOV     DPTR,#(page + 226)
        MOVX    A,@DPTR
        MOV     R0,A
        CLR     C
        MOV     A,R2
        SUBB    A,R0
        LCALL   ?Subroutine64
??CrossCallReturnLabel_191:
        JNC     ??checkVin_22
//  931         {
//  932           if ( !P1_4 )
        MOV     C,0x90.4
        JC      ??checkVin_23
//  933           {
//  934             if (*ModuleOffRememberedPtr == ModuleStatusOffTemperature)
        MOV     DPTR,#-0x3
        MOVX    A,@DPTR
        XRL     A,#0xa6
        JNZ     ??checkVin_23
//  935             {
//  936               *ModuleOffRememberedPtr = ModuleStatusCanTurnOn;
        CLR     A
        MOVX    @DPTR,A
//  937               ov_startup(); /* module attempt turn on , starting OV seq */
        ; Setup parameters for call to function ov_startup
        LCALL   ov_startup
//  938             }
//  939           }
//  940                       
//  941           T3CC1 = oc2timer(theOC = setOC);
??checkVin_23:
        MOV     DPTR,#setOC
        MOVX    A,@DPTR
        LCALL   ?Subroutine71
//  942 
//  943           ProtectionLimitsExceeded &= NotTemperatureModuleOffAndSteppedDownMask; /* Both Protections cancelled here */
??CrossCallReturnLabel_227:
        MOV     DPTR,#ProtectionLimitsExceeded
        MOVX    A,@DPTR
        ANL     A,#0xcf
        SJMP    ??checkVin_18
//  944         } /* END  if ( t < ((INT16)page.ton_fallback) )  */
//  945         else if ( P1_4 && theOC )
??checkVin_22:
        MOV     C,0x90.4
        JNC     ??CrossCallReturnLabel_330
        MOV     DPTR,#theOC
        MOVX    A,@DPTR
        JZ      ??CrossCallReturnLabel_330
//  946           T3CC1 = oc2timer( --theOC );
        DEC     A
        MOVX    @DPTR,A
        ; Setup parameters for call to function oc2timer
        SJMP    ??checkVin_24
//  947       } /* END  if( isSteppedDown ) */
//  948       else if ( P1_4 && ( t > ((INT16)page.toff_fallback)) )
??checkVin_21:
        MOV     C,0x90.4
        JNC     ??CrossCallReturnLabel_330
        MOV     DPTR,#(page + 225)
        MOVX    A,@DPTR
        LCALL   ?Subroutine66
??CrossCallReturnLabel_199:
        JNC     ??CrossCallReturnLabel_330
//  949       {
//  950         if ( (theOC > page.oc_protection ) || (OcRamp <= 0))
        MOV     DPTR,#(page + 230)
        MOVX    A,@DPTR
        MOV     R3,A
        MOV     DPTR,#theOC
        MOVX    A,@DPTR
        MOV     R2,A
        MOV     A,R3
        CLR     C
        SUBB    A,R2
        JNC     ??checkVin_25
//  951         {
//  952           atomicChange( OcRamp, 0 ); 
        MOV     DPTR,#ticks
        MOVX    A,@DPTR
        ADD     A,#0x18
        LCALL   ??Subroutine2_1
//  953           theOC = page.oc_protection;
??CrossCallReturnLabel_3:
        MOV     A,R3
        MOV     DPTR,#theOC
        SJMP    ??checkVin_26
//  954         }
//  955         else
//  956           theOC--;
??checkVin_25:
        MOVX    A,@DPTR
        DEC     A
??checkVin_26:
        LCALL   ??Subroutine75_0
//  957         
//  958         ProtectionLimitsExceeded |= TemperatureSteppedDownMask;
??CrossCallReturnLabel_243:
        SETB    0xE0 /* A   */.4
        MOVX    @DPTR,A
//  959         T3CC1 = oc2timer( theOC );
        ; Setup parameters for call to function oc2timer
        MOV     DPTR,#theOC
        MOVX    A,@DPTR
??checkVin_24:
        LCALL   ?Subroutine105
//  960       } /* END else if ( P1_4 && (t > ((INT16)page.toff_fallback)) ) */
//  961     } /* END else (checkVoutOnT == 0) */
//  962   } /* END else if (page,fallback_time ... */
//  963     
//  964 #ifdef MidString
//  965   if ( (flags[ PackageReceived ]) || (flags[DataSent]) )
??CrossCallReturnLabel_330:
        LCALL   ??Subroutine3_0
??CrossCallReturnLabel_9:
        JZ      $+5
        LJMP    ??checkVin_6
        LCALL   ?Subroutine6
??CrossCallReturnLabel_22:
        JZ      $+5
        LJMP    ??checkVin_6
//  966   { 
//  967     flags[AltCheckVin] = TRUE;
//  968     return;
//  969   }
//  970   
//  971   if ( page.shortCircuitLevel && P1_4 )
        MOV     DPTR,#(page + 159)
        MOVX    A,@DPTR
        JZ      ??checkVin_27
        MOV     C,0x90.4
        JNC     ??checkVin_27
//  972   { /* module on and shortCircuitLevel is not 0 */
//  973     
//  974     UINT16 vout;
//  975     _coeff = page.linearK[0];
        MOV     DPTR,#_coeff
        MOV     A,#((page + 40) & 0xff)
        MOVX    @DPTR,A
        INC     DPTR
        MOV     A,#(((page + 40) >> 8) & 0xff)
        MOVX    @DPTR,A
//  976     vout = convU( lin_coeff( ((float) last[0])*checkVref ) );
        ; Setup parameters for call to function convU
        ; Setup parameters for call to function lin_coeff
        MOV     DPTR,#last
        LCALL   ?Subroutine4
??CrossCallReturnLabel_16:
        LCALL   ?UL_TO_FLT
        MOV     DPTR,#checkVref
        MOV     R0,#?V0 + 4
        LCALL   ?L_MOV_X
        MOV     R0,#?V0 + 0
        MOV     R1,#?V0 + 4
        LCALL   ?FLT_MUL
        LCALL   ?Subroutine82
//  977     
//  978     if ( ocShortCircuitLimit < 255 )
??CrossCallReturnLabel_268:
        MOV     DPTR,#ocShortCircuitLimit
        MOVX    A,@DPTR
        XRL     A,#0xff
        CLR     C
        JZ      ??checkVin_28
//  979     { /* Short Circuit Protection is currently ON */
//  980       if ( vout > shortCircuitProtectionOff ) // was 8000 - 160V on Midstring 600V, 16000 (320 V) on MS1000 turning Short Circuit Protection OFF
        MOV     A,R0
        SUBB    A,#0x59
        MOV     A,R1
        SUBB    A,#0x34
        JC      ??checkVin_29
//  981       {
//  982         ocShortCircuitLimit = 255;
        MOV     A,#-0x1
??checkVin_30:
        LCALL   ?Subroutine34
//  983         T3CC1 = oc2timer( theOC );
??CrossCallReturnLabel_84:
        SJMP    ??checkVin_29
//  984       }
//  985     }
//  986     else
//  987     {  /* Short Circuit Protection is currently OFF */
//  988       if ( vout < shortCircuitProtectionOn ) // was 6000 - 120V on Midstring 600V, was 1200 for MS1000, turning Short Circuit Protection ON
??checkVin_28:
        MOV     A,R0
        SUBB    A,#0x10
        MOV     A,R1
        SUBB    A,#0x27
        JNC     ??checkVin_29
//  989       {
//  990         ocShortCircuitLimit = page.shortCircuitLevel;
        MOV     DPTR,#(page + 159)
        MOVX    A,@DPTR
        MOV     DPTR,#ocShortCircuitLimit
        SJMP    ??checkVin_30
//  991         T3CC1 = oc2timer( theOC );
//  992       }
//  993     }
//  994   }
//  995   else 
//  996     ocShortCircuitLimit = 255;  // if module OFF -> no Short Circuit Protection, turning it OFF
??checkVin_27:
        MOV     A,#-0x1
        MOV     DPTR,#ocShortCircuitLimit
??checkVin_8:
        MOVX    @DPTR,A
??checkVin_29:
        LJMP    ??Subroutine121_1
        CFI EndBlock cfiBlock52
        REQUIRE _A_P1
        REQUIRE T3CC1
//  997 #endif    
//  998     
//  999 }

        RSEG NEAR_CODE:CODE:NOROOT(0)
?Subroutine82:
        CFI Block cfiCond53 Using cfiCommon0
        CFI NoFunction
        CFI Conditional ??CrossCallReturnLabel_267
        CFI R6 load(1, XDATA, add(CFA_XSP16, literal(-15)))
        CFI VB load(1, XDATA, add(CFA_XSP16, literal(-14)))
        CFI V0 load(1, XDATA, add(CFA_XSP16, literal(-13)))
        CFI V1 load(1, XDATA, add(CFA_XSP16, literal(-12)))
        CFI V2 load(1, XDATA, add(CFA_XSP16, literal(-11)))
        CFI V3 load(1, XDATA, add(CFA_XSP16, literal(-10)))
        CFI V4 load(1, XDATA, add(CFA_XSP16, literal(-9)))
        CFI V5 load(1, XDATA, add(CFA_XSP16, literal(-8)))
        CFI V6 load(1, XDATA, add(CFA_XSP16, literal(-7)))
        CFI V7 load(1, XDATA, add(CFA_XSP16, literal(-6)))
        CFI R7 load(1, XDATA, add(CFA_XSP16, literal(-5)))
        CFI ?RET_LOW load(1, XDATA, add(CFA_XSP16, literal(-4)))
        CFI ?RET_HIGH load(1, XDATA, add(CFA_XSP16, literal(-3)))
        CFI DPL0 load(1, XDATA, add(CFA_XSP16, literal(-2)))
        CFI DPH0 load(1, XDATA, add(CFA_XSP16, literal(-1)))
        CFI CFA_SP SP+0
        CFI CFA_XSP16 add(XSP16, 15)
        CFI Block cfiCond54 Using cfiCommon0
        CFI (cfiCond54) NoFunction
        CFI (cfiCond54) Conditional ??CrossCallReturnLabel_268
        CFI (cfiCond54) R6 load(1, XDATA, add(CFA_XSP16, literal(-15)))
        CFI (cfiCond54) VB load(1, XDATA, add(CFA_XSP16, literal(-14)))
        CFI (cfiCond54) V0 load(1, XDATA, add(CFA_XSP16, literal(-13)))
        CFI (cfiCond54) V1 load(1, XDATA, add(CFA_XSP16, literal(-12)))
        CFI (cfiCond54) V2 load(1, XDATA, add(CFA_XSP16, literal(-11)))
        CFI (cfiCond54) V3 load(1, XDATA, add(CFA_XSP16, literal(-10)))
        CFI (cfiCond54) V4 load(1, XDATA, add(CFA_XSP16, literal(-9)))
        CFI (cfiCond54) V5 load(1, XDATA, add(CFA_XSP16, literal(-8)))
        CFI (cfiCond54) V6 load(1, XDATA, add(CFA_XSP16, literal(-7)))
        CFI (cfiCond54) V7 load(1, XDATA, add(CFA_XSP16, literal(-6)))
        CFI (cfiCond54) R7 load(1, XDATA, add(CFA_XSP16, literal(-5)))
        CFI (cfiCond54) ?RET_LOW load(1, XDATA, add(CFA_XSP16, literal(-4)))
        CFI (cfiCond54) ?RET_HIGH load(1, XDATA, add(CFA_XSP16, literal(-3)))
        CFI (cfiCond54) DPL0 load(1, XDATA, add(CFA_XSP16, literal(-2)))
        CFI (cfiCond54) DPH0 load(1, XDATA, add(CFA_XSP16, literal(-1)))
        CFI (cfiCond54) CFA_SP SP+0
        CFI (cfiCond54) CFA_XSP16 add(XSP16, 15)
        CFI Block cfiPicker55 Using cfiCommon1
        CFI (cfiPicker55) NoFunction
        CFI (cfiPicker55) Picker
        MOV     R2,?V0 + 0
        MOV     R3,?V0 + 1
        MOV     R4,?V0 + 2
        MOV     R5,?V0 + 3
        LCALL   lin_coeff
        LCALL   convU
        MOV     ?V0 + 0,R2
        MOV     ?V0 + 1,R3
        MOV     R0,?V0 + 0
        MOV     R1,?V0 + 1
        RET
        CFI EndBlock cfiCond53
        CFI EndBlock cfiCond54
        CFI EndBlock cfiPicker55

        RSEG NEAR_CODE:CODE:NOROOT(0)
?Subroutine75:
        CFI Block cfiCond56 Using cfiCommon0
        CFI NoFunction
        CFI Conditional ??CrossCallReturnLabel_239
        CFI R6 load(1, XDATA, add(CFA_XSP16, literal(-15)))
        CFI VB load(1, XDATA, add(CFA_XSP16, literal(-14)))
        CFI V0 load(1, XDATA, add(CFA_XSP16, literal(-13)))
        CFI V1 load(1, XDATA, add(CFA_XSP16, literal(-12)))
        CFI V2 load(1, XDATA, add(CFA_XSP16, literal(-11)))
        CFI V3 load(1, XDATA, add(CFA_XSP16, literal(-10)))
        CFI V4 load(1, XDATA, add(CFA_XSP16, literal(-9)))
        CFI V5 load(1, XDATA, add(CFA_XSP16, literal(-8)))
        CFI V6 load(1, XDATA, add(CFA_XSP16, literal(-7)))
        CFI V7 load(1, XDATA, add(CFA_XSP16, literal(-6)))
        CFI R7 load(1, XDATA, add(CFA_XSP16, literal(-5)))
        CFI ?RET_LOW load(1, XDATA, add(CFA_XSP16, literal(-4)))
        CFI ?RET_HIGH load(1, XDATA, add(CFA_XSP16, literal(-3)))
        CFI DPL0 load(1, XDATA, add(CFA_XSP16, literal(-2)))
        CFI DPH0 load(1, XDATA, add(CFA_XSP16, literal(-1)))
        CFI CFA_SP SP+0
        CFI CFA_XSP16 add(XSP16, 15)
        CFI Block cfiCond57 Using cfiCommon0
        CFI (cfiCond57) NoFunction
        CFI (cfiCond57) Conditional ??CrossCallReturnLabel_240
        CFI (cfiCond57) R6 load(1, XDATA, add(CFA_XSP16, literal(-15)))
        CFI (cfiCond57) VB load(1, XDATA, add(CFA_XSP16, literal(-14)))
        CFI (cfiCond57) V0 load(1, XDATA, add(CFA_XSP16, literal(-13)))
        CFI (cfiCond57) V1 load(1, XDATA, add(CFA_XSP16, literal(-12)))
        CFI (cfiCond57) V2 load(1, XDATA, add(CFA_XSP16, literal(-11)))
        CFI (cfiCond57) V3 load(1, XDATA, add(CFA_XSP16, literal(-10)))
        CFI (cfiCond57) V4 load(1, XDATA, add(CFA_XSP16, literal(-9)))
        CFI (cfiCond57) V5 load(1, XDATA, add(CFA_XSP16, literal(-8)))
        CFI (cfiCond57) V6 load(1, XDATA, add(CFA_XSP16, literal(-7)))
        CFI (cfiCond57) V7 load(1, XDATA, add(CFA_XSP16, literal(-6)))
        CFI (cfiCond57) R7 load(1, XDATA, add(CFA_XSP16, literal(-5)))
        CFI (cfiCond57) ?RET_LOW load(1, XDATA, add(CFA_XSP16, literal(-4)))
        CFI (cfiCond57) ?RET_HIGH load(1, XDATA, add(CFA_XSP16, literal(-3)))
        CFI (cfiCond57) DPL0 load(1, XDATA, add(CFA_XSP16, literal(-2)))
        CFI (cfiCond57) DPH0 load(1, XDATA, add(CFA_XSP16, literal(-1)))
        CFI (cfiCond57) CFA_SP SP+0
        CFI (cfiCond57) CFA_XSP16 add(XSP16, 15)
        CFI Block cfiPicker58 Using cfiCommon1
        CFI (cfiPicker58) NoFunction
        CFI (cfiPicker58) Picker
        CLR     0x90.4
        CLR     0x90.3
        MOV     A,#0x6a
        MOV     DPTR,#-0x3
        CFI Block cfiCond59 Using cfiCommon0
        CFI (cfiCond59) NoFunction
        CFI (cfiCond59) Conditional ??CrossCallReturnLabel_241
        CFI (cfiCond59) R6 load(1, XDATA, add(CFA_XSP16, literal(-15)))
        CFI (cfiCond59) VB load(1, XDATA, add(CFA_XSP16, literal(-14)))
        CFI (cfiCond59) V0 load(1, XDATA, add(CFA_XSP16, literal(-13)))
        CFI (cfiCond59) V1 load(1, XDATA, add(CFA_XSP16, literal(-12)))
        CFI (cfiCond59) V2 load(1, XDATA, add(CFA_XSP16, literal(-11)))
        CFI (cfiCond59) V3 load(1, XDATA, add(CFA_XSP16, literal(-10)))
        CFI (cfiCond59) V4 load(1, XDATA, add(CFA_XSP16, literal(-9)))
        CFI (cfiCond59) V5 load(1, XDATA, add(CFA_XSP16, literal(-8)))
        CFI (cfiCond59) V6 load(1, XDATA, add(CFA_XSP16, literal(-7)))
        CFI (cfiCond59) V7 load(1, XDATA, add(CFA_XSP16, literal(-6)))
        CFI (cfiCond59) R7 load(1, XDATA, add(CFA_XSP16, literal(-5)))
        CFI (cfiCond59) ?RET_LOW load(1, XDATA, add(CFA_XSP16, literal(-4)))
        CFI (cfiCond59) ?RET_HIGH load(1, XDATA, add(CFA_XSP16, literal(-3)))
        CFI (cfiCond59) DPL0 load(1, XDATA, add(CFA_XSP16, literal(-2)))
        CFI (cfiCond59) DPH0 load(1, XDATA, add(CFA_XSP16, literal(-1)))
        CFI (cfiCond59) CFA_SP SP+0
        CFI (cfiCond59) CFA_XSP16 add(XSP16, 15)
        CFI Block cfiCond60 Using cfiCommon0
        CFI (cfiCond60) NoFunction
        CFI (cfiCond60) Conditional ??CrossCallReturnLabel_242
        CFI (cfiCond60) R6 load(1, XDATA, add(CFA_XSP16, literal(-15)))
        CFI (cfiCond60) VB load(1, XDATA, add(CFA_XSP16, literal(-14)))
        CFI (cfiCond60) V0 load(1, XDATA, add(CFA_XSP16, literal(-13)))
        CFI (cfiCond60) V1 load(1, XDATA, add(CFA_XSP16, literal(-12)))
        CFI (cfiCond60) V2 load(1, XDATA, add(CFA_XSP16, literal(-11)))
        CFI (cfiCond60) V3 load(1, XDATA, add(CFA_XSP16, literal(-10)))
        CFI (cfiCond60) V4 load(1, XDATA, add(CFA_XSP16, literal(-9)))
        CFI (cfiCond60) V5 load(1, XDATA, add(CFA_XSP16, literal(-8)))
        CFI (cfiCond60) V6 load(1, XDATA, add(CFA_XSP16, literal(-7)))
        CFI (cfiCond60) V7 load(1, XDATA, add(CFA_XSP16, literal(-6)))
        CFI (cfiCond60) R7 load(1, XDATA, add(CFA_XSP16, literal(-5)))
        CFI (cfiCond60) ?RET_LOW load(1, XDATA, add(CFA_XSP16, literal(-4)))
        CFI (cfiCond60) ?RET_HIGH load(1, XDATA, add(CFA_XSP16, literal(-3)))
        CFI (cfiCond60) DPL0 load(1, XDATA, add(CFA_XSP16, literal(-2)))
        CFI (cfiCond60) DPH0 load(1, XDATA, add(CFA_XSP16, literal(-1)))
        CFI (cfiCond60) CFA_SP SP+0
        CFI (cfiCond60) CFA_XSP16 add(XSP16, 15)
        CFI Block cfiCond61 Using cfiCommon0
        CFI (cfiCond61) NoFunction
        CFI (cfiCond61) Conditional ??CrossCallReturnLabel_243
        CFI (cfiCond61) R6 load(1, XDATA, add(CFA_XSP16, literal(-15)))
        CFI (cfiCond61) VB load(1, XDATA, add(CFA_XSP16, literal(-14)))
        CFI (cfiCond61) V0 load(1, XDATA, add(CFA_XSP16, literal(-13)))
        CFI (cfiCond61) V1 load(1, XDATA, add(CFA_XSP16, literal(-12)))
        CFI (cfiCond61) V2 load(1, XDATA, add(CFA_XSP16, literal(-11)))
        CFI (cfiCond61) V3 load(1, XDATA, add(CFA_XSP16, literal(-10)))
        CFI (cfiCond61) V4 load(1, XDATA, add(CFA_XSP16, literal(-9)))
        CFI (cfiCond61) V5 load(1, XDATA, add(CFA_XSP16, literal(-8)))
        CFI (cfiCond61) V6 load(1, XDATA, add(CFA_XSP16, literal(-7)))
        CFI (cfiCond61) V7 load(1, XDATA, add(CFA_XSP16, literal(-6)))
        CFI (cfiCond61) R7 load(1, XDATA, add(CFA_XSP16, literal(-5)))
        CFI (cfiCond61) ?RET_LOW load(1, XDATA, add(CFA_XSP16, literal(-4)))
        CFI (cfiCond61) ?RET_HIGH load(1, XDATA, add(CFA_XSP16, literal(-3)))
        CFI (cfiCond61) DPL0 load(1, XDATA, add(CFA_XSP16, literal(-2)))
        CFI (cfiCond61) DPH0 load(1, XDATA, add(CFA_XSP16, literal(-1)))
        CFI (cfiCond61) CFA_SP SP+0
        CFI (cfiCond61) CFA_XSP16 add(XSP16, 15)
??Subroutine75_0:
        MOVX    @DPTR,A
        MOV     DPTR,#ProtectionLimitsExceeded
        MOVX    A,@DPTR
        RET
        CFI EndBlock cfiCond56
        CFI EndBlock cfiCond57
        CFI EndBlock cfiPicker58
        CFI EndBlock cfiCond59
        CFI EndBlock cfiCond60
        CFI EndBlock cfiCond61

        RSEG NEAR_CODE:CODE:NOROOT(0)
?Subroutine71:
        CFI Block cfiCond62 Using cfiCommon0
        CFI NoFunction
        CFI Conditional ??CrossCallReturnLabel_227
        CFI R6 load(1, XDATA, add(CFA_XSP16, literal(-15)))
        CFI VB load(1, XDATA, add(CFA_XSP16, literal(-14)))
        CFI V0 load(1, XDATA, add(CFA_XSP16, literal(-13)))
        CFI V1 load(1, XDATA, add(CFA_XSP16, literal(-12)))
        CFI V2 load(1, XDATA, add(CFA_XSP16, literal(-11)))
        CFI V3 load(1, XDATA, add(CFA_XSP16, literal(-10)))
        CFI V4 load(1, XDATA, add(CFA_XSP16, literal(-9)))
        CFI V5 load(1, XDATA, add(CFA_XSP16, literal(-8)))
        CFI V6 load(1, XDATA, add(CFA_XSP16, literal(-7)))
        CFI V7 load(1, XDATA, add(CFA_XSP16, literal(-6)))
        CFI R7 load(1, XDATA, add(CFA_XSP16, literal(-5)))
        CFI ?RET_LOW load(1, XDATA, add(CFA_XSP16, literal(-4)))
        CFI ?RET_HIGH load(1, XDATA, add(CFA_XSP16, literal(-3)))
        CFI DPL0 load(1, XDATA, add(CFA_XSP16, literal(-2)))
        CFI DPH0 load(1, XDATA, add(CFA_XSP16, literal(-1)))
        CFI CFA_SP SP+0
        CFI CFA_XSP16 add(XSP16, 15)
        CFI Block cfiCond63 Using cfiCommon0
        CFI (cfiCond63) NoFunction
        CFI (cfiCond63) Conditional ??CrossCallReturnLabel_228
        CFI (cfiCond63) R6 load(1, XDATA, add(CFA_XSP16, literal(-11)))
        CFI (cfiCond63) VB load(1, XDATA, add(CFA_XSP16, literal(-10)))
        CFI (cfiCond63) V0 load(1, XDATA, add(CFA_XSP16, literal(-9)))
        CFI (cfiCond63) V1 load(1, XDATA, add(CFA_XSP16, literal(-8)))
        CFI (cfiCond63) V2 load(1, XDATA, add(CFA_XSP16, literal(-7)))
        CFI (cfiCond63) V3 load(1, XDATA, add(CFA_XSP16, literal(-6)))
        CFI (cfiCond63) R7 load(1, XDATA, add(CFA_XSP16, literal(-5)))
        CFI (cfiCond63) ?RET_LOW load(1, XDATA, add(CFA_XSP16, literal(-4)))
        CFI (cfiCond63) ?RET_HIGH load(1, XDATA, add(CFA_XSP16, literal(-3)))
        CFI (cfiCond63) DPL0 load(1, XDATA, add(CFA_XSP16, literal(-2)))
        CFI (cfiCond63) DPH0 load(1, XDATA, add(CFA_XSP16, literal(-1)))
        CFI (cfiCond63) CFA_SP SP+0
        CFI (cfiCond63) CFA_XSP16 add(XSP16, 11)
        CFI Block cfiPicker64 Using cfiCommon1
        CFI (cfiPicker64) NoFunction
        CFI (cfiPicker64) Picker
        MOV     DPTR,#theOC
        CFI Block cfiCond65 Using cfiCommon0
        CFI (cfiCond65) NoFunction
        CFI (cfiCond65) Conditional ??CrossCallReturnLabel_229
        CFI (cfiCond65) R6 load(1, XDATA, add(CFA_XSP16, literal(-11)))
        CFI (cfiCond65) VB load(1, XDATA, add(CFA_XSP16, literal(-10)))
        CFI (cfiCond65) V0 load(1, XDATA, add(CFA_XSP16, literal(-9)))
        CFI (cfiCond65) V1 load(1, XDATA, add(CFA_XSP16, literal(-8)))
        CFI (cfiCond65) V2 load(1, XDATA, add(CFA_XSP16, literal(-7)))
        CFI (cfiCond65) V3 load(1, XDATA, add(CFA_XSP16, literal(-6)))
        CFI (cfiCond65) R7 load(1, XDATA, add(CFA_XSP16, literal(-5)))
        CFI (cfiCond65) ?RET_LOW load(1, XDATA, add(CFA_XSP16, literal(-4)))
        CFI (cfiCond65) ?RET_HIGH load(1, XDATA, add(CFA_XSP16, literal(-3)))
        CFI (cfiCond65) DPL0 load(1, XDATA, add(CFA_XSP16, literal(-2)))
        CFI (cfiCond65) DPH0 load(1, XDATA, add(CFA_XSP16, literal(-1)))
        CFI (cfiCond65) CFA_SP SP+0
        CFI (cfiCond65) CFA_XSP16 add(XSP16, 11)
??Subroutine71_0:
        MOVX    @DPTR,A
        ; Setup parameters for call to function oc2timer
        ; Setup parameters for call to function oc2timer
        ; Setup parameters for call to function oc2timer
        LCALL   ?Subroutine105
??CrossCallReturnLabel_331:
        RET
        CFI EndBlock cfiCond62
        CFI EndBlock cfiCond63
        CFI EndBlock cfiPicker64
        CFI EndBlock cfiCond65

        RSEG NEAR_CODE:CODE:NOROOT(0)
?Subroutine66:
        CFI Block cfiCond66 Using cfiCommon0
        CFI NoFunction
        CFI Conditional ??CrossCallReturnLabel_198
        CFI R6 load(1, XDATA, add(CFA_XSP16, literal(-15)))
        CFI VB load(1, XDATA, add(CFA_XSP16, literal(-14)))
        CFI V0 load(1, XDATA, add(CFA_XSP16, literal(-13)))
        CFI V1 load(1, XDATA, add(CFA_XSP16, literal(-12)))
        CFI V2 load(1, XDATA, add(CFA_XSP16, literal(-11)))
        CFI V3 load(1, XDATA, add(CFA_XSP16, literal(-10)))
        CFI V4 load(1, XDATA, add(CFA_XSP16, literal(-9)))
        CFI V5 load(1, XDATA, add(CFA_XSP16, literal(-8)))
        CFI V6 load(1, XDATA, add(CFA_XSP16, literal(-7)))
        CFI V7 load(1, XDATA, add(CFA_XSP16, literal(-6)))
        CFI R7 load(1, XDATA, add(CFA_XSP16, literal(-5)))
        CFI ?RET_LOW load(1, XDATA, add(CFA_XSP16, literal(-4)))
        CFI ?RET_HIGH load(1, XDATA, add(CFA_XSP16, literal(-3)))
        CFI DPL0 load(1, XDATA, add(CFA_XSP16, literal(-2)))
        CFI DPH0 load(1, XDATA, add(CFA_XSP16, literal(-1)))
        CFI CFA_SP SP+0
        CFI CFA_XSP16 add(XSP16, 15)
        CFI Block cfiCond67 Using cfiCommon0
        CFI (cfiCond67) NoFunction
        CFI (cfiCond67) Conditional ??CrossCallReturnLabel_199
        CFI (cfiCond67) R6 load(1, XDATA, add(CFA_XSP16, literal(-15)))
        CFI (cfiCond67) VB load(1, XDATA, add(CFA_XSP16, literal(-14)))
        CFI (cfiCond67) V0 load(1, XDATA, add(CFA_XSP16, literal(-13)))
        CFI (cfiCond67) V1 load(1, XDATA, add(CFA_XSP16, literal(-12)))
        CFI (cfiCond67) V2 load(1, XDATA, add(CFA_XSP16, literal(-11)))
        CFI (cfiCond67) V3 load(1, XDATA, add(CFA_XSP16, literal(-10)))
        CFI (cfiCond67) V4 load(1, XDATA, add(CFA_XSP16, literal(-9)))
        CFI (cfiCond67) V5 load(1, XDATA, add(CFA_XSP16, literal(-8)))
        CFI (cfiCond67) V6 load(1, XDATA, add(CFA_XSP16, literal(-7)))
        CFI (cfiCond67) V7 load(1, XDATA, add(CFA_XSP16, literal(-6)))
        CFI (cfiCond67) R7 load(1, XDATA, add(CFA_XSP16, literal(-5)))
        CFI (cfiCond67) ?RET_LOW load(1, XDATA, add(CFA_XSP16, literal(-4)))
        CFI (cfiCond67) ?RET_HIGH load(1, XDATA, add(CFA_XSP16, literal(-3)))
        CFI (cfiCond67) DPL0 load(1, XDATA, add(CFA_XSP16, literal(-2)))
        CFI (cfiCond67) DPH0 load(1, XDATA, add(CFA_XSP16, literal(-1)))
        CFI (cfiCond67) CFA_SP SP+0
        CFI (cfiCond67) CFA_XSP16 add(XSP16, 15)
        CFI Block cfiPicker68 Using cfiCommon1
        CFI (cfiPicker68) NoFunction
        CFI (cfiPicker68) Picker
        CLR     C
        SUBB    A,R2
        CLR     A
        LCALL   ?Subroutine103
??CrossCallReturnLabel_384:
        RET
        CFI EndBlock cfiCond66
        CFI EndBlock cfiCond67
        CFI EndBlock cfiPicker68

        RSEG NEAR_CODE:CODE:NOROOT(0)
?Subroutine103:
        CFI Block cfiCond69 Using cfiCommon0
        CFI NoFunction
        CFI Conditional ??CrossCallReturnLabel_382
        CFI R6 load(1, XDATA, add(CFA_XSP16, literal(-15)))
        CFI VB load(1, XDATA, add(CFA_XSP16, literal(-14)))
        CFI V0 load(1, XDATA, add(CFA_XSP16, literal(-13)))
        CFI V1 load(1, XDATA, add(CFA_XSP16, literal(-12)))
        CFI V2 load(1, XDATA, add(CFA_XSP16, literal(-11)))
        CFI V3 load(1, XDATA, add(CFA_XSP16, literal(-10)))
        CFI V4 load(1, XDATA, add(CFA_XSP16, literal(-9)))
        CFI V5 load(1, XDATA, add(CFA_XSP16, literal(-8)))
        CFI V6 load(1, XDATA, add(CFA_XSP16, literal(-7)))
        CFI V7 load(1, XDATA, add(CFA_XSP16, literal(-6)))
        CFI R7 load(1, XDATA, add(CFA_XSP16, literal(-5)))
        CFI ?RET_LOW load(1, XDATA, add(CFA_XSP16, literal(-4)))
        CFI ?RET_HIGH load(1, XDATA, add(CFA_XSP16, literal(-3)))
        CFI DPL0 load(1, XDATA, add(CFA_XSP16, literal(-2)))
        CFI DPH0 load(1, XDATA, add(CFA_XSP16, literal(-1)))
        CFI CFA_SP SP+0
        CFI CFA_XSP16 add(XSP16, 15)
        CFI Block cfiCond70 Using cfiCommon0
        CFI (cfiCond70) NoFunction
        CFI (cfiCond70) Conditional ??CrossCallReturnLabel_383
        CFI (cfiCond70) R6 load(1, XDATA, add(CFA_XSP16, literal(-15)))
        CFI (cfiCond70) VB load(1, XDATA, add(CFA_XSP16, literal(-14)))
        CFI (cfiCond70) V0 load(1, XDATA, add(CFA_XSP16, literal(-13)))
        CFI (cfiCond70) V1 load(1, XDATA, add(CFA_XSP16, literal(-12)))
        CFI (cfiCond70) V2 load(1, XDATA, add(CFA_XSP16, literal(-11)))
        CFI (cfiCond70) V3 load(1, XDATA, add(CFA_XSP16, literal(-10)))
        CFI (cfiCond70) V4 load(1, XDATA, add(CFA_XSP16, literal(-9)))
        CFI (cfiCond70) V5 load(1, XDATA, add(CFA_XSP16, literal(-8)))
        CFI (cfiCond70) V6 load(1, XDATA, add(CFA_XSP16, literal(-7)))
        CFI (cfiCond70) V7 load(1, XDATA, add(CFA_XSP16, literal(-6)))
        CFI (cfiCond70) R7 load(1, XDATA, add(CFA_XSP16, literal(-5)))
        CFI (cfiCond70) ?RET_LOW load(1, XDATA, add(CFA_XSP16, literal(-4)))
        CFI (cfiCond70) ?RET_HIGH load(1, XDATA, add(CFA_XSP16, literal(-3)))
        CFI (cfiCond70) DPL0 load(1, XDATA, add(CFA_XSP16, literal(-2)))
        CFI (cfiCond70) DPH0 load(1, XDATA, add(CFA_XSP16, literal(-1)))
        CFI (cfiCond70) CFA_SP SP+0
        CFI (cfiCond70) CFA_XSP16 add(XSP16, 15)
        CFI Block cfiCond71 Using cfiCommon0
        CFI (cfiCond71) NoFunction
        CFI (cfiCond71) Conditional ??CrossCallReturnLabel_384, ??CrossCallReturnLabel_198
        CFI (cfiCond71) R6 load(1, XDATA, add(CFA_XSP16, literal(-15)))
        CFI (cfiCond71) VB load(1, XDATA, add(CFA_XSP16, literal(-14)))
        CFI (cfiCond71) V0 load(1, XDATA, add(CFA_XSP16, literal(-13)))
        CFI (cfiCond71) V1 load(1, XDATA, add(CFA_XSP16, literal(-12)))
        CFI (cfiCond71) V2 load(1, XDATA, add(CFA_XSP16, literal(-11)))
        CFI (cfiCond71) V3 load(1, XDATA, add(CFA_XSP16, literal(-10)))
        CFI (cfiCond71) V4 load(1, XDATA, add(CFA_XSP16, literal(-9)))
        CFI (cfiCond71) V5 load(1, XDATA, add(CFA_XSP16, literal(-8)))
        CFI (cfiCond71) V6 load(1, XDATA, add(CFA_XSP16, literal(-7)))
        CFI (cfiCond71) V7 load(1, XDATA, add(CFA_XSP16, literal(-6)))
        CFI (cfiCond71) R7 load(1, XDATA, add(CFA_XSP16, literal(-5)))
        CFI (cfiCond71) ?RET_LOW load(1, XDATA, add(CFA_XSP16, literal(-4)))
        CFI (cfiCond71) ?RET_HIGH load(1, XDATA, add(CFA_XSP16, literal(-3)))
        CFI (cfiCond71) DPL0 load(1, XDATA, add(CFA_XSP16, literal(-2)))
        CFI (cfiCond71) DPH0 load(1, XDATA, add(CFA_XSP16, literal(-1)))
        CFI (cfiCond71) CFA_SP SP+0
        CFI (cfiCond71) CFA_XSP16 add(XSP16, 15)
        CFI Block cfiCond72 Using cfiCommon0
        CFI (cfiCond72) NoFunction
        CFI (cfiCond72) Conditional ??CrossCallReturnLabel_384, ??CrossCallReturnLabel_199
        CFI (cfiCond72) R6 load(1, XDATA, add(CFA_XSP16, literal(-15)))
        CFI (cfiCond72) VB load(1, XDATA, add(CFA_XSP16, literal(-14)))
        CFI (cfiCond72) V0 load(1, XDATA, add(CFA_XSP16, literal(-13)))
        CFI (cfiCond72) V1 load(1, XDATA, add(CFA_XSP16, literal(-12)))
        CFI (cfiCond72) V2 load(1, XDATA, add(CFA_XSP16, literal(-11)))
        CFI (cfiCond72) V3 load(1, XDATA, add(CFA_XSP16, literal(-10)))
        CFI (cfiCond72) V4 load(1, XDATA, add(CFA_XSP16, literal(-9)))
        CFI (cfiCond72) V5 load(1, XDATA, add(CFA_XSP16, literal(-8)))
        CFI (cfiCond72) V6 load(1, XDATA, add(CFA_XSP16, literal(-7)))
        CFI (cfiCond72) V7 load(1, XDATA, add(CFA_XSP16, literal(-6)))
        CFI (cfiCond72) R7 load(1, XDATA, add(CFA_XSP16, literal(-5)))
        CFI (cfiCond72) ?RET_LOW load(1, XDATA, add(CFA_XSP16, literal(-4)))
        CFI (cfiCond72) ?RET_HIGH load(1, XDATA, add(CFA_XSP16, literal(-3)))
        CFI (cfiCond72) DPL0 load(1, XDATA, add(CFA_XSP16, literal(-2)))
        CFI (cfiCond72) DPH0 load(1, XDATA, add(CFA_XSP16, literal(-1)))
        CFI (cfiCond72) CFA_SP SP+0
        CFI (cfiCond72) CFA_XSP16 add(XSP16, 15)
        CFI Block cfiPicker73 Using cfiCommon1
        CFI (cfiPicker73) NoFunction
        CFI (cfiPicker73) Picker
        SUBB    A,R3
        LJMP    ?Subroutine116
        CFI EndBlock cfiCond69
        CFI EndBlock cfiCond70
        CFI EndBlock cfiCond71
        CFI EndBlock cfiCond72
        CFI EndBlock cfiPicker73

        RSEG NEAR_CODE:CODE:NOROOT(0)
?Subroutine44:
        CFI Block cfiCond74 Using cfiCommon0
        CFI NoFunction
        CFI Conditional ??CrossCallReturnLabel_103
        CFI R6 load(1, XDATA, add(CFA_XSP16, literal(-15)))
        CFI VB load(1, XDATA, add(CFA_XSP16, literal(-14)))
        CFI V0 load(1, XDATA, add(CFA_XSP16, literal(-13)))
        CFI V1 load(1, XDATA, add(CFA_XSP16, literal(-12)))
        CFI V2 load(1, XDATA, add(CFA_XSP16, literal(-11)))
        CFI V3 load(1, XDATA, add(CFA_XSP16, literal(-10)))
        CFI V4 load(1, XDATA, add(CFA_XSP16, literal(-9)))
        CFI V5 load(1, XDATA, add(CFA_XSP16, literal(-8)))
        CFI V6 load(1, XDATA, add(CFA_XSP16, literal(-7)))
        CFI V7 load(1, XDATA, add(CFA_XSP16, literal(-6)))
        CFI R7 load(1, XDATA, add(CFA_XSP16, literal(-5)))
        CFI ?RET_LOW load(1, XDATA, add(CFA_XSP16, literal(-4)))
        CFI ?RET_HIGH load(1, XDATA, add(CFA_XSP16, literal(-3)))
        CFI DPL0 load(1, XDATA, add(CFA_XSP16, literal(-2)))
        CFI DPH0 load(1, XDATA, add(CFA_XSP16, literal(-1)))
        CFI CFA_SP SP+0
        CFI CFA_XSP16 add(XSP16, 15)
        CFI Block cfiCond75 Using cfiCommon0
        CFI (cfiCond75) NoFunction
        CFI (cfiCond75) Conditional ??CrossCallReturnLabel_104
        CFI (cfiCond75) R6 load(1, XDATA, add(CFA_XSP16, literal(-15)))
        CFI (cfiCond75) VB load(1, XDATA, add(CFA_XSP16, literal(-14)))
        CFI (cfiCond75) V0 load(1, XDATA, add(CFA_XSP16, literal(-13)))
        CFI (cfiCond75) V1 load(1, XDATA, add(CFA_XSP16, literal(-12)))
        CFI (cfiCond75) V2 load(1, XDATA, add(CFA_XSP16, literal(-11)))
        CFI (cfiCond75) V3 load(1, XDATA, add(CFA_XSP16, literal(-10)))
        CFI (cfiCond75) V4 load(1, XDATA, add(CFA_XSP16, literal(-9)))
        CFI (cfiCond75) V5 load(1, XDATA, add(CFA_XSP16, literal(-8)))
        CFI (cfiCond75) V6 load(1, XDATA, add(CFA_XSP16, literal(-7)))
        CFI (cfiCond75) V7 load(1, XDATA, add(CFA_XSP16, literal(-6)))
        CFI (cfiCond75) R7 load(1, XDATA, add(CFA_XSP16, literal(-5)))
        CFI (cfiCond75) ?RET_LOW load(1, XDATA, add(CFA_XSP16, literal(-4)))
        CFI (cfiCond75) ?RET_HIGH load(1, XDATA, add(CFA_XSP16, literal(-3)))
        CFI (cfiCond75) DPL0 load(1, XDATA, add(CFA_XSP16, literal(-2)))
        CFI (cfiCond75) DPH0 load(1, XDATA, add(CFA_XSP16, literal(-1)))
        CFI (cfiCond75) CFA_SP SP+0
        CFI (cfiCond75) CFA_XSP16 add(XSP16, 15)
        CFI Block cfiPicker76 Using cfiCommon1
        CFI (cfiPicker76) NoFunction
        CFI (cfiPicker76) Picker
        LCALL   ??Subroutine94_0
??CrossCallReturnLabel_393:
        MOV     A,R0
        CLR     C
        SUBB    A,R2
        MOV     R2,A
        MOV     A,R1
        SUBB    A,R3
        MOV     R3,A
        RET
        CFI EndBlock cfiCond74
        CFI EndBlock cfiCond75
        CFI EndBlock cfiPicker76

        RSEG NEAR_CODE:CODE:NOROOT(0)
?Subroutine34:
        CFI Block cfiCond77 Using cfiCommon0
        CFI NoFunction
        CFI Conditional ??CrossCallReturnLabel_84
        CFI R6 load(1, XDATA, add(CFA_XSP16, literal(-15)))
        CFI VB load(1, XDATA, add(CFA_XSP16, literal(-14)))
        CFI V0 load(1, XDATA, add(CFA_XSP16, literal(-13)))
        CFI V1 load(1, XDATA, add(CFA_XSP16, literal(-12)))
        CFI V2 load(1, XDATA, add(CFA_XSP16, literal(-11)))
        CFI V3 load(1, XDATA, add(CFA_XSP16, literal(-10)))
        CFI V4 load(1, XDATA, add(CFA_XSP16, literal(-9)))
        CFI V5 load(1, XDATA, add(CFA_XSP16, literal(-8)))
        CFI V6 load(1, XDATA, add(CFA_XSP16, literal(-7)))
        CFI V7 load(1, XDATA, add(CFA_XSP16, literal(-6)))
        CFI R7 load(1, XDATA, add(CFA_XSP16, literal(-5)))
        CFI ?RET_LOW load(1, XDATA, add(CFA_XSP16, literal(-4)))
        CFI ?RET_HIGH load(1, XDATA, add(CFA_XSP16, literal(-3)))
        CFI DPL0 load(1, XDATA, add(CFA_XSP16, literal(-2)))
        CFI DPH0 load(1, XDATA, add(CFA_XSP16, literal(-1)))
        CFI CFA_SP SP+0
        CFI CFA_XSP16 add(XSP16, 15)
        CFI Block cfiCond78 Using cfiCommon0
        CFI (cfiCond78) NoFunction
        CFI (cfiCond78) Conditional ??CrossCallReturnLabel_85
        CFI (cfiCond78) R6 load(1, XDATA, add(CFA_XSP16, literal(-11)))
        CFI (cfiCond78) VB load(1, XDATA, add(CFA_XSP16, literal(-10)))
        CFI (cfiCond78) V0 load(1, XDATA, add(CFA_XSP16, literal(-9)))
        CFI (cfiCond78) V1 load(1, XDATA, add(CFA_XSP16, literal(-8)))
        CFI (cfiCond78) V2 load(1, XDATA, add(CFA_XSP16, literal(-7)))
        CFI (cfiCond78) V3 load(1, XDATA, add(CFA_XSP16, literal(-6)))
        CFI (cfiCond78) R7 load(1, XDATA, add(CFA_XSP16, literal(-5)))
        CFI (cfiCond78) ?RET_LOW load(1, XDATA, add(CFA_XSP16, literal(-4)))
        CFI (cfiCond78) ?RET_HIGH load(1, XDATA, add(CFA_XSP16, literal(-3)))
        CFI (cfiCond78) DPL0 load(1, XDATA, add(CFA_XSP16, literal(-2)))
        CFI (cfiCond78) DPH0 load(1, XDATA, add(CFA_XSP16, literal(-1)))
        CFI (cfiCond78) CFA_SP SP+0
        CFI (cfiCond78) CFA_XSP16 add(XSP16, 11)
        CFI Block cfiPicker79 Using cfiCommon1
        CFI (cfiPicker79) NoFunction
        CFI (cfiPicker79) Picker
        MOVX    @DPTR,A
        CFI Block cfiCond80 Using cfiCommon0
        CFI (cfiCond80) NoFunction
        CFI (cfiCond80) Conditional ??CrossCallReturnLabel_86
        CFI (cfiCond80) R6 load(1, XDATA, add(CFA_XSP16, literal(-19)))
        CFI (cfiCond80) VB load(1, XDATA, add(CFA_XSP16, literal(-18)))
        CFI (cfiCond80) V0 load(1, XDATA, add(CFA_XSP16, literal(-17)))
        CFI (cfiCond80) V1 load(1, XDATA, add(CFA_XSP16, literal(-16)))
        CFI (cfiCond80) V2 load(1, XDATA, add(CFA_XSP16, literal(-15)))
        CFI (cfiCond80) V3 load(1, XDATA, add(CFA_XSP16, literal(-14)))
        CFI (cfiCond80) V4 load(1, XDATA, add(CFA_XSP16, literal(-13)))
        CFI (cfiCond80) V5 load(1, XDATA, add(CFA_XSP16, literal(-12)))
        CFI (cfiCond80) V6 load(1, XDATA, add(CFA_XSP16, literal(-11)))
        CFI (cfiCond80) V7 load(1, XDATA, add(CFA_XSP16, literal(-10)))
        CFI (cfiCond80) V8 load(1, XDATA, add(CFA_XSP16, literal(-9)))
        CFI (cfiCond80) V9 load(1, XDATA, add(CFA_XSP16, literal(-8)))
        CFI (cfiCond80) V10 load(1, XDATA, add(CFA_XSP16, literal(-7)))
        CFI (cfiCond80) V11 load(1, XDATA, add(CFA_XSP16, literal(-6)))
        CFI (cfiCond80) R7 load(1, XDATA, add(CFA_XSP16, literal(-5)))
        CFI (cfiCond80) ?RET_LOW load(1, XDATA, add(CFA_XSP16, literal(-4)))
        CFI (cfiCond80) ?RET_HIGH load(1, XDATA, add(CFA_XSP16, literal(-3)))
        CFI (cfiCond80) DPL0 load(1, XDATA, add(CFA_XSP16, literal(-2)))
        CFI (cfiCond80) DPH0 load(1, XDATA, add(CFA_XSP16, literal(-1)))
        CFI (cfiCond80) CFA_SP SP+0
        CFI (cfiCond80) CFA_XSP16 add(XSP16, 19)
        ; Setup parameters for call to function oc2timer
        ; Setup parameters for call to function oc2timer
??Subroutine34_0:
        MOV     DPTR,#theOC
        MOVX    A,@DPTR
        LCALL   ?Subroutine105
??CrossCallReturnLabel_332:
        RET
        CFI EndBlock cfiCond77
        CFI EndBlock cfiCond78
        CFI EndBlock cfiPicker79
        CFI EndBlock cfiCond80

        RSEG NEAR_CODE:CODE:NOROOT(0)
?Subroutine105:
        CFI Block cfiCond81 Using cfiCommon0
        CFI NoFunction
        CFI Conditional ??CrossCallReturnLabel_330
        CFI R6 load(1, XDATA, add(CFA_XSP16, literal(-15)))
        CFI VB load(1, XDATA, add(CFA_XSP16, literal(-14)))
        CFI V0 load(1, XDATA, add(CFA_XSP16, literal(-13)))
        CFI V1 load(1, XDATA, add(CFA_XSP16, literal(-12)))
        CFI V2 load(1, XDATA, add(CFA_XSP16, literal(-11)))
        CFI V3 load(1, XDATA, add(CFA_XSP16, literal(-10)))
        CFI V4 load(1, XDATA, add(CFA_XSP16, literal(-9)))
        CFI V5 load(1, XDATA, add(CFA_XSP16, literal(-8)))
        CFI V6 load(1, XDATA, add(CFA_XSP16, literal(-7)))
        CFI V7 load(1, XDATA, add(CFA_XSP16, literal(-6)))
        CFI R7 load(1, XDATA, add(CFA_XSP16, literal(-5)))
        CFI ?RET_LOW load(1, XDATA, add(CFA_XSP16, literal(-4)))
        CFI ?RET_HIGH load(1, XDATA, add(CFA_XSP16, literal(-3)))
        CFI DPL0 load(1, XDATA, add(CFA_XSP16, literal(-2)))
        CFI DPH0 load(1, XDATA, add(CFA_XSP16, literal(-1)))
        CFI CFA_SP SP+0
        CFI CFA_XSP16 add(XSP16, 15)
        CFI Block cfiCond82 Using cfiCommon0
        CFI (cfiCond82) NoFunction
        CFI (cfiCond82) Conditional ??CrossCallReturnLabel_331, ??CrossCallReturnLabel_227
        CFI (cfiCond82) R6 load(1, XDATA, add(CFA_XSP16, literal(-15)))
        CFI (cfiCond82) VB load(1, XDATA, add(CFA_XSP16, literal(-14)))
        CFI (cfiCond82) V0 load(1, XDATA, add(CFA_XSP16, literal(-13)))
        CFI (cfiCond82) V1 load(1, XDATA, add(CFA_XSP16, literal(-12)))
        CFI (cfiCond82) V2 load(1, XDATA, add(CFA_XSP16, literal(-11)))
        CFI (cfiCond82) V3 load(1, XDATA, add(CFA_XSP16, literal(-10)))
        CFI (cfiCond82) V4 load(1, XDATA, add(CFA_XSP16, literal(-9)))
        CFI (cfiCond82) V5 load(1, XDATA, add(CFA_XSP16, literal(-8)))
        CFI (cfiCond82) V6 load(1, XDATA, add(CFA_XSP16, literal(-7)))
        CFI (cfiCond82) V7 load(1, XDATA, add(CFA_XSP16, literal(-6)))
        CFI (cfiCond82) R7 load(1, XDATA, add(CFA_XSP16, literal(-5)))
        CFI (cfiCond82) ?RET_LOW load(1, XDATA, add(CFA_XSP16, literal(-4)))
        CFI (cfiCond82) ?RET_HIGH load(1, XDATA, add(CFA_XSP16, literal(-3)))
        CFI (cfiCond82) DPL0 load(1, XDATA, add(CFA_XSP16, literal(-2)))
        CFI (cfiCond82) DPH0 load(1, XDATA, add(CFA_XSP16, literal(-1)))
        CFI (cfiCond82) CFA_SP SP+0
        CFI (cfiCond82) CFA_XSP16 add(XSP16, 15)
        CFI Block cfiCond83 Using cfiCommon0
        CFI (cfiCond83) NoFunction
        CFI (cfiCond83) Conditional ??CrossCallReturnLabel_331, ??CrossCallReturnLabel_228
        CFI (cfiCond83) R6 load(1, XDATA, add(CFA_XSP16, literal(-11)))
        CFI (cfiCond83) VB load(1, XDATA, add(CFA_XSP16, literal(-10)))
        CFI (cfiCond83) V0 load(1, XDATA, add(CFA_XSP16, literal(-9)))
        CFI (cfiCond83) V1 load(1, XDATA, add(CFA_XSP16, literal(-8)))
        CFI (cfiCond83) V2 load(1, XDATA, add(CFA_XSP16, literal(-7)))
        CFI (cfiCond83) V3 load(1, XDATA, add(CFA_XSP16, literal(-6)))
        CFI (cfiCond83) R7 load(1, XDATA, add(CFA_XSP16, literal(-5)))
        CFI (cfiCond83) ?RET_LOW load(1, XDATA, add(CFA_XSP16, literal(-4)))
        CFI (cfiCond83) ?RET_HIGH load(1, XDATA, add(CFA_XSP16, literal(-3)))
        CFI (cfiCond83) DPL0 load(1, XDATA, add(CFA_XSP16, literal(-2)))
        CFI (cfiCond83) DPH0 load(1, XDATA, add(CFA_XSP16, literal(-1)))
        CFI (cfiCond83) CFA_SP SP+0
        CFI (cfiCond83) CFA_XSP16 add(XSP16, 11)
        CFI Block cfiCond84 Using cfiCommon0
        CFI (cfiCond84) NoFunction
        CFI (cfiCond84) Conditional ??CrossCallReturnLabel_331, ??CrossCallReturnLabel_229
        CFI (cfiCond84) R6 load(1, XDATA, add(CFA_XSP16, literal(-11)))
        CFI (cfiCond84) VB load(1, XDATA, add(CFA_XSP16, literal(-10)))
        CFI (cfiCond84) V0 load(1, XDATA, add(CFA_XSP16, literal(-9)))
        CFI (cfiCond84) V1 load(1, XDATA, add(CFA_XSP16, literal(-8)))
        CFI (cfiCond84) V2 load(1, XDATA, add(CFA_XSP16, literal(-7)))
        CFI (cfiCond84) V3 load(1, XDATA, add(CFA_XSP16, literal(-6)))
        CFI (cfiCond84) R7 load(1, XDATA, add(CFA_XSP16, literal(-5)))
        CFI (cfiCond84) ?RET_LOW load(1, XDATA, add(CFA_XSP16, literal(-4)))
        CFI (cfiCond84) ?RET_HIGH load(1, XDATA, add(CFA_XSP16, literal(-3)))
        CFI (cfiCond84) DPL0 load(1, XDATA, add(CFA_XSP16, literal(-2)))
        CFI (cfiCond84) DPH0 load(1, XDATA, add(CFA_XSP16, literal(-1)))
        CFI (cfiCond84) CFA_SP SP+0
        CFI (cfiCond84) CFA_XSP16 add(XSP16, 11)
        CFI Block cfiCond85 Using cfiCommon0
        CFI (cfiCond85) NoFunction
        CFI (cfiCond85) Conditional ??CrossCallReturnLabel_332, ??CrossCallReturnLabel_84
        CFI (cfiCond85) R6 load(1, XDATA, add(CFA_XSP16, literal(-15)))
        CFI (cfiCond85) VB load(1, XDATA, add(CFA_XSP16, literal(-14)))
        CFI (cfiCond85) V0 load(1, XDATA, add(CFA_XSP16, literal(-13)))
        CFI (cfiCond85) V1 load(1, XDATA, add(CFA_XSP16, literal(-12)))
        CFI (cfiCond85) V2 load(1, XDATA, add(CFA_XSP16, literal(-11)))
        CFI (cfiCond85) V3 load(1, XDATA, add(CFA_XSP16, literal(-10)))
        CFI (cfiCond85) V4 load(1, XDATA, add(CFA_XSP16, literal(-9)))
        CFI (cfiCond85) V5 load(1, XDATA, add(CFA_XSP16, literal(-8)))
        CFI (cfiCond85) V6 load(1, XDATA, add(CFA_XSP16, literal(-7)))
        CFI (cfiCond85) V7 load(1, XDATA, add(CFA_XSP16, literal(-6)))
        CFI (cfiCond85) R7 load(1, XDATA, add(CFA_XSP16, literal(-5)))
        CFI (cfiCond85) ?RET_LOW load(1, XDATA, add(CFA_XSP16, literal(-4)))
        CFI (cfiCond85) ?RET_HIGH load(1, XDATA, add(CFA_XSP16, literal(-3)))
        CFI (cfiCond85) DPL0 load(1, XDATA, add(CFA_XSP16, literal(-2)))
        CFI (cfiCond85) DPH0 load(1, XDATA, add(CFA_XSP16, literal(-1)))
        CFI (cfiCond85) CFA_SP SP+0
        CFI (cfiCond85) CFA_XSP16 add(XSP16, 15)
        CFI Block cfiCond86 Using cfiCommon0
        CFI (cfiCond86) NoFunction
        CFI (cfiCond86) Conditional ??CrossCallReturnLabel_332, ??CrossCallReturnLabel_85
        CFI (cfiCond86) R6 load(1, XDATA, add(CFA_XSP16, literal(-11)))
        CFI (cfiCond86) VB load(1, XDATA, add(CFA_XSP16, literal(-10)))
        CFI (cfiCond86) V0 load(1, XDATA, add(CFA_XSP16, literal(-9)))
        CFI (cfiCond86) V1 load(1, XDATA, add(CFA_XSP16, literal(-8)))
        CFI (cfiCond86) V2 load(1, XDATA, add(CFA_XSP16, literal(-7)))
        CFI (cfiCond86) V3 load(1, XDATA, add(CFA_XSP16, literal(-6)))
        CFI (cfiCond86) R7 load(1, XDATA, add(CFA_XSP16, literal(-5)))
        CFI (cfiCond86) ?RET_LOW load(1, XDATA, add(CFA_XSP16, literal(-4)))
        CFI (cfiCond86) ?RET_HIGH load(1, XDATA, add(CFA_XSP16, literal(-3)))
        CFI (cfiCond86) DPL0 load(1, XDATA, add(CFA_XSP16, literal(-2)))
        CFI (cfiCond86) DPH0 load(1, XDATA, add(CFA_XSP16, literal(-1)))
        CFI (cfiCond86) CFA_SP SP+0
        CFI (cfiCond86) CFA_XSP16 add(XSP16, 11)
        CFI Block cfiCond87 Using cfiCommon0
        CFI (cfiCond87) NoFunction
        CFI (cfiCond87) Conditional ??CrossCallReturnLabel_332, ??CrossCallReturnLabel_86
        CFI (cfiCond87) R6 load(1, XDATA, add(CFA_XSP16, literal(-19)))
        CFI (cfiCond87) VB load(1, XDATA, add(CFA_XSP16, literal(-18)))
        CFI (cfiCond87) V0 load(1, XDATA, add(CFA_XSP16, literal(-17)))
        CFI (cfiCond87) V1 load(1, XDATA, add(CFA_XSP16, literal(-16)))
        CFI (cfiCond87) V2 load(1, XDATA, add(CFA_XSP16, literal(-15)))
        CFI (cfiCond87) V3 load(1, XDATA, add(CFA_XSP16, literal(-14)))
        CFI (cfiCond87) V4 load(1, XDATA, add(CFA_XSP16, literal(-13)))
        CFI (cfiCond87) V5 load(1, XDATA, add(CFA_XSP16, literal(-12)))
        CFI (cfiCond87) V6 load(1, XDATA, add(CFA_XSP16, literal(-11)))
        CFI (cfiCond87) V7 load(1, XDATA, add(CFA_XSP16, literal(-10)))
        CFI (cfiCond87) V8 load(1, XDATA, add(CFA_XSP16, literal(-9)))
        CFI (cfiCond87) V9 load(1, XDATA, add(CFA_XSP16, literal(-8)))
        CFI (cfiCond87) V10 load(1, XDATA, add(CFA_XSP16, literal(-7)))
        CFI (cfiCond87) V11 load(1, XDATA, add(CFA_XSP16, literal(-6)))
        CFI (cfiCond87) R7 load(1, XDATA, add(CFA_XSP16, literal(-5)))
        CFI (cfiCond87) ?RET_LOW load(1, XDATA, add(CFA_XSP16, literal(-4)))
        CFI (cfiCond87) ?RET_HIGH load(1, XDATA, add(CFA_XSP16, literal(-3)))
        CFI (cfiCond87) DPL0 load(1, XDATA, add(CFA_XSP16, literal(-2)))
        CFI (cfiCond87) DPH0 load(1, XDATA, add(CFA_XSP16, literal(-1)))
        CFI (cfiCond87) CFA_SP SP+0
        CFI (cfiCond87) CFA_XSP16 add(XSP16, 19)
        CFI Block cfiPicker88 Using cfiCommon1
        CFI (cfiPicker88) NoFunction
        CFI (cfiPicker88) Picker
        MOV     R1,A
        CFI Block cfiCond89 Using cfiCommon0
        CFI (cfiCond89) NoFunction
        CFI (cfiCond89) Conditional ??CrossCallReturnLabel_333
??Subroutine105_0:
        LCALL   oc2timer
        MOV     A,R1
        MOV     0xcf,A
        RET
        CFI EndBlock cfiCond81
        CFI EndBlock cfiCond82
        CFI EndBlock cfiCond83
        CFI EndBlock cfiCond84
        CFI EndBlock cfiCond85
        CFI EndBlock cfiCond86
        CFI EndBlock cfiCond87
        CFI EndBlock cfiPicker88
        CFI EndBlock cfiCond89

        RSEG NEAR_CODE:CODE:NOROOT(0)
?Subroutine4:
        CFI Block cfiCond90 Using cfiCommon0
        CFI NoFunction
        CFI Conditional ??CrossCallReturnLabel_13
        CFI R6 load(1, XDATA, add(CFA_XSP16, literal(-15)))
        CFI VB load(1, XDATA, add(CFA_XSP16, literal(-14)))
        CFI V0 load(1, XDATA, add(CFA_XSP16, literal(-13)))
        CFI V1 load(1, XDATA, add(CFA_XSP16, literal(-12)))
        CFI V2 load(1, XDATA, add(CFA_XSP16, literal(-11)))
        CFI V3 load(1, XDATA, add(CFA_XSP16, literal(-10)))
        CFI V4 load(1, XDATA, add(CFA_XSP16, literal(-9)))
        CFI V5 load(1, XDATA, add(CFA_XSP16, literal(-8)))
        CFI V6 load(1, XDATA, add(CFA_XSP16, literal(-7)))
        CFI V7 load(1, XDATA, add(CFA_XSP16, literal(-6)))
        CFI R7 load(1, XDATA, add(CFA_XSP16, literal(-5)))
        CFI ?RET_LOW load(1, XDATA, add(CFA_XSP16, literal(-4)))
        CFI ?RET_HIGH load(1, XDATA, add(CFA_XSP16, literal(-3)))
        CFI DPL0 load(1, XDATA, add(CFA_XSP16, literal(-2)))
        CFI DPH0 load(1, XDATA, add(CFA_XSP16, literal(-1)))
        CFI CFA_SP SP+0
        CFI CFA_XSP16 add(XSP16, 15)
        CFI Block cfiCond91 Using cfiCommon0
        CFI (cfiCond91) NoFunction
        CFI (cfiCond91) Conditional ??CrossCallReturnLabel_14
        CFI (cfiCond91) R6 load(1, XDATA, add(CFA_XSP16, literal(-15)))
        CFI (cfiCond91) VB load(1, XDATA, add(CFA_XSP16, literal(-14)))
        CFI (cfiCond91) V0 load(1, XDATA, add(CFA_XSP16, literal(-13)))
        CFI (cfiCond91) V1 load(1, XDATA, add(CFA_XSP16, literal(-12)))
        CFI (cfiCond91) V2 load(1, XDATA, add(CFA_XSP16, literal(-11)))
        CFI (cfiCond91) V3 load(1, XDATA, add(CFA_XSP16, literal(-10)))
        CFI (cfiCond91) V4 load(1, XDATA, add(CFA_XSP16, literal(-9)))
        CFI (cfiCond91) V5 load(1, XDATA, add(CFA_XSP16, literal(-8)))
        CFI (cfiCond91) V6 load(1, XDATA, add(CFA_XSP16, literal(-7)))
        CFI (cfiCond91) V7 load(1, XDATA, add(CFA_XSP16, literal(-6)))
        CFI (cfiCond91) R7 load(1, XDATA, add(CFA_XSP16, literal(-5)))
        CFI (cfiCond91) ?RET_LOW load(1, XDATA, add(CFA_XSP16, literal(-4)))
        CFI (cfiCond91) ?RET_HIGH load(1, XDATA, add(CFA_XSP16, literal(-3)))
        CFI (cfiCond91) DPL0 load(1, XDATA, add(CFA_XSP16, literal(-2)))
        CFI (cfiCond91) DPH0 load(1, XDATA, add(CFA_XSP16, literal(-1)))
        CFI (cfiCond91) CFA_SP SP+0
        CFI (cfiCond91) CFA_XSP16 add(XSP16, 15)
        CFI Block cfiCond92 Using cfiCommon0
        CFI (cfiCond92) NoFunction
        CFI (cfiCond92) Conditional ??CrossCallReturnLabel_15
        CFI (cfiCond92) R6 load(1, XDATA, add(CFA_XSP16, literal(-15)))
        CFI (cfiCond92) VB load(1, XDATA, add(CFA_XSP16, literal(-14)))
        CFI (cfiCond92) V0 load(1, XDATA, add(CFA_XSP16, literal(-13)))
        CFI (cfiCond92) V1 load(1, XDATA, add(CFA_XSP16, literal(-12)))
        CFI (cfiCond92) V2 load(1, XDATA, add(CFA_XSP16, literal(-11)))
        CFI (cfiCond92) V3 load(1, XDATA, add(CFA_XSP16, literal(-10)))
        CFI (cfiCond92) V4 load(1, XDATA, add(CFA_XSP16, literal(-9)))
        CFI (cfiCond92) V5 load(1, XDATA, add(CFA_XSP16, literal(-8)))
        CFI (cfiCond92) V6 load(1, XDATA, add(CFA_XSP16, literal(-7)))
        CFI (cfiCond92) V7 load(1, XDATA, add(CFA_XSP16, literal(-6)))
        CFI (cfiCond92) R7 load(1, XDATA, add(CFA_XSP16, literal(-5)))
        CFI (cfiCond92) ?RET_LOW load(1, XDATA, add(CFA_XSP16, literal(-4)))
        CFI (cfiCond92) ?RET_HIGH load(1, XDATA, add(CFA_XSP16, literal(-3)))
        CFI (cfiCond92) DPL0 load(1, XDATA, add(CFA_XSP16, literal(-2)))
        CFI (cfiCond92) DPH0 load(1, XDATA, add(CFA_XSP16, literal(-1)))
        CFI (cfiCond92) CFA_SP SP+0
        CFI (cfiCond92) CFA_XSP16 add(XSP16, 15)
        CFI Block cfiCond93 Using cfiCommon0
        CFI (cfiCond93) NoFunction
        CFI (cfiCond93) Conditional ??CrossCallReturnLabel_16
        CFI (cfiCond93) R6 load(1, XDATA, add(CFA_XSP16, literal(-15)))
        CFI (cfiCond93) VB load(1, XDATA, add(CFA_XSP16, literal(-14)))
        CFI (cfiCond93) V0 load(1, XDATA, add(CFA_XSP16, literal(-13)))
        CFI (cfiCond93) V1 load(1, XDATA, add(CFA_XSP16, literal(-12)))
        CFI (cfiCond93) V2 load(1, XDATA, add(CFA_XSP16, literal(-11)))
        CFI (cfiCond93) V3 load(1, XDATA, add(CFA_XSP16, literal(-10)))
        CFI (cfiCond93) V4 load(1, XDATA, add(CFA_XSP16, literal(-9)))
        CFI (cfiCond93) V5 load(1, XDATA, add(CFA_XSP16, literal(-8)))
        CFI (cfiCond93) V6 load(1, XDATA, add(CFA_XSP16, literal(-7)))
        CFI (cfiCond93) V7 load(1, XDATA, add(CFA_XSP16, literal(-6)))
        CFI (cfiCond93) R7 load(1, XDATA, add(CFA_XSP16, literal(-5)))
        CFI (cfiCond93) ?RET_LOW load(1, XDATA, add(CFA_XSP16, literal(-4)))
        CFI (cfiCond93) ?RET_HIGH load(1, XDATA, add(CFA_XSP16, literal(-3)))
        CFI (cfiCond93) DPL0 load(1, XDATA, add(CFA_XSP16, literal(-2)))
        CFI (cfiCond93) DPH0 load(1, XDATA, add(CFA_XSP16, literal(-1)))
        CFI (cfiCond93) CFA_SP SP+0
        CFI (cfiCond93) CFA_XSP16 add(XSP16, 15)
        CFI Block cfiPicker94 Using cfiCommon1
        CFI (cfiPicker94) NoFunction
        CFI (cfiPicker94) Picker
        MOVX    A,@DPTR
        MOV     ?V0 + 0,A
        INC     DPTR
        MOVX    A,@DPTR
        MOV     ?V0 + 1,A
        MOV     ?V0 + 2,#0x0
        MOV     ?V0 + 3,#0x0
        MOV     R0,#?V0 + 0
        RET
        CFI EndBlock cfiCond90
        CFI EndBlock cfiCond91
        CFI EndBlock cfiCond92
        CFI EndBlock cfiCond93
        CFI EndBlock cfiPicker94

        RSEG XDATA_Z:XDATA:NOROOT(0)
??currentFETTickCount:
        DS 2
        REQUIRE __INIT_XDATA_Z

        RSEG XDATA_Z:XDATA:NOROOT(0)
??protectionModuleOffTimer:
        DS 2
        REQUIRE __INIT_XDATA_Z
// 1000 

        RSEG NEAR_CODE:CODE:NOROOT(0)
// 1001 BOOL checkItOut( BOOL *flag_ptr ){
checkItOut:
        CFI Block cfiBlock95 Using cfiCommon0
        CFI Function checkItOut
        PUSH    DPL
        CFI DPL0 Frame(CFA_SP, 3)
        CFI CFA_SP SP+-3
        PUSH    DPH
        CFI DPH0 Frame(CFA_SP, 4)
        CFI CFA_SP SP+-4
        ; Saved register size: 2
        ; Auto size: 0
// 1002   if( *flag_ptr ){ *flag_ptr = FALSE; return TRUE; }
        MOV     DPL,R2
        MOV     DPH,R3
        MOVX    A,@DPTR
        JZ      ??checkItOut_0
        CLR     A
        MOVX    @DPTR,A
        MOV     R1,#0x1
        SJMP    ??checkItOut_1
// 1003   return FALSE;
??checkItOut_0:
        MOV     R1,#0x0
??checkItOut_1:
        LJMP    ??Subroutine115_0
        CFI EndBlock cfiBlock95
// 1004 }

        RSEG XDATA_Z:XDATA:NOROOT(0)
// 1005 UINT16 *ptr2RunningTick = NULL;
ptr2RunningTick:
        DS 2
        REQUIRE __INIT_XDATA_Z
// 1006 

        RSEG NEAR_CODE:CODE:NOROOT(0)
// 1007 UINT16 computeTI(UINT16 _pt)
computeTI:
        CFI Block cfiBlock96 Using cfiCommon0
        CFI Function computeTI
// 1008 //    { return ( ( _pt <= (*ptr2RunningTick) ) ? ((*ptr2RunningTick) - _pt) : ((*ptr2RunningTick) + (65535 - _pt)) ); } 
// 1009       { return ( ( (_pt&0xFF) <= *((BYTE *)0xF538) ) ? (*((BYTE *)0xF538) - (0xFF&_pt)) : (*((BYTE *)0xF538) + (255 - (0xFF&_pt))) ); } 
        PUSH    DPL
        CFI DPL0 Frame(CFA_SP, 3)
        CFI CFA_SP SP+-3
        PUSH    DPH
        CFI DPH0 Frame(CFA_SP, 4)
        CFI CFA_SP SP+-4
        ; Saved register size: 2
        ; Auto size: 0
        MOV     A,#-0x1
        ANL     A,R2
        MOV     R0,A
        MOV     DPTR,#-0xac8
        MOVX    A,@DPTR
        CLR     C
        SUBB    A,R2
        MOVX    A,@DPTR
        JC      ??computeTI_0
        CLR     C
        SUBB    A,R0
        MOV     R2,A
        CLR     A
        SJMP    ??computeTI_1
??computeTI_0:
        MOV     R2,A
        MOV     A,#-0x1
        ADD     A,R2
        DEC     R2
        CLR     A
        ADDC    A,#0x0
        MOV     R3,A
        MOV     A,R2
        SUBB    A,R0
        MOV     R2,A
        MOV     A,R3
??computeTI_1:
        SUBB    A,#0x0
        MOV     R3,A
        LJMP    ??Subroutine115_0
        CFI EndBlock cfiBlock96

        RSEG NEAR_CODE:CODE:NOROOT(0)
// 1010 void tickWait(BYTE wait){ 
tickWait:
        CFI Block cfiBlock97 Using cfiCommon0
        CFI Function tickWait
        MOV     A,#-0x9
        LCALL   ?FUNC_ENTER_XDATA
        CFI DPH0 load(1, XDATA, add(CFA_XSP16, literal(-1)))
        CFI DPL0 load(1, XDATA, add(CFA_XSP16, literal(-2)))
        CFI ?RET_HIGH load(1, XDATA, add(CFA_XSP16, literal(-3)))
        CFI ?RET_LOW load(1, XDATA, add(CFA_XSP16, literal(-4)))
        CFI R7 load(1, XDATA, add(CFA_XSP16, literal(-5)))
        CFI V1 load(1, XDATA, add(CFA_XSP16, literal(-6)))
        CFI V0 load(1, XDATA, add(CFA_XSP16, literal(-7)))
        CFI VB load(1, XDATA, add(CFA_XSP16, literal(-8)))
        CFI R6 load(1, XDATA, add(CFA_XSP16, literal(-9)))
        CFI CFA_SP SP+0
        CFI CFA_XSP16 add(XSP16, 9)
        ; Saved register size: 9
        ; Auto size: 0
// 1011     ticks[ TickWait ] = ( (INT16)wait ) + 1; //(reset of watchdog should be only in one place)
        MOV     DPTR,#ticks
        MOVX    A,@DPTR
        ADD     A,#0x1c
        MOV     R2,A
        INC     DPTR
        MOVX    A,@DPTR
        ADDC    A,#0x0
        MOV     R3,A
        MOV     ?V0 + 0,R1
        MOV     A,#0x1
        ADD     A,?V0 + 0
        MOV     R0,A
        CLR     A
        ADDC    A,#0x0
        MOV     R1,A
        MOV     DPL,R2
        MOV     DPH,R3
        LCALL   ??Subroutine67_0
??CrossCallReturnLabel_204:
        SJMP    ??tickWait_0
// 1012     while( ticks[ TickWait ] > 0 ){ P1_2 ^= 1; };//{ WDCTL = 0xA8;  WDCTL = 0x58; *((BYTE *)0xFFFF) = 0x10; } 
??tickWait_1:
        XRL     0x90,#0x4
        MOV     A,0x90
??tickWait_0:
        MOV     DPL,R2
        MOV     DPH,R3
        CLR     C
        MOVX    A,@DPTR
        SUBB    A,#0x1
        INC     DPTR
        MOVX    A,@DPTR
        SUBB    A,#0x0
        CLR     C
        XRL     A,PSW
        RLC     A
        JNC     ??tickWait_1
// 1013     ticks[ TickWait ] = 0;
        MOV     DPL,R2
        MOV     DPH,R3
        CLR     A
        MOVX    @DPTR,A
        INC     DPTR
        SJMP    ?Subroutine122
        CFI EndBlock cfiBlock97
        REQUIRE _A_P1
// 1014 }
// 1015 

        RSEG NEAR_CODE:CODE:NOROOT(0)
// 1016 void checkMore(){
checkMore:
        CFI Block cfiBlock98 Using cfiCommon0
        CFI Function checkMore
        MOV     A,#-0x9
        LCALL   ?FUNC_ENTER_XDATA
        CFI DPH0 load(1, XDATA, add(CFA_XSP16, literal(-1)))
        CFI DPL0 load(1, XDATA, add(CFA_XSP16, literal(-2)))
        CFI ?RET_HIGH load(1, XDATA, add(CFA_XSP16, literal(-3)))
        CFI ?RET_LOW load(1, XDATA, add(CFA_XSP16, literal(-4)))
        CFI R7 load(1, XDATA, add(CFA_XSP16, literal(-5)))
        CFI V1 load(1, XDATA, add(CFA_XSP16, literal(-6)))
        CFI V0 load(1, XDATA, add(CFA_XSP16, literal(-7)))
        CFI VB load(1, XDATA, add(CFA_XSP16, literal(-8)))
        CFI R6 load(1, XDATA, add(CFA_XSP16, literal(-9)))
        CFI CFA_SP SP+0
        CFI CFA_XSP16 add(XSP16, 9)
        ; Saved register size: 9
        ; Auto size: 0
// 1017 BYTE i; UINT16 j; BOOL go8k = FALSE;
// 1018     P1_4 = 0;   P1DIR = 0xDB;    // module off
        CLR     0x90.4
        MOV     0xfe,#-0x25
// 1019     for( i = 0; (i<15); i++ ){ // the self check
        MOV     R6,#0x0
// 1020         BYTE *ptr = (BYTE *)( 0x800 + 0x400*i );
??checkMore_0:
        MOV     ?V0 + 0,R6
        MOV     ?V0 + 1,#0x0
        MOV     A,#0xa
        MOV     R0,#?V0 + 0
        LCALL   ?S_SHL
        LCALL   ?Subroutine85
// 1021         BOOL flag = TRUE; 
// 1022         *((BYTE *)0xFFFF) = 0x10;
// 1023         for( j = 0; flag && (j < 0x400); j++ ) flag = ( (*ptr++)==0xFF );
??CrossCallReturnLabel_273:
        MOV     A,R0
        MOV     R2,A
        MOV     A,R1
        MOV     R3,A
        MOV     DPL,R2
        MOV     DPH,R3
        INC     DPTR
        MOV     R0,DPL
        MOV     R1,DPH
        MOV     DPL,R2
        MOV     DPH,R3
        MOVX    A,@DPTR
        XRL     A,#0xff
        JNZ     ??checkMore_1
        MOV     R2,#0x1
        SJMP    ??checkMore_2
??checkMore_1:
        MOV     R2,#0x0
??checkMore_2:
        LCALL   ?Subroutine86
??CrossCallReturnLabel_275:
        JZ      ??checkMore_3
        CLR     C
        MOV     A,R5
        SUBB    A,#0x4
        JC      ??CrossCallReturnLabel_273
// 1024         go8k |= flag;
// 1025     }
??checkMore_3:
        INC     R6
        MOV     A,R6
        CLR     C
        SUBB    A,#0xf
        JC      ??checkMore_0
// 1026     //if( go8k ) {void (*f)( void ) = ( void (*)( void ) )0x603F; (*f)();} // commented jump to 8k image, Feb 12 2014, 16:35
// 1027 }
        SJMP    ??Subroutine122_0
        CFI EndBlock cfiBlock98
        REQUIRE _A_P1
        REQUIRE P1DIR

        RSEG NEAR_CODE:CODE:NOROOT(0)
?Subroutine122:
        CFI Block cfiBlock99 Using cfiCommon0
        CFI NoFunction
        CFI CFA_SP SP+0
        CFI CFA_XSP16 add(XSP16, 9)
        CFI VB load(1, XDATA, add(CFA_XSP16, literal(-8)))
