///////////////////////////////////////////////////////////////////////////////
//                                                                            /
// IAR 8051 C/C++ Compiler V7.30B/W32                   31/Jan/2014  11:05:23 /
// Copyright 2004-2007 IAR Systems. All rights reserved.                      /
//                                                                            /
//    Core               =  plain                                             /
//    Code model         =  near                                              /
//    Data model         =  large                                             /
//    Calling convention =  xdata reentrant                                   /
//    Constant location  =  data_rom                                          /
//    Dptr setup         =  1,16                                              /
//    Source file        =  E:\ProjectsE\ED\code\AndStackED\source\nx-boot.c  /
//    Command line       =  E:\ProjectsE\ED\code\AndStackED\source\nx-boot.c  /
//                          -D NDEBUG -D chip=2510 -lA                        /
//                          "E:\ProjectsE\ED\iar\Build .hex for               /
//                          CC2510\List\" -o "E:\ProjectsE\ED\iar\Build .hex  /
//                          for CC2510\Obj\" -e -z9 --core=plain --dptr=16,1  /
//                          --data_model=large --code_model=near              /
//                          --calling_convention=xdata_reentrant              /
//                          --place_constants=data_rom --nr_virtual_regs 32   /
//                          -I E:\ProjectsE\ED\iar\..\CODE\AndStackED\INCLUDE /
//                          \ -I E:\ProjectsE\ED\iar\..\CODE\LIBRARY\HAL\INCL /
//                          UDE\ -I E:\ProjectsE\ED\iar\..\CODE\LIBRARY\HAL_B /
//                          UI\INCLUDE\ -I C:\IARSystems-CD-730B\8051\INC\    /
//    List file          =  E:\ProjectsE\ED\iar\Build .hex for                /
//                          CC2510\List\nx-boot.s51                           /
//                                                                            /
//                                                                            /
///////////////////////////////////////////////////////////////////////////////

        NAME `nx-boot`

        RTMODEL "__calling_convention", "xdata_reentrant"
        RTMODEL "__code_model", "near"
        RTMODEL "__core", "plain"
        RTMODEL "__data_model", "large"
        RTMODEL "__dptr_size", "16"
        RTMODEL "__extended_stack", "disabled"
        RTMODEL "__location_for_constants", "data"
        RTMODEL "__number_of_dptrs", "1"
        RTMODEL "__rt_version", "1"

        RSEG DOVERLAY:DATA:NOROOT(0)
        RSEG IOVERLAY:IDATA:NOROOT(0)
        RSEG ISTACK:IDATA:NOROOT(0)
        RSEG PSTACK:XDATA:NOROOT(0)
        RSEG XSTACK:XDATA:NOROOT(0)

        EXTERN ?CALL_IND
        EXTERN ?INTERRUPT_ENTER_XSP
        EXTERN ?INTERRUPT_LEAVE_XSP
        EXTERN ?UC_SWITCH_DENSE
        EXTERN ?V0
        EXTERN __INIT_XDATA_I

        PUBWEAK `??adc_IRQ??INTVEC 11`
        PUBWEAK `??dmaFlash_IRQ??INTVEC 67`
        PUBWEAK `??rf_IRQ??INTVEC 131`
        PUBWEAK `??t1_IRQ??INTVEC 75`
        PUBWEAK DMAARM
        PUBWEAK DMAIRQ
        PUBWEAK RFIF
        PUBWEAK S1CON
        PUBWEAK _A_IEN0
        PUBWEAK _A_IRCON
        PUBWEAK _A_TCON
        PUBWEAK _A_TIMIF
        PUBLIC adc_IRQ
        FUNCTION adc_IRQ,0233H
        ARGFRAME XSTACK, 0, STACK
        LOCFRAME ISTACK, 15, STACK
        PUBLIC dmaFlash_IRQ
        FUNCTION dmaFlash_IRQ,0233H
        ARGFRAME XSTACK, 0, STACK
        LOCFRAME ISTACK, 15, STACK
        PUBLIC flagWork
        FUNCTION flagWork,0201H
        ARGFRAME XSTACK, 0, STACK
        ARGFRAME IOVERLAY, 0, STATIC
        ARGFRAME DOVERLAY, 0, STATIC
        LOCFRAME ISTACK, 2, STACK
        PUBLIC main
        FUNCTION main,021a03H
        ARGFRAME XSTACK, 0, STACK
        PUBLIC rf_IRQ
        FUNCTION rf_IRQ,021233H
        ARGFRAME XSTACK, 0, STACK
        LOCFRAME ISTACK, 15, STACK
        PUBLIC si
        PUBLIC t1_IRQ
        FUNCTION t1_IRQ,0a1233H
        ARGFRAME XSTACK, 0, STACK
        LOCFRAME ISTACK, 15, STACK
        
        CFI Names cfiNames0
        CFI StackFrame CFA_SP SP DATA
        CFI StackFrame CFA_PSP16 PSP16 XDATA
        CFI StackFrame CFA_XSP16 XSP16 XDATA
        CFI StaticOverlayFrame CFA_IOVERLAY IOVERLAY
        CFI StaticOverlayFrame CFA_DOVERLAY DOVERLAY
        CFI Resource `PSW.CY`:1, `B.BR0`:1, `B.BR1`:1, `B.BR2`:1, `B.BR3`:1
        CFI Resource `B.BR4`:1, `B.BR5`:1, `B.BR6`:1, `B.BR7`:1, `VB.BR8`:1
        CFI Resource `VB.BR9`:1, `VB.BR10`:1, `VB.BR11`:1, `VB.BR12`:1
        CFI Resource `VB.BR13`:1, `VB.BR14`:1, `VB.BR15`:1, VB:8, B:8, A:8
        CFI Resource PSW:8, DPL0:8, DPH0:8, R0:8, R1:8, R2:8, R3:8, R4:8, R5:8
        CFI Resource R6:8, R7:8, V0:8, V1:8, V2:8, V3:8, V4:8, V5:8, V6:8, V7:8
        CFI Resource V8:8, V9:8, V10:8, V11:8, V12:8, V13:8, V14:8, V15:8
        CFI Resource V16:8, V17:8, V18:8, V19:8, V20:8, V21:8, V22:8, V23:8
        CFI Resource V24:8, V25:8, V26:8, V27:8, V28:8, V29:8, V30:8, V31:8
        CFI Resource SP:8, PSPH:8, PSPL:8, PSP16:16, XSPH:8, XSPL:8, XSP16:16
        CFI VirtualResource ?RET:16, ?RET_HIGH:8, ?RET_LOW:8
        CFI ResourceParts PSP16 PSPH, PSPL
        CFI ResourceParts XSP16 XSPH, XSPL
        CFI ResourceParts ?RET ?RET_HIGH, ?RET_LOW
        CFI EndNames cfiNames0
        
        CFI Common cfiCommon0 Using cfiNames0
        CFI CodeAlign 1
        CFI DataAlign -1
        CFI ReturnAddress ?RET CODE
        CFI CFA_DOVERLAY Used
        CFI CFA_IOVERLAY Used
        CFI CFA_SP SP+-2
        CFI CFA_PSP16 PSP16+0
        CFI CFA_XSP16 XSP16+0
        CFI `PSW.CY` SameValue
        CFI `B.BR0` SameValue
        CFI `B.BR1` SameValue
        CFI `B.BR2` SameValue
        CFI `B.BR3` SameValue
        CFI `B.BR4` SameValue
        CFI `B.BR5` SameValue
        CFI `B.BR6` SameValue
        CFI `B.BR7` SameValue
        CFI `VB.BR8` SameValue
        CFI `VB.BR9` SameValue
        CFI `VB.BR10` SameValue
        CFI `VB.BR11` SameValue
        CFI `VB.BR12` SameValue
        CFI `VB.BR13` SameValue
        CFI `VB.BR14` SameValue
        CFI `VB.BR15` SameValue
        CFI VB SameValue
        CFI B Undefined
        CFI A Undefined
        CFI PSW SameValue
        CFI DPL0 SameValue
        CFI DPH0 SameValue
        CFI R0 Undefined
        CFI R1 Undefined
        CFI R2 Undefined
        CFI R3 Undefined
        CFI R4 Undefined
        CFI R5 Undefined
        CFI R6 SameValue
        CFI R7 SameValue
        CFI V0 SameValue
        CFI V1 SameValue
        CFI V2 SameValue
        CFI V3 SameValue
        CFI V4 SameValue
        CFI V5 SameValue
        CFI V6 SameValue
        CFI V7 SameValue
        CFI V8 SameValue
        CFI V9 SameValue
        CFI V10 SameValue
        CFI V11 SameValue
        CFI V12 SameValue
        CFI V13 SameValue
        CFI V14 SameValue
        CFI V15 SameValue
        CFI V16 SameValue
        CFI V17 SameValue
        CFI V18 SameValue
        CFI V19 SameValue
        CFI V20 SameValue
        CFI V21 SameValue
        CFI V22 SameValue
        CFI V23 SameValue
        CFI V24 SameValue
        CFI V25 SameValue
        CFI V26 SameValue
        CFI V27 SameValue
        CFI V28 SameValue
        CFI V29 SameValue
        CFI V30 SameValue
        CFI V31 SameValue
        CFI PSPH Undefined
        CFI PSPL Undefined
        CFI XSPH Undefined
        CFI XSPL Undefined
        CFI ?RET Concat
        CFI ?RET_HIGH Frame(CFA_SP, 2)
        CFI ?RET_LOW Frame(CFA_SP, 1)
        CFI EndCommon cfiCommon0
        
        
        CFI Common cfiCommon1 Using cfiNames0
        CFI CodeAlign 1
        CFI DataAlign -1
        CFI ReturnAddress ?RET CODE
        CFI CFA_DOVERLAY Used
        CFI CFA_IOVERLAY Used
        CFI CFA_SP SP+-2
        CFI CFA_PSP16 PSP16+0
        CFI CFA_XSP16 XSP16+0
        CFI `PSW.CY` SameValue
        CFI `B.BR0` SameValue
        CFI `B.BR1` SameValue
        CFI `B.BR2` SameValue
        CFI `B.BR3` SameValue
        CFI `B.BR4` SameValue
        CFI `B.BR5` SameValue
        CFI `B.BR6` SameValue
        CFI `B.BR7` SameValue
        CFI `VB.BR8` SameValue
        CFI `VB.BR9` SameValue
        CFI `VB.BR10` SameValue
        CFI `VB.BR11` SameValue
        CFI `VB.BR12` SameValue
        CFI `VB.BR13` SameValue
        CFI `VB.BR14` SameValue
        CFI `VB.BR15` SameValue
        CFI VB SameValue
        CFI B SameValue
        CFI A SameValue
        CFI PSW SameValue
        CFI DPL0 SameValue
        CFI DPH0 SameValue
        CFI R0 SameValue
        CFI R1 SameValue
        CFI R2 SameValue
        CFI R3 SameValue
        CFI R4 SameValue
        CFI R5 SameValue
        CFI R6 SameValue
        CFI R7 SameValue
        CFI V0 SameValue
        CFI V1 SameValue
        CFI V2 SameValue
        CFI V3 SameValue
        CFI V4 SameValue
        CFI V5 SameValue
        CFI V6 SameValue
        CFI V7 SameValue
        CFI V8 SameValue
        CFI V9 SameValue
        CFI V10 SameValue
        CFI V11 SameValue
        CFI V12 SameValue
        CFI V13 SameValue
        CFI V14 SameValue
        CFI V15 SameValue
        CFI V16 SameValue
        CFI V17 SameValue
        CFI V18 SameValue
        CFI V19 SameValue
        CFI V20 SameValue
        CFI V21 SameValue
        CFI V22 SameValue
        CFI V23 SameValue
        CFI V24 SameValue
        CFI V25 SameValue
        CFI V26 SameValue
        CFI V27 SameValue
        CFI V28 SameValue
        CFI V29 SameValue
        CFI V30 SameValue
        CFI V31 SameValue
        CFI PSPH Undefined
        CFI PSPL Undefined
        CFI XSPH Undefined
        CFI XSPL Undefined
        CFI ?RET Concat
        CFI ?RET_HIGH Frame(CFA_SP, 2)
        CFI ?RET_LOW Frame(CFA_SP, 1)
        CFI EndCommon cfiCommon1
        
adc_IRQ             SYMBOL "adc_IRQ"
`??adc_IRQ??INTVEC 11` SYMBOL "??INTVEC 11", adc_IRQ
dmaFlash_IRQ        SYMBOL "dmaFlash_IRQ"
`??dmaFlash_IRQ??INTVEC 67` SYMBOL "??INTVEC 67", dmaFlash_IRQ
rf_IRQ              SYMBOL "rf_IRQ"
`??rf_IRQ??INTVEC 131` SYMBOL "??INTVEC 131", rf_IRQ
t1_IRQ              SYMBOL "t1_IRQ"
`??t1_IRQ??INTVEC 75` SYMBOL "??INTVEC 75", t1_IRQ

        EXTERN main_asm
        FUNCTION main_asm,0202H
        ARGFRAME ISTACK, 0, STACK
        ARGFRAME PSTACK, 0, STACK
        ARGFRAME XSTACK, 0, STACK
        ARGFRAME IOVERLAY, 0, STATIC
        ARGFRAME DOVERLAY, 0, STATIC
        EXTERN inc_running_tick
        FUNCTION inc_running_tick,0202H
        ARGFRAME ISTACK, 15, STACK
        ARGFRAME PSTACK, 0, STACK
        ARGFRAME XSTACK, 0, STACK
        ARGFRAME IOVERLAY, 0, STATIC
        ARGFRAME DOVERLAY, 0, STATIC
        EXTERN mpp_work
        FUNCTION mpp_work,0202H
        ARGFRAME ISTACK, 15, STACK
        ARGFRAME PSTACK, 0, STACK
        ARGFRAME XSTACK, 0, STACK
        ARGFRAME IOVERLAY, 0, STATIC
        ARGFRAME DOVERLAY, 0, STATIC
        EXTERN call_alt_image
        FUNCTION call_alt_image,0202H
        ARGFRAME ISTACK, 15, STACK
        ARGFRAME PSTACK, 0, STACK
        ARGFRAME XSTACK, 0, STACK
        ARGFRAME IOVERLAY, 0, STATIC
        ARGFRAME DOVERLAY, 0, STATIC

// E:\ProjectsE\ED\code\AndStackED\source\nx-boot.c
//    1 /*==== DECLARATION CONTROL ===================================================*/
//    2 /*==== INCLUDES ==============================================================*/
//    3 
//    4 #include "hal_main.h"

        ASEGN SFR_AN:DATA:NOROOT,088H
// union <unnamed> volatile __sfr _A_TCON
_A_TCON:
        DS 1

        ASEGN SFR_AN:DATA:NOROOT,09bH
// unsigned char volatile __sfr S1CON
S1CON:
        DS 1

        ASEGN SFR_AN:DATA:NOROOT,0a8H
// union <unnamed> volatile __sfr _A_IEN0
_A_IEN0:
        DS 1

        ASEGN SFR_AN:DATA:NOROOT,0c0H
// union <unnamed> volatile __sfr _A_IRCON
_A_IRCON:
        DS 1

        ASEGN SFR_AN:DATA:NOROOT,0d1H
// unsigned char volatile __sfr DMAIRQ
DMAIRQ:
        DS 1

        ASEGN SFR_AN:DATA:NOROOT,0d6H
// unsigned char volatile __sfr DMAARM
DMAARM:
        DS 1

        ASEGN SFR_AN:DATA:NOROOT,0d8H
// union <unnamed> volatile __sfr _A_TIMIF
_A_TIMIF:
        DS 1

        ASEGN SFR_AN:DATA:NOROOT,0e9H
// unsigned char volatile __sfr RFIF
RFIF:
        DS 1
//    5 #include "main.h"
//    6 

        RSEG XDATA_I:XDATA:NOROOT(0)
        DATA
//    7 SchedulerInterface __xdata *si = (SchedulerInterface __xdata *)0xF500;
si:
        DS 2
        REQUIRE `?<Initializer for si>`
        REQUIRE __INIT_XDATA_I
//    8 //INT16 __xdata  *ticks = (INT16 __xdata *)0xF500; 
//    9 //BOOL  __xdata  *flags = (BOOL __xdata  *)0xF520;                         // 16 0xF520
//   10 
//   11 #define MKS_IN_TICK     200
//   12 #define TICKS_IN_SEC    5000
//   13 #define TICKS_IN_MS     5
//   14 
//   15 #define _mppCycle            ( 300 ) 
//   16 #define _firstAdcMeasurement ( TICKS_IN_SEC / 50 )
//   17 
//   18 void call_alt_image(   void );
//   19 void inc_running_tick( void );
//   20 void mpp_work(         void );
//   21 void main_asm(         void );
//   22 /******************************************************************************
//   23 * @fn  main
//   24 * @brief
//   25 *      Main function. Triggers setup menus and main loops for both receiver
//   26 *      and transmitter. This function supports both CC1110 and CC2510.
//   27 * Parameters:
//   28 * @param  void
//   29 * @return void
//   30 ******************************************************************************/

        RSEG NEAR_CODE:CODE:NOROOT(0)
//   31 void main(void){ *((BYTE *)0xFFFF) = 0x4;  main_asm(); }  // was 0x10
main:
        CFI Block cfiBlock0 Using cfiCommon0
        CFI Function main
        FUNCALL main, main_asm
        LOCFRAME ISTACK, 0, STACK
        LOCFRAME PSTACK, 0, STACK
        LOCFRAME XSTACK, 0, STACK
        LOCFRAME IOVERLAY, 0, STATIC
        LOCFRAME DOVERLAY, 0, STATIC
        ARGFRAME ISTACK, 0, STACK
        ARGFRAME PSTACK, 0, STACK
        ARGFRAME XSTACK, 0, STACK
        ARGFRAME IOVERLAY, 0, STATIC
        ARGFRAME DOVERLAY, 0, STATIC
        ; Auto size: 0
        MOV     A,#0x4
        MOV     DPTR,#-0x1
        MOVX    @DPTR,A
        ; Setup parameters for call to function main_asm
        LCALL   main_asm
        RET
        CFI EndBlock cfiBlock0
//   32 /*==== INTERRUPT SERVICE ROUTINES ============================================*/
//   33 /******************************************************************************
//   34 * @fn  rf_IRQ
//   35 * @brief
//   36 *      The only interrupt flag which throws this interrupt is the IRQ_DONE interrupt.
//   37 *      So this is the code which runs after a packet has been received or transmitted.
//   38 * Parameters:
//   39 * @param  void
//   40 * @return void
//   41 ******************************************************************************/
//   42 //#pragma optimize=s 9

        RSEG NEAR_CODE:CODE:NOROOT(0)
//   43 void flagWork(){
flagWork:
        CFI Block cfiBlock1 Using cfiCommon0
        CFI Function flagWork
        PUSH    DPL
        CFI DPL0 Frame(CFA_SP, 3)
        CFI CFA_SP SP+-3
        PUSH    DPH
        CFI DPH0 Frame(CFA_SP, 4)
        CFI CFA_SP SP+-4
        ; Saved register size: 2
        ; Auto size: 0
//   44     //if( si->radioMode == RADIO_MODE_RX ){   
//   45     if( *((BYTE *)0xF53A) == RADIO_MODE_RX ){
        MOV     DPTR,#-0xac6
        MOVX    A,@DPTR
        XRL     A,#0x20
        JNZ     ??flagWork_0
//   46         //si->flags[ PackageReceived ]  = TRUE;
//   47         *((BYTE *)0xF521) = 1;
        MOV     A,#0x1
        MOV     DPTR,#-0xadf
        MOVX    @DPTR,A
//   48         //si->packetReceived =si->runningTick;
//   49         *((BYTE *)0xF55F) = *((BYTE *)0xF538);
        MOV     DPTR,#-0xac8
        MOVX    A,@DPTR
        MOV     DPTR,#-0xaa1
        MOVX    @DPTR,A
//   50         *((BYTE *)0xF560) = *((BYTE *)0xF539);
        MOV     DPTR,#-0xac7
        MOVX    A,@DPTR
        MOV     DPTR,#-0xaa0
        SJMP    ??flagWork_1
//   51     //}else if( si->radioMode == RADIO_MODE_TX ){
//   52     }else if( *((BYTE *)0xF53A) == RADIO_MODE_TX ){
??flagWork_0:
        MOVX    A,@DPTR
        XRL     A,#0x10
        JNZ     ??flagWork_2
//   53         //si->ticks[ CheckFlag ] = 0;
//   54         *((BYTE *)0xF50E) = 0;  *((BYTE *)0xF50F) = 0;
        CLR     A
        MOV     DPTR,#-0xaf2
        MOVX    @DPTR,A
        MOV     DPTR,#-0xaf1
        MOVX    @DPTR,A
//   55         //si->flags[ DataSent  ] = TRUE;
//   56         *((BYTE *)0xF522) = 1;
        MOV     A,#0x1
        MOV     DPTR,#-0xade
??flagWork_1:
        MOVX    @DPTR,A
//   57     }
//   58     //si->flags[ IncreaseSleepCnt ] = TRUE;
//   59     //si->radioMode = RADIO_MODE_UNDEF;
//   60     *((BYTE *)0xF53A) = RADIO_MODE_UNDEF;
??flagWork_2:
        MOV     A,#-0x10
        MOV     DPTR,#-0xac6
        MOVX    @DPTR,A
//   61 }
        POP     DPH
        CFI DPH0 SameValue
        CFI CFA_SP SP+-3
        POP     DPL
        CFI DPL0 SameValue
        CFI CFA_SP SP+-2
        RET
        CFI EndBlock cfiBlock1
//   62 
//   63 #pragma vector=RF_VECTOR 
//   64 //#pragma register_bank=1

        RSEG NEAR_CODE:CODE:NOROOT(0)
//   65 __interrupt void rf_IRQ(void) {
rf_IRQ:
        CFI Block cfiBlock2 Using cfiCommon1
        CFI Function rf_IRQ
        FUNCALL rf_IRQ, flagWork
        LOCFRAME ISTACK, 15, STACK
        LOCFRAME PSTACK, 0, STACK
        LOCFRAME XSTACK, 0, STACK
        LOCFRAME IOVERLAY, 0, STATIC
        LOCFRAME DOVERLAY, 0, STATIC
        ARGFRAME ISTACK, 15, STACK
        ARGFRAME PSTACK, 0, STACK
        ARGFRAME XSTACK, 0, STACK
        ARGFRAME IOVERLAY, 0, STATIC
        ARGFRAME DOVERLAY, 0, STATIC
        PUSH    A
        CFI A Frame(CFA_SP, 3)
        CFI CFA_SP SP+-3
        MOV     A,#-0xe
        LCALL   ?INTERRUPT_ENTER_XSP
        CFI B load(1, XDATA, add(CFA_XSP16, literal(-1)))
        CFI VB load(1, XDATA, add(CFA_XSP16, literal(-2)))
        CFI PSW load(1, XDATA, add(CFA_XSP16, literal(-3)))
        CFI DPL0 load(1, XDATA, add(CFA_XSP16, literal(-4)))
        CFI DPH0 load(1, XDATA, add(CFA_XSP16, literal(-5)))
        CFI R7 load(1, XDATA, add(CFA_XSP16, literal(-6)))
        CFI R6 load(1, XDATA, add(CFA_XSP16, literal(-7)))
        CFI R5 load(1, XDATA, add(CFA_XSP16, literal(-8)))
        CFI R4 load(1, XDATA, add(CFA_XSP16, literal(-9)))
        CFI V0 load(1, XDATA, add(CFA_XSP16, literal(-10)))
        CFI R3 load(1, XDATA, add(CFA_XSP16, literal(-11)))
        CFI R2 load(1, XDATA, add(CFA_XSP16, literal(-12)))
        CFI R1 load(1, XDATA, add(CFA_XSP16, literal(-13)))
        CFI R0 load(1, XDATA, add(CFA_XSP16, literal(-14)))
        CFI CFA_XSP16 add(XSP16, 14)
        ; Saved register size: 15
        ; Auto size: 0
//   66     INT_GLOBAL_ENABLE( INT_OFF );
        CLR     0xa8.7
//   67         RFIF &= ~IRQ_DONE;        // Tx/Rx completed, clear interrupt flag
        ANL     0xe9,#0xef
//   68         S1CON &= ~0x03;           // Clear the general RFIF interrupt registers
        ANL     0x9b,#0xfc
        MOV     A,0x9b
//   69         DMAARM = 0x80 | DMAARM_CHANNEL1 | DMAARM_CHANNEL0;
        MOV     0xd6,#-0x7d
//   70         flagWork();        
        ; Setup parameters for call to function flagWork
        LCALL   flagWork
//   71         //RFST = STROBE_IDLE;
//   72         //if( si->rfCallback ) si->rfCallback();
//   73     INT_GLOBAL_ENABLE( INT_ON );
        SETB    0xa8.7
//   74 }
        LJMP    ?Subroutine1
        CFI EndBlock cfiBlock2
        REQUIRE S1CON
        REQUIRE _A_IEN0
        REQUIRE DMAARM
        REQUIRE RFIF
//   75 #define read_next_value ((void (*)(void)) (*((UINT16 *)0xF532)))
//   76 #pragma vector=ADC_VECTOR 

        RSEG NEAR_CODE:CODE:NOROOT(0)
//   77 __interrupt void adc_IRQ(void) {
adc_IRQ:
        CFI Block cfiBlock3 Using cfiCommon1
        CFI Function adc_IRQ
        PUSH    A
        CFI A Frame(CFA_SP, 3)
        CFI CFA_SP SP+-3
        MOV     A,#-0xe
        LCALL   ?INTERRUPT_ENTER_XSP
        CFI B load(1, XDATA, add(CFA_XSP16, literal(-1)))
        CFI VB load(1, XDATA, add(CFA_XSP16, literal(-2)))
        CFI PSW load(1, XDATA, add(CFA_XSP16, literal(-3)))
        CFI DPL0 load(1, XDATA, add(CFA_XSP16, literal(-4)))
        CFI DPH0 load(1, XDATA, add(CFA_XSP16, literal(-5)))
        CFI R7 load(1, XDATA, add(CFA_XSP16, literal(-6)))
        CFI R6 load(1, XDATA, add(CFA_XSP16, literal(-7)))
        CFI R5 load(1, XDATA, add(CFA_XSP16, literal(-8)))
        CFI R4 load(1, XDATA, add(CFA_XSP16, literal(-9)))
        CFI V0 load(1, XDATA, add(CFA_XSP16, literal(-10)))
        CFI R3 load(1, XDATA, add(CFA_XSP16, literal(-11)))
        CFI R2 load(1, XDATA, add(CFA_XSP16, literal(-12)))
        CFI R1 load(1, XDATA, add(CFA_XSP16, literal(-13)))
        CFI R0 load(1, XDATA, add(CFA_XSP16, literal(-14)))
        CFI CFA_XSP16 add(XSP16, 14)
        ; Saved register size: 15
        ; Auto size: 0
//   78         ADCIF &= ~IRQ_DONE;     // clear interrupt flag
        MOV     0x88,0x88
//   79 //        (*(si->readNextValue))();
//   80         read_next_value();
        ; Setup parameters for indirect call
        MOV     DPTR,#-0xace
        LCALL   ?Subroutine0
??CrossCallReturnLabel_0:
        LCALL   ?CALL_IND
//   81 }
        LJMP    ?Subroutine1
        CFI EndBlock cfiBlock3
        REQUIRE _A_TCON
//   82 
//   83 #define arm_adcs ((void (*)(void)) (*((UINT16 *)0xF530)))
//   84 
//   85 //BYTE firstMppCycle = 1;
//   86 #pragma vector=T1_VECTOR 

        RSEG NEAR_CODE:CODE:NOROOT(0)
//   87 __interrupt void t1_IRQ(void) {
t1_IRQ:
        CFI Block cfiBlock4 Using cfiCommon1
        CFI Function t1_IRQ
        FUNCALL t1_IRQ, inc_running_tick
        LOCFRAME ISTACK, 15, STACK
        LOCFRAME PSTACK, 0, STACK
        LOCFRAME XSTACK, 0, STACK
        LOCFRAME IOVERLAY, 0, STATIC
        LOCFRAME DOVERLAY, 0, STATIC
        ARGFRAME ISTACK, 15, STACK
        ARGFRAME PSTACK, 0, STACK
        ARGFRAME XSTACK, 0, STACK
        ARGFRAME IOVERLAY, 0, STATIC
        ARGFRAME DOVERLAY, 0, STATIC
        FUNCALL t1_IRQ, mpp_work
        LOCFRAME ISTACK, 15, STACK
        LOCFRAME PSTACK, 0, STACK
        LOCFRAME XSTACK, 0, STACK
        LOCFRAME IOVERLAY, 0, STATIC
        LOCFRAME DOVERLAY, 0, STATIC
        ARGFRAME ISTACK, 15, STACK
        ARGFRAME PSTACK, 0, STACK
        ARGFRAME XSTACK, 0, STACK
        ARGFRAME IOVERLAY, 0, STATIC
        ARGFRAME DOVERLAY, 0, STATIC
        FUNCALL t1_IRQ, call_alt_image
        LOCFRAME ISTACK, 15, STACK
        LOCFRAME PSTACK, 0, STACK
        LOCFRAME XSTACK, 0, STACK
        LOCFRAME IOVERLAY, 0, STATIC
        LOCFRAME DOVERLAY, 0, STATIC
        ARGFRAME ISTACK, 15, STACK
        ARGFRAME PSTACK, 0, STACK
        ARGFRAME XSTACK, 0, STACK
        ARGFRAME IOVERLAY, 0, STATIC
        ARGFRAME DOVERLAY, 0, STATIC
        PUSH    A
        CFI A Frame(CFA_SP, 3)
        CFI CFA_SP SP+-3
        MOV     A,#-0xe
        LCALL   ?INTERRUPT_ENTER_XSP
        CFI B load(1, XDATA, add(CFA_XSP16, literal(-1)))
        CFI VB load(1, XDATA, add(CFA_XSP16, literal(-2)))
        CFI PSW load(1, XDATA, add(CFA_XSP16, literal(-3)))
        CFI DPL0 load(1, XDATA, add(CFA_XSP16, literal(-4)))
        CFI DPH0 load(1, XDATA, add(CFA_XSP16, literal(-5)))
        CFI R7 load(1, XDATA, add(CFA_XSP16, literal(-6)))
        CFI R6 load(1, XDATA, add(CFA_XSP16, literal(-7)))
        CFI R5 load(1, XDATA, add(CFA_XSP16, literal(-8)))
        CFI R4 load(1, XDATA, add(CFA_XSP16, literal(-9)))
        CFI V0 load(1, XDATA, add(CFA_XSP16, literal(-10)))
        CFI R3 load(1, XDATA, add(CFA_XSP16, literal(-11)))
        CFI R2 load(1, XDATA, add(CFA_XSP16, literal(-12)))
        CFI R1 load(1, XDATA, add(CFA_XSP16, literal(-13)))
        CFI R0 load(1, XDATA, add(CFA_XSP16, literal(-14)))
        CFI CFA_XSP16 add(XSP16, 14)
        ; Saved register size: 15
        ; Auto size: 0
//   88 register BYTE _idx = 0;
        MOV     ?V0 + 0,#0x0
//   89 register INT16 __xdata *ticks = (INT16 *)0xF500; //si->ticks;
        MOV     R6,#0x0
        MOV     R7,#-0xb
//   90     TIMIF &= ~IRQ_DONE;     // clear interrupt flag
        CLR     0xd8.4
//   91     inc_running_tick();
        ; Setup parameters for call to function inc_running_tick
        LCALL   inc_running_tick
//   92     do {
//   93         if( ( *ticks  > 0 ) && ( --(*ticks) == 0 ) )
??t1_IRQ_0:
        MOV     DPL,R6
        MOV     DPH,R7
        CLR     C
        MOVX    A,@DPTR
        SUBB    A,#0x1
        INC     DPTR
        MOVX    A,@DPTR
        SUBB    A,#0x0
        MOV     C,0xD0 /* PSW */.2
        XRL     A,PSW
        RLC     A
        JC      ??t1_IRQ_1
        MOV     DPL,R6
        MOV     DPH,R7
        MOVX    A,@DPTR
        ADD     A,#-0x1
        MOVX    @DPTR,A
        INC     DPTR
        MOVX    A,@DPTR
        ADDC    A,#-0x1
        MOVX    @DPTR,A
        MOV     DPL,R6
        MOV     DPH,R7
        MOVX    A,@DPTR
        JNZ     ??t1_IRQ_2
        INC     DPTR
        MOVX    A,@DPTR
??t1_IRQ_2:
        JNZ     ??t1_IRQ_1
//   94             switch( _idx ){
        MOV     A,?V0 + 0
        LCALL   ?UC_SWITCH_DENSE
`?<Jumptable for t1_IRQ>_0`:
        DATA
        DB        0
        DB        1
        DW        ??t1_IRQ_3
        DW        ??t1_IRQ_4
        DW        ??t1_IRQ_5
        CODE
//   95                 case MppCycle: 
//   96                   mpp_work(); 
??t1_IRQ_4:
        ; Setup parameters for call to function mpp_work
        LCALL   mpp_work
//   97                   if( *((BYTE *)0xFFFF) ) (*((BYTE *)0xFFFF))--; 
        MOV     DPTR,#-0x1
        MOVX    A,@DPTR
        JZ      ??t1_IRQ_6
        DEC     A
        SJMP    ??t1_IRQ_7
//   98                   else call_alt_image(); 
??t1_IRQ_6:
        ; Setup parameters for call to function call_alt_image
        LCALL   call_alt_image
        SJMP    ??t1_IRQ_1
//   99                 break;
//  100                 case AdcMeasurement: 
//  101                     //if( si->armAdcs ) (*(si->armAdcs))();  
//  102                     if( *((INT16 *)0xF530) ) (*arm_adcs)();
??t1_IRQ_5:
        MOV     DPTR,#-0xad0
        MOVX    A,@DPTR
        JNZ     ??t1_IRQ_8
        INC     DPTR
        MOVX    A,@DPTR
??t1_IRQ_8:
        JZ      ??t1_IRQ_6
        ; Setup parameters for indirect call
        MOV     DPTR,#-0xad0
        LCALL   ?Subroutine0
??CrossCallReturnLabel_1:
        LCALL   ?CALL_IND
        SJMP    ??t1_IRQ_1
//  103                     else call_alt_image(); 
//  104                 break;
//  105                 default: *ticks = -1; break;
??t1_IRQ_3:
        MOV     DPL,R6
        MOV     DPH,R7
        MOV     A,#-0x1
        MOVX    @DPTR,A
        INC     DPTR
??t1_IRQ_7:
        MOVX    @DPTR,A
//  106             }
//  107         ticks++;
??t1_IRQ_1:
        MOV     A,R6
        ADD     A,#0x2
        MOV     A,R7
        ADDC    A,#0x0
        INC     R6
        INC     R6
        MOV     R7,A
//  108     } while( ++_idx < N_Of_Ticks );
        INC     ?V0 + 0
        MOV     A,?V0 + 0
        CLR     C
        SUBB    A,#0x10
        JC      ??t1_IRQ_0
        CFI EndBlock cfiBlock4
//  109 }
        REQUIRE ?Subroutine1
        REQUIRE _A_TIMIF
        ; // Fall through to label ?Subroutine1

        RSEG NEAR_CODE:CODE:NOROOT(0)
?Subroutine1:
        CFI Block cfiBlock5 Using cfiCommon1
        CFI NoFunction
        CFI CFA_SP SP+-3
        CFI CFA_XSP16 add(XSP16, 14)
        CFI VB load(1, XDATA, add(CFA_XSP16, literal(-2)))
        CFI B load(1, XDATA, add(CFA_XSP16, literal(-1)))
        CFI A Frame(CFA_SP, 3)
        CFI PSW load(1, XDATA, add(CFA_XSP16, literal(-3)))
        CFI DPL0 load(1, XDATA, add(CFA_XSP16, literal(-4)))
        CFI DPH0 load(1, XDATA, add(CFA_XSP16, literal(-5)))
        CFI R0 load(1, XDATA, add(CFA_XSP16, literal(-14)))
        CFI R1 load(1, XDATA, add(CFA_XSP16, literal(-13)))
        CFI R2 load(1, XDATA, add(CFA_XSP16, literal(-12)))
        CFI R3 load(1, XDATA, add(CFA_XSP16, literal(-11)))
        CFI R4 load(1, XDATA, add(CFA_XSP16, literal(-9)))
        CFI R5 load(1, XDATA, add(CFA_XSP16, literal(-8)))
        CFI R6 load(1, XDATA, add(CFA_XSP16, literal(-7)))
        CFI R7 load(1, XDATA, add(CFA_XSP16, literal(-6)))
        CFI V0 load(1, XDATA, add(CFA_XSP16, literal(-10)))
        MOV     R7,#0x1
        LJMP    ?INTERRUPT_LEAVE_XSP
        CFI EndBlock cfiBlock5

        RSEG NEAR_CODE:CODE:NOROOT(0)
?Subroutine0:
        CFI Block cfiCond6 Using cfiCommon1
        CFI NoFunction
        CFI Conditional ??CrossCallReturnLabel_0
        CFI A Frame(CFA_SP, 3)
        CFI R0 load(1, XDATA, add(CFA_XSP16, literal(-14)))
        CFI R1 load(1, XDATA, add(CFA_XSP16, literal(-13)))
        CFI R2 load(1, XDATA, add(CFA_XSP16, literal(-12)))
        CFI R3 load(1, XDATA, add(CFA_XSP16, literal(-11)))
        CFI V0 load(1, XDATA, add(CFA_XSP16, literal(-10)))
        CFI R4 load(1, XDATA, add(CFA_XSP16, literal(-9)))
        CFI R5 load(1, XDATA, add(CFA_XSP16, literal(-8)))
        CFI R6 load(1, XDATA, add(CFA_XSP16, literal(-7)))
        CFI R7 load(1, XDATA, add(CFA_XSP16, literal(-6)))
        CFI DPH0 load(1, XDATA, add(CFA_XSP16, literal(-5)))
        CFI DPL0 load(1, XDATA, add(CFA_XSP16, literal(-4)))
        CFI PSW load(1, XDATA, add(CFA_XSP16, literal(-3)))
        CFI VB load(1, XDATA, add(CFA_XSP16, literal(-2)))
        CFI B load(1, XDATA, add(CFA_XSP16, literal(-1)))
        CFI CFA_SP SP+-3
        CFI CFA_XSP16 add(XSP16, 14)
        CFI Block cfiCond7 Using cfiCommon1
        CFI (cfiCond7) NoFunction
        CFI (cfiCond7) Conditional ??CrossCallReturnLabel_1
        CFI (cfiCond7) A Frame(CFA_SP, 3)
        CFI (cfiCond7) R0 load(1, XDATA, add(CFA_XSP16, literal(-14)))
        CFI (cfiCond7) R1 load(1, XDATA, add(CFA_XSP16, literal(-13)))
        CFI (cfiCond7) R2 load(1, XDATA, add(CFA_XSP16, literal(-12)))
        CFI (cfiCond7) R3 load(1, XDATA, add(CFA_XSP16, literal(-11)))
        CFI (cfiCond7) V0 load(1, XDATA, add(CFA_XSP16, literal(-10)))
        CFI (cfiCond7) R4 load(1, XDATA, add(CFA_XSP16, literal(-9)))
        CFI (cfiCond7) R5 load(1, XDATA, add(CFA_XSP16, literal(-8)))
        CFI (cfiCond7) R6 load(1, XDATA, add(CFA_XSP16, literal(-7)))
        CFI (cfiCond7) R7 load(1, XDATA, add(CFA_XSP16, literal(-6)))
        CFI (cfiCond7) DPH0 load(1, XDATA, add(CFA_XSP16, literal(-5)))
        CFI (cfiCond7) DPL0 load(1, XDATA, add(CFA_XSP16, literal(-4)))
        CFI (cfiCond7) PSW load(1, XDATA, add(CFA_XSP16, literal(-3)))
        CFI (cfiCond7) VB load(1, XDATA, add(CFA_XSP16, literal(-2)))
        CFI (cfiCond7) B load(1, XDATA, add(CFA_XSP16, literal(-1)))
        CFI (cfiCond7) CFA_SP SP+-3
        CFI (cfiCond7) CFA_XSP16 add(XSP16, 14)
        CFI Block cfiCond8 Using cfiCommon1
        CFI (cfiCond8) NoFunction
        CFI (cfiCond8) Conditional ??CrossCallReturnLabel_2
        CFI (cfiCond8) A Frame(CFA_SP, 3)
        CFI (cfiCond8) R0 load(1, XDATA, add(CFA_XSP16, literal(-14)))
        CFI (cfiCond8) R1 load(1, XDATA, add(CFA_XSP16, literal(-13)))
        CFI (cfiCond8) R2 load(1, XDATA, add(CFA_XSP16, literal(-12)))
        CFI (cfiCond8) R3 load(1, XDATA, add(CFA_XSP16, literal(-11)))
        CFI (cfiCond8) V0 load(1, XDATA, add(CFA_XSP16, literal(-10)))
        CFI (cfiCond8) R4 load(1, XDATA, add(CFA_XSP16, literal(-9)))
        CFI (cfiCond8) R5 load(1, XDATA, add(CFA_XSP16, literal(-8)))
        CFI (cfiCond8) R6 load(1, XDATA, add(CFA_XSP16, literal(-7)))
        CFI (cfiCond8) R7 load(1, XDATA, add(CFA_XSP16, literal(-6)))
        CFI (cfiCond8) DPH0 load(1, XDATA, add(CFA_XSP16, literal(-5)))
        CFI (cfiCond8) DPL0 load(1, XDATA, add(CFA_XSP16, literal(-4)))
        CFI (cfiCond8) PSW load(1, XDATA, add(CFA_XSP16, literal(-3)))
        CFI (cfiCond8) VB load(1, XDATA, add(CFA_XSP16, literal(-2)))
        CFI (cfiCond8) B load(1, XDATA, add(CFA_XSP16, literal(-1)))
        CFI (cfiCond8) CFA_SP SP+-3
        CFI (cfiCond8) CFA_XSP16 add(XSP16, 14)
        CFI Block cfiPicker9 Using cfiCommon1
        CFI (cfiPicker9) NoFunction
        CFI (cfiPicker9) Picker
        MOVX    A,@DPTR
        MOV     R0,A
        INC     DPTR
        MOVX    A,@DPTR
        MOV     R1,A
        MOV     DPL,R0
        MOV     DPH,R1
        RET
        CFI EndBlock cfiCond6
        CFI EndBlock cfiCond7
        CFI EndBlock cfiCond8
        CFI EndBlock cfiPicker9
//  110 #define flash_callback ((void (*)(void)) (*((UINT16 *)0xF534)))
//  111 #pragma vector=DMA_VECTOR

        RSEG NEAR_CODE:CODE:NOROOT(0)
//  112 __interrupt void dmaFlash_IRQ(void) {
dmaFlash_IRQ:
        CFI Block cfiBlock10 Using cfiCommon1
        CFI Function dmaFlash_IRQ
        PUSH    A
        CFI A Frame(CFA_SP, 3)
        CFI CFA_SP SP+-3
        MOV     A,#-0xe
        LCALL   ?INTERRUPT_ENTER_XSP
        CFI B load(1, XDATA, add(CFA_XSP16, literal(-1)))
        CFI VB load(1, XDATA, add(CFA_XSP16, literal(-2)))
        CFI PSW load(1, XDATA, add(CFA_XSP16, literal(-3)))
        CFI DPL0 load(1, XDATA, add(CFA_XSP16, literal(-4)))
        CFI DPH0 load(1, XDATA, add(CFA_XSP16, literal(-5)))
        CFI R7 load(1, XDATA, add(CFA_XSP16, literal(-6)))
        CFI R6 load(1, XDATA, add(CFA_XSP16, literal(-7)))
        CFI R5 load(1, XDATA, add(CFA_XSP16, literal(-8)))
        CFI R4 load(1, XDATA, add(CFA_XSP16, literal(-9)))
        CFI V0 load(1, XDATA, add(CFA_XSP16, literal(-10)))
        CFI R3 load(1, XDATA, add(CFA_XSP16, literal(-11)))
        CFI R2 load(1, XDATA, add(CFA_XSP16, literal(-12)))
        CFI R1 load(1, XDATA, add(CFA_XSP16, literal(-13)))
        CFI R0 load(1, XDATA, add(CFA_XSP16, literal(-14)))
        CFI CFA_XSP16 add(XSP16, 14)
        ; Saved register size: 15
        ; Auto size: 0
//  113     DMAIF &= ~IRQ_DONE;
        MOV     0xc0,0xc0
//  114 //    if( DMAIRQ & 0x4 ) (*(si->flashCallback))();
//  115     if( DMAIRQ & 0x4 ) flash_callback(); 
        MOV     A,0xd1
        MOV     C,0xE0 /* A   */.2
        JNC     ??dmaFlash_IRQ_0
        ; Setup parameters for indirect call
        MOV     DPTR,#-0xacc
        LCALL   ?Subroutine0
??CrossCallReturnLabel_2:
        LCALL   ?CALL_IND
//  116 }
??dmaFlash_IRQ_0:
        SJMP    ?Subroutine1
        CFI EndBlock cfiBlock10
        REQUIRE _A_IRCON
        REQUIRE DMAIRQ

        COMMON INTVEC:CODE:ROOT(0)
        ORG 11
`??adc_IRQ??INTVEC 11`:
        LJMP       (adc_IRQ)

        COMMON INTVEC:CODE:ROOT(0)
        ORG 67
`??dmaFlash_IRQ??INTVEC 67`:
        LJMP       (dmaFlash_IRQ)

        COMMON INTVEC:CODE:ROOT(0)
        ORG 75
`??t1_IRQ??INTVEC 75`:
        LJMP       (t1_IRQ)

        COMMON INTVEC:CODE:ROOT(0)
        ORG 131
`??rf_IRQ??INTVEC 131`:
        LJMP       (rf_IRQ)

        RSEG XDATA_ID:CODE:NOROOT(0)
        DATA
`?<Initializer for si>`:
        DW 0F500H

        END
//  117 //______________________________________________________________________________________________________________________________
//  118 /*==== END OF FILE ==========================================================*/
// 
//  12 bytes in segment INTVEC
// 308 bytes in segment NEAR_CODE
//   8 bytes in segment SFR_AN
//   2 bytes in segment XDATA_I
//   2 bytes in segment XDATA_ID
// 
// 310 bytes of CODE  memory (+ 12 bytes shared)
//   0 bytes of DATA  memory (+  8 bytes shared)
//   2 bytes of XDATA memory
//
//Errors: none
//Warnings: none
