###############################################################################
#                                                                             #
#     IAR Systems 8051 Assembler V7.30A/W32 06/Apr/2017  13:54:37             #
#     Copyright 2007 IAR Systems. All rights reserved.                        #
#                                                                             #
#           Target option =  plain                                            #
#           Source file   =  E:\1500V_Test2\ED\code\Library\clib\iar_long.s51 #
#           List file     =  E:\1500V_Test2\ED\iar\Build .hex for CC2510\List\iar_long.lst#
#           Object file   =  E:\1500V_Test2\ED\iar\Build .hex for CC2510\Obj\iar_long.r51#
#           Command line  =  E:\1500V_Test2\ED\code\Library\clib\iar_long.s51 #
#                            -v0 -D__CORE__=1 -D__CODE_MODEL__=1              #
#                            -D__DATA_MODEL__=2 -D__CALLING_CONVENTION__=4    #
#                            -D__NUMBER_OF_DPTRS__=1                          #
#                            -OE:\1500V_Test2\ED\iar\Build .hex for CC2510\Obj\ #
#                            -s+ -M<>                                         #
#                            -LE:\1500V_Test2\ED\iar\Build .hex for CC2510\List\ #
#                            -t8 -xDI -IC:\IARSystems-CD-730B\8051\INC\       #
#                            -Dchip=2510 -D_LOW_IMAGE_ -w+                    #
#                                                                             #
###############################################################################

      1    000000          ;---------------------------------------------------
                           --------------------------
      2    000000          ;
      3    000000          ;       File:           long.s03
      4    000000          ;
      5    000000          ;       Version:        6.00
      6    000000          ;
      7    000000          ;       Created:        25/Apr/02 IANB
      8    000000          ;       Revised:
      9    000000          ;
     10    000000          ;
     11    000000          ;       Description:    This file contain the
                            aritmetic operations 
     12    000000          ;                       (+, -, *, %, /, >>, <<, |,
                            &, ^ compare and
     13    000000          ;                       unary - and ~) for both
                            signed and unsigned long 
     14    000000          ;                       integers.
     15    000000          ;
     16    000000          ;       REVISON INFORMATION                         
                                   
     17    000000          ;                                                   
                                   
     18    000000          ;       $Revision: 1.13 $
     19    000000          ;                                                   
                                   
     20    000000          ;       Log information is available at the end of
                            this file
     21    000000          ;
     22    000000          ;---------------------------------------------------
                           --------------------------
     23    000000          
     24    000000          #include "iar_common.h"
     25    000000          
     26    000000          ;---------------------------------------------------
                           --------------------------
     27    000000          ;
     28    000000          ;       Functions: (Un)Signed long multiplication
     29    000000          ;
     30    000000          ;- - - - - - - - - - - - - - - - - - - - - - - - - -
                            - - - - - - - - - - - - -
     31    000000          ;
     32    000000          ;       Function: ?L_MUL
     33    000000          ;
     34    000000          ;       Description: Multiply two long objects in
                            IDATA
     35    000000          ;
     36    000000          ;                          S3 S2 S1 S0
     37    000000          ;                        * D3 D2 D1 D0
     38    000000          ;                          -----------
     39    000000          ;                                S0*D0
     40    000000          ;                             S1*D0
     41    000000          ;                             S0*D1
     42    000000          ;                          S2*D0
     43    000000          ;                          S1*D1
     44    000000          ;                          S0*D2
     45    000000          ;                       S3*D0
     46    000000          ;                       S2*D1
     47    000000          ;                       S1*D2
     48    000000          ;                     + S0*D3
     49    000000          ;                     ----------------
     50    000000          ;                     =    RR RR RR RR
     51    000000          ;                       
     52    000000          ;       Register input:
     53    000000          ;               R0 Points to LSB in the destination
                            object
     54    000000          ;               R1 Points to LSB in the source
                            object
     55    000000          ;
     56    000000          ;       Register output:
     57    000000          ;               A  = R2
     58    000000          ;               B    Is undefined
     59    000000          ;               CY   Is undefined
     60    000000          ;               R0 = R0+3
     61    000000          ;
     62    000000          ;       Stack usage: 4
     63    000000          ;
     64    000000          ;---------------------------------------------------
                           --------------------------
     65    000000                  MODULE  ?L_MUL          ; Replaceable
                            module
     66    000000                  RSEG    RCODE:CODE:NOROOT       
     67    000000                  PUBLIC  ?L_MUL
     68    000000                  PUBLIC  ?L_MUL_REW
     69    000000                  CFI BLOCK ?L_MUL USING cfi_common
     70    000000                  CFI NOFUNCTION
     71    000000          
     72    000000                  CFI     R0 undefined
     73    000000          
     74    000000 08       ?L_MUL: INC     R0
     75    000001 08               INC     R0
     76    000002 08               INC     R0
     77    000003          
     78    000003                  CFI ENDBLOCK ?L_MUL
     79    000003          
     80    000003                  REQUIRE x
     81    000003          
     82    000000                  RSEG    RCODE:CODE:NOROOT       
     83    000000                  CFI BLOCK ?L_MUL_REW USING cfi_common
     84    000000                  CFI NOFUNCTION
     85    000000          
     86    000000                  CFI     A  undefined
     87    000000                  CFI     B  undefined
     88    000000                  CFI     R0 undefined
     89    000000                  CFI     R1 undefined
     90    000000          
     91    000000          x:
     92    000000          ?L_MUL_REW:
     93    000000          
     94    000000 EA               MOV     A,R2
     95    000001 C0E0             PUSH    ACC
     96    000003              CFI CFA_MACHINE MACHINE_SP -(__SIZE_OF_RETADDR__
                            + 1)
     97    000003              CFI R2 Frame(CFA_MACHINE, __SIZE_OF_RETADDR__ +
                            1, 1)
     98    000003 EB               MOV     A,R3
     99    000004 C0E0             PUSH    ACC
    100    000006              CFI CFA_MACHINE MACHINE_SP -(__SIZE_OF_RETADDR__
                            + 2)
    101    000006              CFI R3 Frame(CFA_MACHINE, __SIZE_OF_RETADDR__ +
                            2, 1)
    102    000006 86F0             MOV     B,@R0   ; D3 * S0
    103    000008 E7               MOV     A,@R1
    104    000009 A4               MUL     AB
    105    00000A FA               MOV     R2,A
    106    00000B 18               DEC     R0
    107    00000C 09               INC     R1
    108    00000D          
    109    00000D 86F0             MOV     B,@R0   ; D2 * S1
    110    00000F E7               MOV     A,@R1
    111    000010 A4               MUL     AB
    112    000011 2A               ADD     A,R2
    113    000012 FA               MOV     R2,A
    114    000013 18               DEC     R0
    115    000014 09               INC     R1
    116    000015          
    117    000015 86F0             MOV     B,@R0   ; D1 * S2
    118    000017 E7               MOV     A,@R1
    119    000018 A4               MUL     AB
    120    000019 2A               ADD     A,R2
    121    00001A FA               MOV     R2,A
    122    00001B 18               DEC     R0
    123    00001C 09               INC     R1
    124    00001D          
    125    00001D 86F0             MOV     B,@R0   ; D0 * S3
    126    00001F E7               MOV     A,@R1
    127    000020 A4               MUL     AB
    128    000021 2A               ADD     A,R2
    129    000022 FA               MOV     R2,A
    130    000023 19               DEC     R1
    131    000024          
    132    000024 86F0             MOV     B,@R0   ; D0 * S2
    133    000026 E7               MOV     A,@R1
    134    000027 A4               MUL     AB
    135    000028 FB               MOV     R3,A
    136    000029 E5F0             MOV     A,B
    137    00002B 2A               ADD     A,R2
    138    00002C FA               MOV     R2,A
    139    00002D 19               DEC     R1
    140    00002E 08               INC     R0
    141    00002F          
    142    00002F 86F0             MOV     B,@R0   ; D1 * S1
    143    000031 E7               MOV     A,@R1
    144    000032 A4               MUL     AB
    145    000033 2B               ADD     A,R3
    146    000034 FB               MOV     R3,A
    147    000035 E5F0             MOV     A,B
    148    000037 3A               ADDC    A,R2
    149    000038 FA               MOV     R2,A
    150    000039 19               DEC     R1
    151    00003A 08               INC     R0
    152    00003B          
    153    00003B 86F0             MOV     B,@R0   ; D2 * S0
    154    00003D E7               MOV     A,@R1
    155    00003E A4               MUL     AB
    156    00003F 2B               ADD     A,R3
    157    000040 FB               MOV     R3,A
    158    000041 E5F0             MOV     A,B
    159    000043 3A               ADDC    A,R2
    160    000044 FA               MOV     R2,A
    161    000045 18               DEC     R0
    162    000046 18               DEC     R0
    163    000047 09               INC     R1
    164    000048          
    165    000048 86F0             MOV     B,@R0   ; D0 * S1
    166    00004A E7               MOV     A,@R1
    167    00004B A4               MUL     AB
    168    00004C C5F0             XCH     A,B
    169    00004E 2B               ADD     A,R3
    170    00004F FB               MOV     R3,A
    171    000050 E4               CLR     A
    172    000051 3A               ADDC    A,R2
    173    000052 FA               MOV     R2,A
    174    000053 19               DEC     R1
    175    000054 08               INC     R0
    176    000055          
    177    000055 E7               MOV     A,@R1   ; D1 * S0
    178    000056 C5F0             XCH     A,B
    179    000058 C6               XCH     A,@R0
    180    000059 A4               MUL     AB
    181    00005A 26               ADD     A,@R0
    182    00005B F6               MOV     @R0,A
    183    00005C E5F0             MOV     A,B
    184    00005E 3B               ADDC    A,R3
    185    00005F FB               MOV     R3,A
    186    000060 E4               CLR     A
    187    000061 3A               ADDC    A,R2
    188    000062 FA               MOV     R2,A
    189    000063 18               DEC     R0
    190    000064          
    191    000064 86F0             MOV     B,@R0   ; D0 * S0
    192    000066 E7               MOV     A,@R1
    193    000067 A4               MUL     AB
    194    000068 F6               MOV     @R0,A
    195    000069 E5F0             MOV     A,B
    196    00006B 08               INC     R0
    197    00006C 26               ADD     A,@R0
    198    00006D F6               MOV     @R0,A
    199    00006E E4               CLR     A
    200    00006F 3B               ADDC    A,R3
    201    000070 08               INC     R0
    202    000071 F6               MOV     @R0,A
    203    000072 E4               CLR     A
    204    000073 3A               ADDC    A,R2
    205    000074 08               INC     R0
    206    000075 F6               MOV     @R0,A
    207    000076          
    208    000076 D0E0             POP     ACC
    209    000078              CFI CFA_MACHINE MACHINE_SP -(__SIZE_OF_RETADDR__
                            + 1)
    210    000078 FB               MOV     R3,A
    211    000079              CFI R3 samevalue
    212    000079 D0E0             POP     ACC
    213    00007B              CFI CFA_MACHINE MACHINE_SP - __SIZE_OF_RETADDR__
    214    00007B FA               MOV     R2,A
    215    00007C              CFI R2 samevalue
    216    00007C 22               RET
    217    00007D                  CFI ENDBLOCK ?L_MUL_REW
    218    00007D                  ENDMOD


EOF                  DELIMITER 
\n                   DELIMITER 
                     DELIMITER 
!                    OPERATOR 
!=                   OPERATOR 
%                    OPERATOR 
&                    OPERATOR 
&&                   OPERATOR 
(                    OPERATOR 
(                    DELIMITER 
)                    OPERATOR 
)                    DELIMITER 
*                    OPERATOR 
+                    OPERATOR 
,                    DELIMITER 
-                    OPERATOR 
/                    OPERATOR 
:                    DELIMITER 
;                    DELIMITER 
;                    Target symbol: 23 
<                    OPERATOR 
<<                   OPERATOR 
<=                   OPERATOR 
<>                   OPERATOR 
=                    OPERATOR 
=                    DIRECTIVE 
==                   OPERATOR 
>                    OPERATOR 
>=                   OPERATOR 
>>                   OPERATOR 
?XSP                 Target symbol: 0 
@                    DELIMITER 
A                    REGISTER 
AB                   REGISTER 
ACALL                MNEMONIC 
ADD                  MNEMONIC 
ADDC                 MNEMONIC 
AJMP                 MNEMONIC 
ALIAS                DIRECTIVE 
ALIGN                DIRECTIVE 
ALIGNRAM             DIRECTIVE 
AND                  OPERATOR 
ANL                  MNEMONIC 
ARGFRAME             DIRECTIVE 
ASEG                 DIRECTIVE 
ASEGN                DIRECTIVE 
ASSIGN               DIRECTIVE 
B                    REGISTER 
BINAND               OPERATOR 
BINNOT               OPERATOR 
BINOR                OPERATOR 
BINXOR               OPERATOR 
BIT                  SEGMENT TYPE 
BITAND               OPERATOR 
BITNOT               OPERATOR 
BITOR                OPERATOR 
BITXOR               OPERATOR 
BREAK                DIRECTIVE 
BYTE                 Target symbol: 524288 
BYTE1                OPERATOR 
BYTE2                OPERATOR 
BYTE3                OPERATOR 
BYTE4                OPERATOR 
C                    Target symbol: 1 
CALL                 MNEMONIC 
CASE                 DIRECTIVE 
CASEOFF              DIRECTIVE 
CASEON               DIRECTIVE 
CFA_ESP16            Target symbol: 0 
CFA_ESP24            Target symbol: 0 
CFA_MACHINE          #define, value: CFA_SP, line:      37:3      516:3    517:3    519:3    519:3
                                                                    519:3    520:3    520:3    520:3
                                                                    520:3    521:3    521:3    521:3
                                                                    521:3    521:3       96       97
                                                                      100      101      209      213
CFA_PSP24            Target symbol: 0 
CFA_SPP              #define, value: CFA_PSP16, line:      21:3  
CFA_SPX              #define, value: CFA_XSP16, line:      23:3  
CFA_XSP24            Target symbol: 0 
CFI                  DIRECTIVE 
CFI_COMMON_DECLARE_CORE_COMMON MACRO 
CFI_COMMON_DECLARE_SAME_VALUE_FOR_ALL_REGISTERS
                     MACRO 
CFI_COMMON_DECLARE_UNDEFINED_FOR_ALL_DPTR_REGISTERS
                     MACRO 
CFI_NAMES_DECLARE_REGISTER_RESOURCES
                     MACRO 
CFI_NAMES_DECLARE_RETURN_RESOURCE
                     MACRO 
CFI_NAMES_DECLARE_STACKS MACRO 
CFI_banked_com       MACRO 
CFI_banked_nam       MACRO 
CFI_com              MACRO 
CFI_nam              MACRO 
CFI_pdata_enter_com  MACRO 
CFI_pdata_enter_nam  MACRO 
CJNE                 MNEMONIC 
CLR                  MNEMONIC 
CODE                 SEGMENT TYPE 
CODE                 DIRECTIVE 
COL                  DIRECTIVE 
COMMON               DIRECTIVE 
CONST                SEGMENT TYPE 
CONTINUE             DIRECTIVE 
CPL                  MNEMONIC 
CY                   Target symbol: 1 
DA                   MNEMONIC 
DATA                 SEGMENT TYPE 
DATA                 DIRECTIVE 
DATE                 OPERATOR 
DB                   DIRECTIVE 
DC16                 DIRECTIVE 
DC24                 DIRECTIVE 
DC32                 DIRECTIVE 
DC8                  DIRECTIVE 
DD                   DIRECTIVE 
DEC                  MNEMONIC 
DEFAULT              DIRECTIVE 
DEFINE               DIRECTIVE 
DIV                  MNEMONIC 
DJNZ                 MNEMONIC 
DPTR                 REGISTER 
DPTR_MASK_SYMBOLS    MACRO 
DS                   DIRECTIVE 
DS16                 DIRECTIVE 
DS24                 DIRECTIVE 
DS32                 DIRECTIVE 
DS8                  DIRECTIVE 
DT                   DIRECTIVE 
DW                   DIRECTIVE 
ELSE                 DIRECTIVE 
ELSEIF               DIRECTIVE 
ELSEIFS              DIRECTIVE 
ELSES                DIRECTIVE 
END                  DIRECTIVE 
ENDF                 DIRECTIVE 
ENDIF                DIRECTIVE 
ENDIFS               DIRECTIVE 
ENDM                 DIRECTIVE 
ENDMAC               DIRECTIVE 
ENDMOD               DIRECTIVE 
ENDR                 DIRECTIVE 
ENDS                 DIRECTIVE 
ENDW                 DIRECTIVE 
EQ                   OPERATOR 
EQU                  DIRECTIVE 
ESP16                Target symbol: 0 
ESP24                Target symbol: 0 
EVEN                 DIRECTIVE 
EXITM                DIRECTIVE 
EXPORT               DIRECTIVE 
EXTERN               DIRECTIVE 
EXTERNS_FOR_ALL_DPTR_SYMBOLS MACRO 
EXTRN                DIRECTIVE 
FAR                  SEGMENT TYPE 
FARCODE              SEGMENT TYPE 
FARCONST             SEGMENT TYPE 
FARDATA              SEGMENT TYPE 
FOR                  DIRECTIVE 
FUNCALL              DIRECTIVE 
FUNCTION             DIRECTIVE 
GE                   OPERATOR 
GT                   OPERATOR 
HIGH                 OPERATOR 
HUGE                 SEGMENT TYPE 
HUGECODE             SEGMENT TYPE 
HUGECONST            SEGMENT TYPE 
HUGEDATA             SEGMENT TYPE 
HWRD                 OPERATOR 
IDATA                SEGMENT TYPE 
IF                   DIRECTIVE 
IFS                  DIRECTIVE 
IMPORT               DIRECTIVE 
INC                  MNEMONIC 
JB                   MNEMONIC 
JBC                  MNEMONIC 
JC                   MNEMONIC 
JMP                  MNEMONIC 
JNB                  MNEMONIC 
JNC                  MNEMONIC 
JNZ                  MNEMONIC 
JZ                   MNEMONIC 
LCALL                MNEMONIC 
LE                   OPERATOR 
LIBRARY              DIRECTIVE 
LIMIT                DIRECTIVE 
LJMP                 MNEMONIC 
LOC                  OPERATOR 
LOCAL                DIRECTIVE 
LOCFRAME             DIRECTIVE 
LONG                 Target symbol: 2097152 
LOW                  OPERATOR 
LSTCND               DIRECTIVE 
LSTCOD               DIRECTIVE 
LSTCYC               DIRECTIVE 
LSTEXP               DIRECTIVE 
LSTMAC               DIRECTIVE 
LSTOUT               DIRECTIVE 
LSTPAG               DIRECTIVE 
LSTREP               DIRECTIVE 
LSTSAS               DIRECTIVE 
LSTXRF               DIRECTIVE 
LT                   OPERATOR 
LWRD                 OPERATOR 
MACHINE_MEM          #define, value: DATA, line:      39:3      516:3    517:3
MACHINE_SP           #define, value: SP, line:      38:3      516:3    516:3    517:3    517:3
                                                                    519:3    520:3    521:3       96
                                                                      100      209      213
MACRO                DIRECTIVE 
MOD                  OPERATOR 
MODULE               DIRECTIVE 
MOV                  MNEMONIC 
MOVC                 MNEMONIC 
MOVX                 MNEMONIC 
MUL                  MNEMONIC 
NAME                 DIRECTIVE 
NE                   OPERATOR 
NEAR                 SEGMENT TYPE 
NEARCODE             SEGMENT TYPE 
NEARCONST            SEGMENT TYPE 
NEARDATA             SEGMENT TYPE 
NOP                  MNEMONIC 
NOROOT               SEGMENT TYPE 
NOT                  OPERATOR 
NPAGE                SEGMENT TYPE 
ODD                  DIRECTIVE 
OR                   OPERATOR 
ORG                  DIRECTIVE 
ORL                  MNEMONIC 
PAGE                 DIRECTIVE 
PAGSIZ               DIRECTIVE 
PC                   REGISTER 
POP                  MNEMONIC 
PRM                  OPERATOR 
PROGRAM              DIRECTIVE 
PSP24                Target symbol: 0 
PUBLIC               DIRECTIVE 
PUBWEAK              DIRECTIVE 
PUSH                 MNEMONIC 
R0                   REGISTER 
R1                   REGISTER 
R2                   REGISTER 
R3                   REGISTER 
R4                   REGISTER 
R5                   REGISTER 
R6                   REGISTER 
R7                   REGISTER 
RADIX                DIRECTIVE 
READ                 Target symbol: 2048 
REGISTER             SEGMENT TYPE 
REORDER              SEGMENT TYPE 
REPEAT               DIRECTIVE 
REPT                 DIRECTIVE 
REPTC                DIRECTIVE 
REPTI                DIRECTIVE 
REQUIRE              DIRECTIVE 
RET                  MNEMONIC 
RETI                 MNEMONIC 
RL                   MNEMONIC 
RLC                  MNEMONIC 
ROOT                 SEGMENT TYPE 
RR                   MNEMONIC 
RRC                  MNEMONIC 
RSEG                 DIRECTIVE 
RTMODEL              DIRECTIVE 
S                    PREFIX 
SET                  DIRECTIVE 
SETB                 MNEMONIC 
SFB                  OPERATOR 
SFE                  OPERATOR 
SFRTYPE              DIRECTIVE 
SHL                  OPERATOR 
SHR                  OPERATOR 
SIZEOF               OPERATOR 
SJMP                 MNEMONIC 
SORT                 SEGMENT TYPE 
SPP                  #define, value: PSP16, line:      22:3      521:3
SPX                  #define, value: XSP16, line:      24:3  
STACK                DIRECTIVE 
SUBB                 MNEMONIC 
SWAP                 MNEMONIC 
SWITCH               DIRECTIVE 
SYMBOL               DIRECTIVE 
UGT                  OPERATOR 
ULT                  OPERATOR 
UNTIL                DIRECTIVE 
UNTYPED              SEGMENT TYPE 
WHILE                DIRECTIVE 
WORD                 Target symbol: 1048576 
WRITE                Target symbol: 4096 
XCH                  MNEMONIC 
XCHD                 MNEMONIC 
XDATA                SEGMENT TYPE 
XOR                  OPERATOR 
XRL                  MNEMONIC 
XSP24                Target symbol: 0 
XSP_H                #define, value: ?XSP+1, line:      24:1  
XSP_L                #define, value: ?XSP, line:      23:1  
ZPAGE                SEGMENT TYPE 
[                    DELIMITER 
]                    DELIMITER 
^                    OPERATOR 
_LOW_IMAGE_          #define, value: 1, line:         0  
__BUILD_NUMBER__     #define,            line:         0  
__CALLING_CONVENTION__ #define, value: 4, line:         0  
__CC_DO__            #define, value: 0, line:      45:2  
__CC_ER__            #define, value: 5, line:      50:2  
__CC_IO__            #define, value: 1, line:      46:2  
__CC_IR__            #define, value: 2, line:      47:2  
__CC_PR__            #define, value: 3, line:      48:2  
__CC_XR__            #define, value: 4, line:      49:2  
__CM_BANKED_EXT2__   #define, value: 4, line:      31:2  
__CM_BANKED__        #define, value: 2, line:      29:2  
__CM_FAR__           #define, value: 3, line:      30:2       42:3    516:3    519:3
__CM_NEAR__          #define, value: 1, line:      28:2  
__CM_TINY__          #define, value: 0, line:      27:2  
__CODE_MODEL__       #define, value: 1, line:         0       42:3    516:3    519:3
__CORE_EXTENDED1__   #define, value: 2, line:      21:2       67:2    521:3
__CORE_EXTENDED2__   #define, value: 3, line:      22:2  
__CORE_PLAIN__       #define, value: 1, line:      20:2  
__CORE_TINY__        #define, value: 0, line:      19:2  
__CORE__             #define, value: 1, line:         0       67:2    521:3
__DATA_MODEL__       #define, value: 2, line:         0  
__DATE__             #define,            line:         0  
__DM_FAR__           #define, value: 4, line:      40:2  
__DM_GENERIC__       #define, value: 3, line:      39:2  
__DM_LARGE__         #define, value: 2, line:      38:2  
__DM_SMALL__         #define, value: 1, line:      37:2  
__DM_TINY__          #define, value: 0, line:      36:2  
__DPTR_SEPARATE__    Target symbol: 0 
__DPTR_SHADOWED__    Target symbol: 0 
__EXTENDED_STACK__   Target symbol: 0 
__FILE__             #define,            line:         0  
__IAR_SYSTEMS_ASM    #define,            line:         0  
__IAR_SYSTEMS_ASM__  #define,            line:         0  
__INC_DPSEL_SELECT__ Target symbol: 0 
__LINE__             #define,            line:         0  
__NUMBER_OF_DPTRS__  #define, value: 1, line:         0       56:2    516:3    516:3    516:3
                                                                    516:3    516:3    516:3    516:3
                                                                    516:3    516:3    516:3    516:3
                                                                    516:3    516:3    516:3    516:3
                                                                    517:3    517:3    517:3    517:3
                                                                    517:3    517:3    517:3    517:3
                                                                    517:3    517:3    517:3    517:3
                                                                    517:3    517:3    517:3    519:3
                                                                    519:3    519:3    519:3    519:3
                                                                    519:3    519:3    519:3    519:3
                                                                    519:3    519:3    519:3    519:3
                                                                    519:3    519:3    520:3    520:3
                                                                    520:3    520:3    520:3    520:3
                                                                    520:3    520:3    520:3    520:3
                                                                    520:3    520:3    520:3    520:3
                                                                    520:3    521:3    521:3    521:3
                                                                    521:3    521:3    521:3    521:3
                                                                    521:3    521:3    521:3    521:3
                                                                    521:3    521:3    521:3    521:3
                                                                     97:1
__SIZE_OF_RETADDR__  #define, value: 2, line:      45:3      519:3    521:3    521:3       96
                                                                       97      100      101      209
                                                                      213
__SUBVERSION__       #define,            line:         0  
__TID__              #define,            line:         0  
__TIME__             #define,            line:         0  
__VER__              #define,            line:         0  
__XOR_DPSEL_SELECT__ Target symbol: 0 
bytes                Target symbol: 0 
cfi_DATA_BLOCK_end   MACRO 
cfi_DATA_BLOCK_start MACRO 
cfi_PUSH_ISTACK_RET_DEFS_CONST_DEPEND
                     MACRO 
cfi_PUSH_ISTACK_RET_DEFS_REG_DEPEND
                     MACRO 
cfi_PUSH_REG         MACRO 
cfi_REMEMBER_STATE   MACRO 
cfi_RESTORE_STATE    MACRO 
cfi_SET_REG          MACRO 
cfi_STACK_ALLOC      MACRO 
cfi_STACK_DEALL      MACRO 
chip                 #define, value: 2510, line:         0  
constant             Target symbol: 0 
define               PREPROCESSOR DIRECTIVE 
defined              Target symbol: 0 
elif                 PREPROCESSOR DIRECTIVE 
else                 PREPROCESSOR DIRECTIVE 
endif                PREPROCESSOR DIRECTIVE 
error                PREPROCESSOR DIRECTIVE 
if                   PREPROCESSOR DIRECTIVE 
ifdef                PREPROCESSOR DIRECTIVE 
ifndef               PREPROCESSOR DIRECTIVE 
include              PREPROCESSOR DIRECTIVE 
line                 PREPROCESSOR DIRECTIVE 
message              PREPROCESSOR DIRECTIVE 
name                 Target symbol: 0 
no                   Target symbol: 0 
pragma               PREPROCESSOR DIRECTIVE 
reg                  Target symbol: 0 
reg_from             Target symbol: 0 
reg_to               Target symbol: 0 
undef                PREPROCESSOR DIRECTIVE 
|                    OPERATOR 
||                   OPERATOR 
~                    OPERATOR 

Segment             Type 	Mode
----------------------------------------
RCODE               CODE  	REL 
__EXTERNS           CODE  	ABS Org:0 

Label               Mode   Type                   Segment    Value/Offset
------------------------------------------------------------------------------
?L_MUL              REL    CONST PUB UNTYP.       RCODE      0 
?L_MUL_REW          REL    CONST PUB UNTYP.       RCODE      0 
?RET                ABS    CONST UNTYP.           ASEG       Not solved 
?RET_EXT            ABS    CONST UNTYP.           ASEG       Not solved 
?RET_HIGH           ABS    CONST UNTYP.           ASEG       Not solved 
?RET_LOW            ABS    CONST UNTYP.           ASEG       Not solved 
?V_START            ABS    CONST UNTYP.           ASEG       Not solved 
AC                  ABS    CONST UNTYP.           ASEG       D6 
ACC                 ABS    CONST UNTYP.           ASEG       E0 
B                   ABS    CONST UNTYP.           ASEG       F0 
BASEADDRESS         ABS    CONST UNTYP.           ASEG       Not solved 
BLOCK               REL    CONST UNTYP.           RCODE      Not solved 
Base                ABS    CONST UNTYP.           ASEG       Not solved 
CFA_PSP16           ABS    CONST UNTYP.           ASEG       Not solved 
CFA_SP              ABS    CONST UNTYP.           ASEG       Not solved 
CFA_XSP16           ABS    CONST UNTYP.           ASEG       Not solved 
CODEALIGN           ABS    CONST UNTYP.           ASEG       Not solved 
COMMON              ABS    CONST UNTYP.           ASEG       Not solved 
CONCAT              ABS    CONST UNTYP.           ASEG       Not solved 
DATAALIGN           ABS    CONST UNTYP.           ASEG       Not solved 
DPH                 ABS    CONST UNTYP.           ASEG       83 
DPH0                ABS    CONST UNTYP.           ASEG       Not solved 
DPL                 ABS    CONST UNTYP.           ASEG       82 
DPL0                ABS    CONST UNTYP.           ASEG       Not solved 
DPTR0               ABS    CONST UNTYP.           ASEG       Not solved 
ENDBLOCK            REL    CONST UNTYP.           RCODE      Not solved 
ENDCOMMON           ABS    CONST UNTYP.           ASEG       Not solved 
ENDNAMES            ABS    CONST UNTYP.           ASEG       Not solved 
EXTENDS             ABS    CONST UNTYP.           ASEG       Not solved 
EXTI0               ABS    CONST UNTYP.           ASEG       3 
EXTI1               ABS    CONST UNTYP.           ASEG       13 
F0                  ABS    CONST UNTYP.           ASEG       D5 
FRAMECELL           ABS    CONST UNTYP.           ASEG       Not solved 
Frame               ABS    CONST UNTYP.           ASEG       Not solved 
NAMES               ABS    CONST UNTYP.           ASEG       Not solved 
NOFUNCTION          REL    CONST UNTYP.           RCODE      Not solved 
OV                  ABS    CONST UNTYP.           ASEG       D2 
P                   ABS    CONST UNTYP.           ASEG       D0 
PSP16               ABS    CONST UNTYP.           ASEG       Not solved 
PSPH                ABS    CONST UNTYP.           ASEG       Not solved 
PSPL                ABS    CONST UNTYP.           ASEG       Not solved 
PSW                 ABS    CONST UNTYP.           ASEG       D0 
RESET               ABS    CONST UNTYP.           ASEG       0 
RETH_CELL           ABS    CONST UNTYP.           ASEG       Not solved 
RETL_CELL           ABS    CONST UNTYP.           ASEG       Not solved 
RETURNADDRESS       ABS    CONST UNTYP.           ASEG       Not solved 
RS0                 ABS    CONST UNTYP.           ASEG       D3 
RS1                 ABS    CONST UNTYP.           ASEG       D4 
Resource            ABS    CONST UNTYP.           ASEG       Not solved 
ResourceParts       ABS    CONST UNTYP.           ASEG       Not solved 
SINT                ABS    CONST UNTYP.           ASEG       23 
SP                  ABS    CONST UNTYP.           ASEG       81 
SameValue           ABS    CONST UNTYP.           ASEG       Not solved 
StackFrame          ABS    CONST UNTYP.           ASEG       Not solved 
TID                 ABS    CONST UNTYP.           ASEG       2000 
TIMER0              ABS    CONST UNTYP.           ASEG       B 
TIMER1              ABS    CONST UNTYP.           ASEG       1B 
USING               ABS    CONST UNTYP.           ASEG       Not solved 
Undefined           ABS    CONST UNTYP.           ASEG       Not solved 
V0                  ABS    CONST UNTYP.           ASEG       Not solved 
V1                  ABS    CONST UNTYP.           ASEG       Not solved 
V10                 ABS    CONST UNTYP.           ASEG       Not solved 
V11                 ABS    CONST UNTYP.           ASEG       Not solved 
V12                 ABS    CONST UNTYP.           ASEG       Not solved 
V13                 ABS    CONST UNTYP.           ASEG       Not solved 
V14                 ABS    CONST UNTYP.           ASEG       Not solved 
V15                 ABS    CONST UNTYP.           ASEG       Not solved 
V16                 ABS    CONST UNTYP.           ASEG       Not solved 
V17                 ABS    CONST UNTYP.           ASEG       Not solved 
V18                 ABS    CONST UNTYP.           ASEG       Not solved 
V19                 ABS    CONST UNTYP.           ASEG       Not solved 
V2                  ABS    CONST UNTYP.           ASEG       Not solved 
V20                 ABS    CONST UNTYP.           ASEG       Not solved 
V21                 ABS    CONST UNTYP.           ASEG       Not solved 
V22                 ABS    CONST UNTYP.           ASEG       Not solved 
V23                 ABS    CONST UNTYP.           ASEG       Not solved 
V24                 ABS    CONST UNTYP.           ASEG       Not solved 
V25                 ABS    CONST UNTYP.           ASEG       Not solved 
V26                 ABS    CONST UNTYP.           ASEG       Not solved 
V27                 ABS    CONST UNTYP.           ASEG       Not solved 
V28                 ABS    CONST UNTYP.           ASEG       Not solved 
V29                 ABS    CONST UNTYP.           ASEG       Not solved 
V3                  ABS    CONST UNTYP.           ASEG       Not solved 
V30                 ABS    CONST UNTYP.           ASEG       Not solved 
V31                 ABS    CONST UNTYP.           ASEG       Not solved 
V4                  ABS    CONST UNTYP.           ASEG       Not solved 
V5                  ABS    CONST UNTYP.           ASEG       Not solved 
V6                  ABS    CONST UNTYP.           ASEG       Not solved 
V7                  ABS    CONST UNTYP.           ASEG       Not solved 
V8                  ABS    CONST UNTYP.           ASEG       Not solved 
V9                  ABS    CONST UNTYP.           ASEG       Not solved 
VB                  ABS    CONST UNTYP.           ASEG       Not solved 
VirtualResource     ABS    CONST UNTYP.           ASEG       Not solved 
XSP16               ABS    CONST UNTYP.           ASEG       Not solved 
XSPH                ABS    CONST UNTYP.           ASEG       Not solved 
XSPL                ABS    CONST UNTYP.           ASEG       Not solved 
cfi_banked_common   ABS    CONST UNTYP.           ASEG       Not solved 
cfi_banked_names    ABS    CONST UNTYP.           ASEG       Not solved 
cfi_common          ABS    CONST UNTYP.           ASEG       Not solved 
cfi_names           ABS    CONST UNTYP.           ASEG       Not solved 
cfi_pdata_enter_commonABS    CONST UNTYP.           ASEG       Not solved 
cfi_pdata_enter_namesABS    CONST UNTYP.           ASEG       Not solved 
samevalue           ABS    CONST UNTYP.           ASEG       Not solved 
sub                 ABS    CONST UNTYP.           ASEG       Not solved 
undefined           ABS    CONST UNTYP.           ASEG       Not solved 
x                   REL    CONST UNTYP.           RCODE      0 


##############################
#          CRC:FAF6          #
#        Errors:   0         #
#        Warnings: 0         #
#         Bytes: 128         #
##############################



###############################################################################
#                                                                             #
#     IAR Systems 8051 Assembler V7.30A/W32 06/Apr/2017  13:54:37             #
#     Copyright 2007 IAR Systems. All rights reserved.                        #
#                                                                             #
#           Target option =  plain                                            #
#           Source file   =  E:\1500V_Test2\ED\code\Library\clib\iar_long.s51 #
#           List file     =  E:\1500V_Test2\ED\iar\Build .hex for CC2510\List\iar_long.lst#
#           Object file   =  E:\1500V_Test2\ED\iar\Build .hex for CC2510\Obj\iar_long.r51#
#           Command line  =  E:\1500V_Test2\ED\code\Library\clib\iar_long.s51 #
#                            -v0 -D__CORE__=1 -D__CODE_MODEL__=1              #
#                            -D__DATA_MODEL__=2 -D__CALLING_CONVENTION__=4    #
#                            -D__NUMBER_OF_DPTRS__=1                          #
#                            -OE:\1500V_Test2\ED\iar\Build .hex for CC2510\Obj\ #
#                            -s+ -M<>                                         #
#                            -LE:\1500V_Test2\ED\iar\Build .hex for CC2510\List\ #
#                            -t8 -xDI -IC:\IARSystems-CD-730B\8051\INC\       #
#                            -Dchip=2510 -D_LOW_IMAGE_ -w+                    #
#                                                                             #
###############################################################################

    219    000000          
    220    000000          
    221    000000          ;---------------------------------------------------
                           --------------------------
    222    000000          ;
    223    000000          ;       Functions: (Un)Signed long multiplication
                            with an unsigned character
    224    000000          ;
    225    000000          ;- - - - - - - - - - - - - - - - - - - - - - - - - -
                            - - - - - - - - - - - - -
    226    000000          ;
    227    000000          ;       Function: ?L_MUL8
    228    000000          ;
    229    000000          ;       Description: Multiply a long object in IDATA
                            with an unsigned
    230    000000          ;                    character.
    231    000000          ;
    232    000000          ;       Register input:
    233    000000          ;               R0 Points to LSB in the long
                            object
    234    000000          ;               R1 Contains the unsigned character.
    235    000000          ;
    236    000000          ;       Register output:
    237    000000          ;               A    MSB of the result.
    238    000000          ;               B    Undefined.
    239    000000          ;               CY   Undefined.
    240    000000          ;               R0 = R0+3
    241    000000          ;               R1   Not changed.
    242    000000          ;
    243    000000          ;       Stack usage: 2
    244    000000          ;
    245    000000          ;---------------------------------------------------
                           --------------------------
    246    000000                  MODULE  ?L_MUL8
    247    000000                  RSEG    RCODE:CODE:NOROOT       
    248    000000                  PUBLIC  ?L_MUL8
    249    000000                  PUBLIC  ?L_MUL8_REW
    250    000000          
    251    000000                  CFI BLOCK ?L_MUL8_REW USING cfi_common
    252    000000                  CFI NOFUNCTION
    253    000000          
    254    000000                  CFI     R0 undefined
    255    000000          
    256    000000          ?L_MUL8_REW:
    257    000000          
    258    000000 18               DEC     R0
    259    000001 18               DEC     R0
    260    000002 18               DEC     R0
    261    000003          
    262    000003                  CFI ENDBLOCK ?L_MUL8_REW
    263    000003                  REQUIRE x
    264    000003          
    265    000000                  RSEG    RCODE:CODE:NOROOT       
    266    000000                  CFI BLOCK ?L_MUL8 USING cfi_common
    267    000000                  CFI NOFUNCTION
    268    000000          
    269    000000                  CFI     A  undefined
    270    000000                  CFI     B  undefined
    271    000000                  CFI     R0 undefined
    272    000000          
    273    000000          x:
    274    000000          ?L_MUL8:
    275    000000          
    276    000000 E6               MOV     A,@R0
    277    000001 89F0             MOV     B,R1
    278    000003 A4               MUL     AB
    279    000004 F6               MOV     @R0,A
    280    000005 08               INC     R0
    281    000006 E9               MOV     A,R1
    282    000007 C5F0             XCH     A,B
    283    000009          
    284    000009 C6               XCH     A,@R0
    285    00000A A4               MUL     AB
    286    00000B 26               ADD     A,@R0
    287    00000C F6               MOV     @R0,A
    288    00000D 08               INC     R0
    289    00000E E4               CLR     A
    290    00000F 35F0             ADDC    A,B
    291    000011          
    292    000011 C6               XCH     A,@R0
    293    000012 89F0             MOV     B,R1
    294    000014 A4               MUL     AB
    295    000015 26               ADD     A,@R0
    296    000016 F6               MOV     @R0,A
    297    000017 08               INC     R0
    298    000018 E4               CLR     A
    299    000019 35F0             ADDC    A,B
    300    00001B          
    301    00001B C6               XCH     A,@R0
    302    00001C 89F0             MOV     B,R1
    303    00001E A4               MUL     AB
    304    00001F 26               ADD     A,@R0
    305    000020 F6               MOV     @R0,A
    306    000021 22               RET
    307    000022                  CFI ENDBLOCK ?L_MUL8
    308    000022                  ENDMOD


EOF                  DELIMITER 
\n                   DELIMITER 
                     DELIMITER 
!                    OPERATOR 
!=                   OPERATOR 
%                    OPERATOR 
&                    OPERATOR 
&&                   OPERATOR 
(                    OPERATOR 
(                    DELIMITER 
)                    OPERATOR 
)                    DELIMITER 
*                    OPERATOR 
+                    OPERATOR 
,                    DELIMITER 
-                    OPERATOR 
/                    OPERATOR 
:                    DELIMITER 
;                    DELIMITER 
;                    Target symbol: 23 
<                    OPERATOR 
<<                   OPERATOR 
<=                   OPERATOR 
<>                   OPERATOR 
=                    OPERATOR 
=                    DIRECTIVE 
==                   OPERATOR 
>                    OPERATOR 
>=                   OPERATOR 
>>                   OPERATOR 
?XSP                 Target symbol: 0 
@                    DELIMITER 
A                    REGISTER 
AB                   REGISTER 
ACALL                MNEMONIC 
ADD                  MNEMONIC 
ADDC                 MNEMONIC 
AJMP                 MNEMONIC 
ALIAS                DIRECTIVE 
ALIGN                DIRECTIVE 
ALIGNRAM             DIRECTIVE 
AND                  OPERATOR 
ANL                  MNEMONIC 
ARGFRAME             DIRECTIVE 
ASEG                 DIRECTIVE 
ASEGN                DIRECTIVE 
ASSIGN               DIRECTIVE 
B                    REGISTER 
BINAND               OPERATOR 
BINNOT               OPERATOR 
BINOR                OPERATOR 
BINXOR               OPERATOR 
BIT                  SEGMENT TYPE 
BITAND               OPERATOR 
BITNOT               OPERATOR 
BITOR                OPERATOR 
BITXOR               OPERATOR 
BREAK                DIRECTIVE 
BYTE                 Target symbol: 524288 
BYTE1                OPERATOR 
BYTE2                OPERATOR 
BYTE3                OPERATOR 
BYTE4                OPERATOR 
C                    Target symbol: 1 
CALL                 MNEMONIC 
CASE                 DIRECTIVE 
CASEOFF              DIRECTIVE 
CASEON               DIRECTIVE 
CFA_ESP16            Target symbol: 0 
CFA_ESP24            Target symbol: 0 
CFA_MACHINE          #define, value: CFA_SP, line:      37:3      516:3    517:3    519:3    519:3
                                                                    519:3    520:3    520:3    520:3
                                                                    520:3    521:3    521:3    521:3
                                                                    521:3    521:3       96       97
                                                                      100      101      209      213
CFA_PSP24            Target symbol: 0 
CFA_SPP              #define, value: CFA_PSP16, line:      21:3  
CFA_SPX              #define, value: CFA_XSP16, line:      23:3  
CFA_XSP24            Target symbol: 0 
CFI                  DIRECTIVE 
CFI_COMMON_DECLARE_CORE_COMMON MACRO 
CFI_COMMON_DECLARE_SAME_VALUE_FOR_ALL_REGISTERS
                     MACRO 
CFI_COMMON_DECLARE_UNDEFINED_FOR_ALL_DPTR_REGISTERS
                     MACRO 
CFI_NAMES_DECLARE_REGISTER_RESOURCES
                     MACRO 
CFI_NAMES_DECLARE_RETURN_RESOURCE
                     MACRO 
CFI_NAMES_DECLARE_STACKS MACRO 
CFI_banked_com       MACRO 
CFI_banked_nam       MACRO 
CFI_com              MACRO 
CFI_nam              MACRO 
CFI_pdata_enter_com  MACRO 
CFI_pdata_enter_nam  MACRO 
CJNE                 MNEMONIC 
CLR                  MNEMONIC 
CODE                 SEGMENT TYPE 
CODE                 DIRECTIVE 
COL                  DIRECTIVE 
COMMON               DIRECTIVE 
CONST                SEGMENT TYPE 
CONTINUE             DIRECTIVE 
CPL                  MNEMONIC 
CY                   Target symbol: 1 
DA                   MNEMONIC 
DATA                 SEGMENT TYPE 
DATA                 DIRECTIVE 
DATE                 OPERATOR 
DB                   DIRECTIVE 
DC16                 DIRECTIVE 
DC24                 DIRECTIVE 
DC32                 DIRECTIVE 
DC8                  DIRECTIVE 
DD                   DIRECTIVE 
DEC                  MNEMONIC 
DEFAULT              DIRECTIVE 
DEFINE               DIRECTIVE 
DIV                  MNEMONIC 
DJNZ                 MNEMONIC 
DPTR                 REGISTER 
DPTR_MASK_SYMBOLS    MACRO 
DS                   DIRECTIVE 
DS16                 DIRECTIVE 
DS24                 DIRECTIVE 
DS32                 DIRECTIVE 
DS8                  DIRECTIVE 
DT                   DIRECTIVE 
DW                   DIRECTIVE 
ELSE                 DIRECTIVE 
ELSEIF               DIRECTIVE 
ELSEIFS              DIRECTIVE 
ELSES                DIRECTIVE 
END                  DIRECTIVE 
ENDF                 DIRECTIVE 
ENDIF                DIRECTIVE 
ENDIFS               DIRECTIVE 
ENDM                 DIRECTIVE 
ENDMAC               DIRECTIVE 
ENDMOD               DIRECTIVE 
ENDR                 DIRECTIVE 
ENDS                 DIRECTIVE 
ENDW                 DIRECTIVE 
EQ                   OPERATOR 
EQU                  DIRECTIVE 
ESP16                Target symbol: 0 
ESP24                Target symbol: 0 
EVEN                 DIRECTIVE 
EXITM                DIRECTIVE 
EXPORT               DIRECTIVE 
EXTERN               DIRECTIVE 
EXTERNS_FOR_ALL_DPTR_SYMBOLS MACRO 
EXTRN                DIRECTIVE 
FAR                  SEGMENT TYPE 
FARCODE              SEGMENT TYPE 
FARCONST             SEGMENT TYPE 
FARDATA              SEGMENT TYPE 
FOR                  DIRECTIVE 
FUNCALL              DIRECTIVE 
FUNCTION             DIRECTIVE 
GE                   OPERATOR 
GT                   OPERATOR 
HIGH                 OPERATOR 
HUGE                 SEGMENT TYPE 
HUGECODE             SEGMENT TYPE 
HUGECONST            SEGMENT TYPE 
HUGEDATA             SEGMENT TYPE 
HWRD                 OPERATOR 
IDATA                SEGMENT TYPE 
IF                   DIRECTIVE 
IFS                  DIRECTIVE 
IMPORT               DIRECTIVE 
INC                  MNEMONIC 
JB                   MNEMONIC 
JBC                  MNEMONIC 
JC                   MNEMONIC 
JMP                  MNEMONIC 
JNB                  MNEMONIC 
JNC                  MNEMONIC 
JNZ                  MNEMONIC 
JZ                   MNEMONIC 
LCALL                MNEMONIC 
LE                   OPERATOR 
LIBRARY              DIRECTIVE 
LIMIT                DIRECTIVE 
LJMP                 MNEMONIC 
LOC                  OPERATOR 
LOCAL                DIRECTIVE 
LOCFRAME             DIRECTIVE 
LONG                 Target symbol: 2097152 
LOW                  OPERATOR 
LSTCND               DIRECTIVE 
LSTCOD               DIRECTIVE 
LSTCYC               DIRECTIVE 
LSTEXP               DIRECTIVE 
LSTMAC               DIRECTIVE 
LSTOUT               DIRECTIVE 
LSTPAG               DIRECTIVE 
LSTREP               DIRECTIVE 
LSTSAS               DIRECTIVE 
LSTXRF               DIRECTIVE 
LT                   OPERATOR 
LWRD                 OPERATOR 
MACHINE_MEM          #define, value: DATA, line:      39:3      516:3    517:3
MACHINE_SP           #define, value: SP, line:      38:3      516:3    516:3    517:3    517:3
                                                                    519:3    520:3    521:3       96
                                                                      100      209      213
MACRO                DIRECTIVE 
MOD                  OPERATOR 
MODULE               DIRECTIVE 
MOV                  MNEMONIC 
MOVC                 MNEMONIC 
MOVX                 MNEMONIC 
MUL                  MNEMONIC 
NAME                 DIRECTIVE 
NE                   OPERATOR 
NEAR                 SEGMENT TYPE 
NEARCODE             SEGMENT TYPE 
NEARCONST            SEGMENT TYPE 
NEARDATA             SEGMENT TYPE 
NOP                  MNEMONIC 
NOROOT               SEGMENT TYPE 
NOT                  OPERATOR 
NPAGE                SEGMENT TYPE 
ODD                  DIRECTIVE 
OR                   OPERATOR 
ORG                  DIRECTIVE 
ORL                  MNEMONIC 
PAGE                 DIRECTIVE 
PAGSIZ               DIRECTIVE 
PC                   REGISTER 
POP                  MNEMONIC 
PRM                  OPERATOR 
PROGRAM              DIRECTIVE 
PSP24                Target symbol: 0 
PUBLIC               DIRECTIVE 
PUBWEAK              DIRECTIVE 
PUSH                 MNEMONIC 
R0                   REGISTER 
R1                   REGISTER 
R2                   REGISTER 
R3                   REGISTER 
R4                   REGISTER 
R5                   REGISTER 
R6                   REGISTER 
R7                   REGISTER 
RADIX                DIRECTIVE 
READ                 Target symbol: 2048 
REGISTER             SEGMENT TYPE 
REORDER              SEGMENT TYPE 
REPEAT               DIRECTIVE 
REPT                 DIRECTIVE 
REPTC                DIRECTIVE 
REPTI                DIRECTIVE 
REQUIRE              DIRECTIVE 
RET                  MNEMONIC 
RETI                 MNEMONIC 
RL                   MNEMONIC 
RLC                  MNEMONIC 
ROOT                 SEGMENT TYPE 
RR                   MNEMONIC 
RRC                  MNEMONIC 
RSEG                 DIRECTIVE 
RTMODEL              DIRECTIVE 
S                    PREFIX 
SET                  DIRECTIVE 
SETB                 MNEMONIC 
SFB                  OPERATOR 
SFE                  OPERATOR 
SFRTYPE              DIRECTIVE 
SHL                  OPERATOR 
SHR                  OPERATOR 
SIZEOF               OPERATOR 
SJMP                 MNEMONIC 
SORT                 SEGMENT TYPE 
SPP                  #define, value: PSP16, line:      22:3      521:3
SPX                  #define, value: XSP16, line:      24:3  
STACK                DIRECTIVE 
SUBB                 MNEMONIC 
SWAP                 MNEMONIC 
SWITCH               DIRECTIVE 
SYMBOL               DIRECTIVE 
UGT                  OPERATOR 
ULT                  OPERATOR 
UNTIL                DIRECTIVE 
UNTYPED              SEGMENT TYPE 
WHILE                DIRECTIVE 
WORD                 Target symbol: 1048576 
WRITE                Target symbol: 4096 
XCH                  MNEMONIC 
XCHD                 MNEMONIC 
XDATA                SEGMENT TYPE 
XOR                  OPERATOR 
XRL                  MNEMONIC 
XSP24                Target symbol: 0 
XSP_H                #define, value: ?XSP+1, line:      24:1  
XSP_L                #define, value: ?XSP, line:      23:1  
ZPAGE                SEGMENT TYPE 
[                    DELIMITER 
]                    DELIMITER 
^                    OPERATOR 
_LOW_IMAGE_          #define, value: 1, line:         0  
__BUILD_NUMBER__     #define,            line:         0  
__CALLING_CONVENTION__ #define, value: 4, line:         0  
__CC_DO__            #define, value: 0, line:      45:2  
__CC_ER__            #define, value: 5, line:      50:2  
__CC_IO__            #define, value: 1, line:      46:2  
__CC_IR__            #define, value: 2, line:      47:2  
__CC_PR__            #define, value: 3, line:      48:2  
__CC_XR__            #define, value: 4, line:      49:2  
__CM_BANKED_EXT2__   #define, value: 4, line:      31:2  
__CM_BANKED__        #define, value: 2, line:      29:2  
__CM_FAR__           #define, value: 3, line:      30:2       42:3    516:3    519:3
__CM_NEAR__          #define, value: 1, line:      28:2  
__CM_TINY__          #define, value: 0, line:      27:2  
__CODE_MODEL__       #define, value: 1, line:         0       42:3    516:3    519:3
__CORE_EXTENDED1__   #define, value: 2, line:      21:2       67:2    521:3
__CORE_EXTENDED2__   #define, value: 3, line:      22:2  
__CORE_PLAIN__       #define, value: 1, line:      20:2  
__CORE_TINY__        #define, value: 0, line:      19:2  
__CORE__             #define, value: 1, line:         0       67:2    521:3
__DATA_MODEL__       #define, value: 2, line:         0  
__DATE__             #define,            line:         0  
__DM_FAR__           #define, value: 4, line:      40:2  
__DM_GENERIC__       #define, value: 3, line:      39:2  
__DM_LARGE__         #define, value: 2, line:      38:2  
__DM_SMALL__         #define, value: 1, line:      37:2  
__DM_TINY__          #define, value: 0, line:      36:2  
__DPTR_SEPARATE__    Target symbol: 0 
__DPTR_SHADOWED__    Target symbol: 0 
__EXTENDED_STACK__   Target symbol: 0 
__FILE__             #define,            line:         0  
__IAR_SYSTEMS_ASM    #define,            line:         0  
__IAR_SYSTEMS_ASM__  #define,            line:         0  
__INC_DPSEL_SELECT__ Target symbol: 0 
__LINE__             #define,            line:         0  
__NUMBER_OF_DPTRS__  #define, value: 1, line:         0       56:2    516:3    516:3    516:3
                                                                    516:3    516:3    516:3    516:3
                                                                    516:3    516:3    516:3    516:3
                                                                    516:3    516:3    516:3    516:3
                                                                    517:3    517:3    517:3    517:3
                                                                    517:3    517:3    517:3    517:3
                                                                    517:3    517:3    517:3    517:3
                                                                    517:3    517:3    517:3    519:3
                                                                    519:3    519:3    519:3    519:3
                                                                    519:3    519:3    519:3    519:3
                                                                    519:3    519:3    519:3    519:3
                                                                    519:3    519:3    520:3    520:3
                                                                    520:3    520:3    520:3    520:3
                                                                    520:3    520:3    520:3    520:3
                                                                    520:3    520:3    520:3    520:3
                                                                    520:3    521:3    521:3    521:3
                                                                    521:3    521:3    521:3    521:3
                                                                    521:3    521:3    521:3    521:3
                                                                    521:3    521:3    521:3    521:3
                                                                     97:1
__SIZE_OF_RETADDR__  #define, value: 2, line:      45:3      519:3    521:3    521:3       96
                                                                       97      100      101      209
                                                                      213
__SUBVERSION__       #define,            line:         0  
__TID__              #define,            line:         0  
__TIME__             #define,            line:         0  
__VER__              #define,            line:         0  
__XOR_DPSEL_SELECT__ Target symbol: 0 
bytes                Target symbol: 0 
cfi_DATA_BLOCK_end   MACRO 
cfi_DATA_BLOCK_start MACRO 
cfi_PUSH_ISTACK_RET_DEFS_CONST_DEPEND
                     MACRO 
cfi_PUSH_ISTACK_RET_DEFS_REG_DEPEND
                     MACRO 
cfi_PUSH_REG         MACRO 
cfi_REMEMBER_STATE   MACRO 
cfi_RESTORE_STATE    MACRO 
cfi_SET_REG          MACRO 
cfi_STACK_ALLOC      MACRO 
cfi_STACK_DEALL      MACRO 
chip                 #define, value: 2510, line:         0  
constant             Target symbol: 0 
define               PREPROCESSOR DIRECTIVE 
defined              Target symbol: 0 
elif                 PREPROCESSOR DIRECTIVE 
else                 PREPROCESSOR DIRECTIVE 
endif                PREPROCESSOR DIRECTIVE 
error                PREPROCESSOR DIRECTIVE 
if                   PREPROCESSOR DIRECTIVE 
ifdef                PREPROCESSOR DIRECTIVE 
ifndef               PREPROCESSOR DIRECTIVE 
include              PREPROCESSOR DIRECTIVE 
line                 PREPROCESSOR DIRECTIVE 
message              PREPROCESSOR DIRECTIVE 
name                 Target symbol: 0 
no                   Target symbol: 0 
pragma               PREPROCESSOR DIRECTIVE 
reg                  Target symbol: 0 
reg_from             Target symbol: 0 
reg_to               Target symbol: 0 
undef                PREPROCESSOR DIRECTIVE 
|                    OPERATOR 
||                   OPERATOR 
~                    OPERATOR 

Segment             Type 	Mode
----------------------------------------
RCODE               CODE  	REL 
__EXTERNS           CODE  	ABS Org:0 

Label               Mode   Type                   Segment    Value/Offset
------------------------------------------------------------------------------
?L_MUL8             REL    CONST PUB UNTYP.       RCODE      0 
?L_MUL8_REW         REL    CONST PUB UNTYP.       RCODE      0 
AC                  ABS    CONST UNTYP.           ASEG       D6 
ACC                 ABS    CONST UNTYP.           ASEG       E0 
B                   ABS    CONST UNTYP.           ASEG       F0 
BLOCK               REL    CONST UNTYP.           RCODE      Not solved 
DPH                 ABS    CONST UNTYP.           ASEG       83 
DPL                 ABS    CONST UNTYP.           ASEG       82 
ENDBLOCK            REL    CONST UNTYP.           RCODE      Not solved 
EXTI0               ABS    CONST UNTYP.           ASEG       3 
EXTI1               ABS    CONST UNTYP.           ASEG       13 
F0                  ABS    CONST UNTYP.           ASEG       D5 
NOFUNCTION          REL    CONST UNTYP.           RCODE      Not solved 
OV                  ABS    CONST UNTYP.           ASEG       D2 
P                   ABS    CONST UNTYP.           ASEG       D0 
PSW                 ABS    CONST UNTYP.           ASEG       D0 
RESET               ABS    CONST UNTYP.           ASEG       0 
RS0                 ABS    CONST UNTYP.           ASEG       D3 
RS1                 ABS    CONST UNTYP.           ASEG       D4 
SINT                ABS    CONST UNTYP.           ASEG       23 
SP                  ABS    CONST UNTYP.           ASEG       81 
TID                 ABS    CONST UNTYP.           ASEG       2000 
TIMER0              ABS    CONST UNTYP.           ASEG       B 
TIMER1              ABS    CONST UNTYP.           ASEG       1B 
USING               REL    CONST UNTYP.           RCODE      Not solved 
cfi_common          REL    CONST UNTYP.           RCODE      Not solved 
undefined           REL    CONST UNTYP.           RCODE      Not solved 
x                   REL    CONST UNTYP.           RCODE      0 


##############################
#          CRC:9236          #
#        Errors:   0         #
#        Warnings: 0         #
#         Bytes: 37          #
##############################



###############################################################################
#                                                                             #
#     IAR Systems 8051 Assembler V7.30A/W32 06/Apr/2017  13:54:37             #
#     Copyright 2007 IAR Systems. All rights reserved.                        #
#                                                                             #
#           Target option =  plain                                            #
#           Source file   =  E:\1500V_Test2\ED\code\Library\clib\iar_long.s51 #
#           List file     =  E:\1500V_Test2\ED\iar\Build .hex for CC2510\List\iar_long.lst#
#           Object file   =  E:\1500V_Test2\ED\iar\Build .hex for CC2510\Obj\iar_long.r51#
#           Command line  =  E:\1500V_Test2\ED\code\Library\clib\iar_long.s51 #
#                            -v0 -D__CORE__=1 -D__CODE_MODEL__=1              #
#                            -D__DATA_MODEL__=2 -D__CALLING_CONVENTION__=4    #
#                            -D__NUMBER_OF_DPTRS__=1                          #
#                            -OE:\1500V_Test2\ED\iar\Build .hex for CC2510\Obj\ #
#                            -s+ -M<>                                         #
#                            -LE:\1500V_Test2\ED\iar\Build .hex for CC2510\List\ #
#                            -t8 -xDI -IC:\IARSystems-CD-730B\8051\INC\       #
#                            -Dchip=2510 -D_LOW_IMAGE_ -w+                    #
#                                                                             #
###############################################################################

    309    000000          
    310    000000          ;---------------------------------------------------
                           --------------------------
    311    000000          ;
    312    000000          ;       Function: ?L_MUL8_PX
    313    000000          ;
    314    000000          ;       Description: Multiply a long object in PDATA
                            with an unsigned
    315    000000          ;                    character.
    316    000000          ;
    317    000000          ;       Register input:
    318    000000          ;               R0 Points to LSB in the long
                            object
    319    000000          ;               R1 Contains the unsigned character.
    320    000000          ;
    321    000000          ;       Register output:
    322    000000          ;               A  = R2
    323    000000          ;               B    Undefined.
    324    000000          ;               CY   Undefined.
    325    000000          ;               R0 = R0+3
    326    000000          ;               R1   Not changed.
    327    000000          ;
    328    000000          ;       Stack usage: 3
    329    000000          ;
    330    000000          ;---------------------------------------------------
                           --------------------------
    331    000000                  MODULE  ?L_MUL8_PX
    332    000000                  RSEG    RCODE:CODE:NOROOT       
    333    000000                  PUBLIC  ?L_MUL8_PX
    334    000000                  PUBLIC  ?L_MUL8_PX_REW
    335    000000          
    336    000000                  CFI BLOCK ?L_MUL8_PX_REW USING cfi_common
    337    000000                  CFI NOFUNCTION
    338    000000          
    339    000000                  CFI     R0 undefined
    340    000000          
    341    000000          ?L_MUL8_PX_REW:
    342    000000          
    343    000000 18               DEC     R0
    344    000001 18               DEC     R0
    345    000002 18               DEC     R0
    346    000003          
    347    000003                  CFI ENDBLOCK ?L_MUL8_PX_REW
    348    000003                  REQUIRE x
    349    000003          
    350    000000                  RSEG    RCODE:CODE:NOROOT       
    351    000000                  CFI BLOCK ?L_MUL8_PX USING cfi_common
    352    000000                  CFI NOFUNCTION
    353    000000          
    354    000000                  CFI     A  undefined
    355    000000                  CFI     B  undefined
    356    000000                  CFI     R0 undefined
    357    000000          
    358    000000          x:
    359    000000          ?L_MUL8_PX:
    360    000000          
    361    000000 EA               MOV     A,R2
    362    000001 C0E0             PUSH    ACC
    363    000003              CFI CFA_MACHINE MACHINE_SP -(__SIZE_OF_RETADDR__
                            + 1)
    364    000003              CFI R2 Frame(CFA_MACHINE, __SIZE_OF_RETADDR__ +
                            1, 1)
    365    000003 E2               MOVX    A,@R0
    366    000004 89F0             MOV     B,R1
    367    000006 A4               MUL     AB
    368    000007 F2               MOVX    @R0,A
    369    000008 08               INC     R0
    370    000009 AAF0             MOV     R2,B
    371    00000B          
    372    00000B E2               MOVX    A,@R0
    373    00000C 89F0             MOV     B,R1
    374    00000E A4               MUL     AB
    375    00000F 2A               ADD     A,R2
    376    000010 F2               MOVX    @R0,A
    377    000011 08               INC     R0
    378    000012 E4               CLR     A
    379    000013 35F0             ADDC    A,B
    380    000015 FA               MOV     R2,A
    381    000016          
    382    000016 E2               MOVX    A,@R0
    383    000017 89F0             MOV     B,R1
    384    000019 A4               MUL     AB
    385    00001A 2A               ADD     A,R2
    386    00001B F2               MOVX    @R0,A
    387    00001C 08               INC     R0
    388    00001D E4               CLR     A
    389    00001E 35F0             ADDC    A,B
    390    000020 FA               MOV     R2,A
    391    000021          
    392    000021 E2               MOVX    A,@R0
    393    000022 89F0             MOV     B,R1
    394    000024 A4               MUL     AB
    395    000025 2A               ADD     A,R2
    396    000026 F2               MOVX    @R0,A
    397    000027          
    398    000027 D0E0             POP     ACC
    399    000029              CFI CFA_MACHINE MACHINE_SP - __SIZE_OF_RETADDR__
    400    000029 FA               MOV     R2,A
    401    00002A              CFI R2 samevalue
    402    00002A 22               RET
    403    00002B                  CFI ENDBLOCK ?L_MUL8_PX
    404    00002B                  ENDMOD


EOF                  DELIMITER 
\n                   DELIMITER 
                     DELIMITER 
!                    OPERATOR 
!=                   OPERATOR 
%                    OPERATOR 
&                    OPERATOR 
&&                   OPERATOR 
(                    OPERATOR 
(                    DELIMITER 
)                    OPERATOR 
)                    DELIMITER 
*                    OPERATOR 
+                    OPERATOR 
,                    DELIMITER 
-                    OPERATOR 
/                    OPERATOR 
:                    DELIMITER 
;                    DELIMITER 
;                    Target symbol: 23 
<                    OPERATOR 
<<                   OPERATOR 
<=                   OPERATOR 
<>                   OPERATOR 
=                    OPERATOR 
=                    DIRECTIVE 
==                   OPERATOR 
>                    OPERATOR 
>=                   OPERATOR 
>>                   OPERATOR 
?XSP                 Target symbol: 0 
@                    DELIMITER 
A                    REGISTER 
AB                   REGISTER 
ACALL                MNEMONIC 
ADD                  MNEMONIC 
ADDC                 MNEMONIC 
AJMP                 MNEMONIC 
ALIAS                DIRECTIVE 
ALIGN                DIRECTIVE 
ALIGNRAM             DIRECTIVE 
AND                  OPERATOR 
ANL                  MNEMONIC 
ARGFRAME             DIRECTIVE 
ASEG                 DIRECTIVE 
ASEGN                DIRECTIVE 
ASSIGN               DIRECTIVE 
B                    REGISTER 
BINAND               OPERATOR 
BINNOT               OPERATOR 
BINOR                OPERATOR 
BINXOR               OPERATOR 
BIT                  SEGMENT TYPE 
BITAND               OPERATOR 
BITNOT               OPERATOR 
BITOR                OPERATOR 
BITXOR               OPERATOR 
BREAK                DIRECTIVE 
BYTE                 Target symbol: 524288 
BYTE1                OPERATOR 
BYTE2                OPERATOR 
BYTE3                OPERATOR 
BYTE4                OPERATOR 
C                    Target symbol: 1 
CALL                 MNEMONIC 
CASE                 DIRECTIVE 
CASEOFF              DIRECTIVE 
CASEON               DIRECTIVE 
CFA_ESP16            Target symbol: 0 
CFA_ESP24            Target symbol: 0 
CFA_MACHINE          #define, value: CFA_SP, line:      37:3      516:3    517:3    519:3    519:3
                                                                    519:3    520:3    520:3    520:3
                                                                    520:3    521:3    521:3    521:3
                                                                    521:3    521:3       96       97
                                                                      100      101      209      213
                                                                      363      364      399
CFA_PSP24            Target symbol: 0 
CFA_SPP              #define, value: CFA_PSP16, line:      21:3  
CFA_SPX              #define, value: CFA_XSP16, line:      23:3  
CFA_XSP24            Target symbol: 0 
CFI                  DIRECTIVE 
CFI_COMMON_DECLARE_CORE_COMMON MACRO 
CFI_COMMON_DECLARE_SAME_VALUE_FOR_ALL_REGISTERS
                     MACRO 
CFI_COMMON_DECLARE_UNDEFINED_FOR_ALL_DPTR_REGISTERS
                     MACRO 
CFI_NAMES_DECLARE_REGISTER_RESOURCES
                     MACRO 
CFI_NAMES_DECLARE_RETURN_RESOURCE
                     MACRO 
CFI_NAMES_DECLARE_STACKS MACRO 
CFI_banked_com       MACRO 
CFI_banked_nam       MACRO 
CFI_com              MACRO 
CFI_nam              MACRO 
CFI_pdata_enter_com  MACRO 
CFI_pdata_enter_nam  MACRO 
CJNE                 MNEMONIC 
CLR                  MNEMONIC 
CODE                 SEGMENT TYPE 
CODE                 DIRECTIVE 
COL                  DIRECTIVE 
COMMON               DIRECTIVE 
CONST                SEGMENT TYPE 
CONTINUE             DIRECTIVE 
CPL                  MNEMONIC 
CY                   Target symbol: 1 
DA                   MNEMONIC 
DATA                 SEGMENT TYPE 
DATA                 DIRECTIVE 
DATE                 OPERATOR 
DB                   DIRECTIVE 
DC16                 DIRECTIVE 
DC24                 DIRECTIVE 
DC32                 DIRECTIVE 
DC8                  DIRECTIVE 
DD                   DIRECTIVE 
DEC                  MNEMONIC 
DEFAULT              DIRECTIVE 
DEFINE               DIRECTIVE 
DIV                  MNEMONIC 
DJNZ                 MNEMONIC 
DPTR                 REGISTER 
DPTR_MASK_SYMBOLS    MACRO 
DS                   DIRECTIVE 
DS16                 DIRECTIVE 
DS24                 DIRECTIVE 
DS32                 DIRECTIVE 
DS8                  DIRECTIVE 
DT                   DIRECTIVE 
DW                   DIRECTIVE 
ELSE                 DIRECTIVE 
ELSEIF               DIRECTIVE 
ELSEIFS              DIRECTIVE 
ELSES                DIRECTIVE 
END                  DIRECTIVE 
ENDF                 DIRECTIVE 
ENDIF                DIRECTIVE 
ENDIFS               DIRECTIVE 
ENDM                 DIRECTIVE 
ENDMAC               DIRECTIVE 
ENDMOD               DIRECTIVE 
ENDR                 DIRECTIVE 
ENDS                 DIRECTIVE 
ENDW                 DIRECTIVE 
EQ                   OPERATOR 
EQU                  DIRECTIVE 
ESP16                Target symbol: 0 
ESP24                Target symbol: 0 
EVEN                 DIRECTIVE 
EXITM                DIRECTIVE 
EXPORT               DIRECTIVE 
EXTERN               DIRECTIVE 
EXTERNS_FOR_ALL_DPTR_SYMBOLS MACRO 
EXTRN                DIRECTIVE 
FAR                  SEGMENT TYPE 
FARCODE              SEGMENT TYPE 
FARCONST             SEGMENT TYPE 
FARDATA              SEGMENT TYPE 
FOR                  DIRECTIVE 
FUNCALL              DIRECTIVE 
FUNCTION             DIRECTIVE 
GE                   OPERATOR 
GT                   OPERATOR 
HIGH                 OPERATOR 
HUGE                 SEGMENT TYPE 
HUGECODE             SEGMENT TYPE 
HUGECONST            SEGMENT TYPE 
HUGEDATA             SEGMENT TYPE 
HWRD                 OPERATOR 
IDATA                SEGMENT TYPE 
IF                   DIRECTIVE 
IFS                  DIRECTIVE 
IMPORT               DIRECTIVE 
INC                  MNEMONIC 
JB                   MNEMONIC 
JBC                  MNEMONIC 
JC                   MNEMONIC 
JMP                  MNEMONIC 
JNB                  MNEMONIC 
JNC                  MNEMONIC 
JNZ                  MNEMONIC 
JZ                   MNEMONIC 
LCALL                MNEMONIC 
LE                   OPERATOR 
LIBRARY              DIRECTIVE 
LIMIT                DIRECTIVE 
LJMP                 MNEMONIC 
LOC                  OPERATOR 
LOCAL                DIRECTIVE 
LOCFRAME             DIRECTIVE 
LONG                 Target symbol: 2097152 
LOW                  OPERATOR 
LSTCND               DIRECTIVE 
LSTCOD               DIRECTIVE 
LSTCYC               DIRECTIVE 
LSTEXP               DIRECTIVE 
LSTMAC               DIRECTIVE 
LSTOUT               DIRECTIVE 
LSTPAG               DIRECTIVE 
LSTREP               DIRECTIVE 
LSTSAS               DIRECTIVE 
LSTXRF               DIRECTIVE 
LT                   OPERATOR 
LWRD                 OPERATOR 
MACHINE_MEM          #define, value: DATA, line:      39:3      516:3    517:3
MACHINE_SP           #define, value: SP, line:      38:3      516:3    516:3    517:3    517:3
                                                                    519:3    520:3    521:3       96
                                                                      100      209      213      363
                                                                      399
MACRO                DIRECTIVE 
MOD                  OPERATOR 
MODULE               DIRECTIVE 
MOV                  MNEMONIC 
MOVC                 MNEMONIC 
MOVX                 MNEMONIC 
MUL                  MNEMONIC 
NAME                 DIRECTIVE 
NE                   OPERATOR 
NEAR                 SEGMENT TYPE 
NEARCODE             SEGMENT TYPE 
NEARCONST            SEGMENT TYPE 
NEARDATA             SEGMENT TYPE 
NOP                  MNEMONIC 
NOROOT               SEGMENT TYPE 
NOT                  OPERATOR 
NPAGE                SEGMENT TYPE 
ODD                  DIRECTIVE 
OR                   OPERATOR 
ORG                  DIRECTIVE 
ORL                  MNEMONIC 
PAGE                 DIRECTIVE 
PAGSIZ               DIRECTIVE 
PC                   REGISTER 
POP                  MNEMONIC 
PRM                  OPERATOR 
PROGRAM              DIRECTIVE 
PSP24                Target symbol: 0 
PUBLIC               DIRECTIVE 
PUBWEAK              DIRECTIVE 
PUSH                 MNEMONIC 
R0                   REGISTER 
R1                   REGISTER 
R2                   REGISTER 
R3                   REGISTER 
R4                   REGISTER 
R5                   REGISTER 
R6                   REGISTER 
R7                   REGISTER 
RADIX                DIRECTIVE 
READ                 Target symbol: 2048 
REGISTER             SEGMENT TYPE 
REORDER              SEGMENT TYPE 
REPEAT               DIRECTIVE 
REPT                 DIRECTIVE 
REPTC                DIRECTIVE 
REPTI                DIRECTIVE 
REQUIRE              DIRECTIVE 
RET                  MNEMONIC 
RETI                 MNEMONIC 
RL                   MNEMONIC 
RLC                  MNEMONIC 
ROOT                 SEGMENT TYPE 
RR                   MNEMONIC 
RRC                  MNEMONIC 
RSEG                 DIRECTIVE 
RTMODEL              DIRECTIVE 
S                    PREFIX 
SET                  DIRECTIVE 
SETB                 MNEMONIC 
SFB                  OPERATOR 
SFE                  OPERATOR 
SFRTYPE              DIRECTIVE 
SHL                  OPERATOR 
SHR                  OPERATOR 
SIZEOF               OPERATOR 
SJMP                 MNEMONIC 
SORT                 SEGMENT TYPE 
SPP                  #define, value: PSP16, line:      22:3      521:3
SPX                  #define, value: XSP16, line:      24:3  
STACK                DIRECTIVE 
SUBB                 MNEMONIC 
SWAP                 MNEMONIC 
SWITCH               DIRECTIVE 
SYMBOL               DIRECTIVE 
UGT                  OPERATOR 
ULT                  OPERATOR 
UNTIL                DIRECTIVE 
UNTYPED              SEGMENT TYPE 
WHILE                DIRECTIVE 
WORD                 Target symbol: 1048576 
WRITE                Target symbol: 4096 
XCH                  MNEMONIC 
XCHD                 MNEMONIC 
XDATA                SEGMENT TYPE 
XOR                  OPERATOR 
XRL                  MNEMONIC 
XSP24                Target symbol: 0 
XSP_H                #define, value: ?XSP+1, line:      24:1  
XSP_L                #define, value: ?XSP, line:      23:1  
ZPAGE                SEGMENT TYPE 
[                    DELIMITER 
]                    DELIMITER 
^                    OPERATOR 
_LOW_IMAGE_          #define, value: 1, line:         0  
__BUILD_NUMBER__     #define,            line:         0  
__CALLING_CONVENTION__ #define, value: 4, line:         0  
__CC_DO__            #define, value: 0, line:      45:2  
__CC_ER__            #define, value: 5, line:      50:2  
__CC_IO__            #define, value: 1, line:      46:2  
__CC_IR__            #define, value: 2, line:      47:2  
__CC_PR__            #define, value: 3, line:      48:2  
__CC_XR__            #define, value: 4, line:      49:2  
__CM_BANKED_EXT2__   #define, value: 4, line:      31:2  
__CM_BANKED__        #define, value: 2, line:      29:2  
__CM_FAR__           #define, value: 3, line:      30:2       42:3    516:3    519:3
__CM_NEAR__          #define, value: 1, line:      28:2  
__CM_TINY__          #define, value: 0, line:      27:2  
__CODE_MODEL__       #define, value: 1, line:         0       42:3    516:3    519:3
__CORE_EXTENDED1__   #define, value: 2, line:      21:2       67:2    521:3
__CORE_EXTENDED2__   #define, value: 3, line:      22:2  
__CORE_PLAIN__       #define, value: 1, line:      20:2  
__CORE_TINY__        #define, value: 0, line:      19:2  
__CORE__             #define, value: 1, line:         0       67:2    521:3
__DATA_MODEL__       #define, value: 2, line:         0  
__DATE__             #define,            line:         0  
__DM_FAR__           #define, value: 4, line:      40:2  
__DM_GENERIC__       #define, value: 3, line:      39:2  
__DM_LARGE__         #define, value: 2, line:      38:2  
__DM_SMALL__         #define, value: 1, line:      37:2  
__DM_TINY__          #define, value: 0, line:      36:2  
__DPTR_SEPARATE__    Target symbol: 0 
__DPTR_SHADOWED__    Target symbol: 0 
__EXTENDED_STACK__   Target symbol: 0 
__FILE__             #define,            line:         0  
__IAR_SYSTEMS_ASM    #define,            line:         0  
__IAR_SYSTEMS_ASM__  #define,            line:         0  
__INC_DPSEL_SELECT__ Target symbol: 0 
__LINE__             #define,            line:         0  
__NUMBER_OF_DPTRS__  #define, value: 1, line:         0       56:2    516:3    516:3    516:3
                                                                    516:3    516:3    516:3    516:3
                                                                    516:3    516:3    516:3    516:3
                                                                    516:3    516:3    516:3    516:3
                                                                    517:3    517:3    517:3    517:3
                                                                    517:3    517:3    517:3    517:3
                                                                    517:3    517:3    517:3    517:3
                                                                    517:3    517:3    517:3    519:3
                                                                    519:3    519:3    519:3    519:3
                                                                    519:3    519:3    519:3    519:3
                                                                    519:3    519:3    519:3    519:3
                                                                    519:3    519:3    520:3    520:3
                                                                    520:3    520:3    520:3    520:3
                                                                    520:3    520:3    520:3    520:3
                                                                    520:3    520:3    520:3    520:3
                                                                    520:3    521:3    521:3    521:3
                                                                    521:3    521:3    521:3    521:3
                                                                    521:3    521:3    521:3    521:3
                                                                    521:3    521:3    521:3    521:3
                                                                     97:1
__SIZE_OF_RETADDR__  #define, value: 2, line:      45:3      519:3    521:3    521:3       96
                                                                       97      100      101      209
                                                                      213      363      364      399
__SUBVERSION__       #define,            line:         0  
__TID__              #define,            line:         0  
__TIME__             #define,            line:         0  
__VER__              #define,            line:         0  
__XOR_DPSEL_SELECT__ Target symbol: 0 
bytes                Target symbol: 0 
cfi_DATA_BLOCK_end   MACRO 
cfi_DATA_BLOCK_start MACRO 
cfi_PUSH_ISTACK_RET_DEFS_CONST_DEPEND
                     MACRO 
cfi_PUSH_ISTACK_RET_DEFS_REG_DEPEND
                     MACRO 
cfi_PUSH_REG         MACRO 
cfi_REMEMBER_STATE   MACRO 
cfi_RESTORE_STATE    MACRO 
cfi_SET_REG          MACRO 
cfi_STACK_ALLOC      MACRO 
cfi_STACK_DEALL      MACRO 
chip                 #define, value: 2510, line:         0  
constant             Target symbol: 0 
define               PREPROCESSOR DIRECTIVE 
defined              Target symbol: 0 
elif                 PREPROCESSOR DIRECTIVE 
else                 PREPROCESSOR DIRECTIVE 
endif                PREPROCESSOR DIRECTIVE 
error                PREPROCESSOR DIRECTIVE 
if                   PREPROCESSOR DIRECTIVE 
ifdef                PREPROCESSOR DIRECTIVE 
ifndef               PREPROCESSOR DIRECTIVE 
include              PREPROCESSOR DIRECTIVE 
line                 PREPROCESSOR DIRECTIVE 
message              PREPROCESSOR DIRECTIVE 
name                 Target symbol: 0 
no                   Target symbol: 0 
pragma               PREPROCESSOR DIRECTIVE 
reg                  Target symbol: 0 
reg_from             Target symbol: 0 
reg_to               Target symbol: 0 
undef                PREPROCESSOR DIRECTIVE 
|                    OPERATOR 
||                   OPERATOR 
~                    OPERATOR 

Segment             Type 	Mode
----------------------------------------
RCODE               CODE  	REL 
__EXTERNS           CODE  	ABS Org:0 

Label               Mode   Type                   Segment    Value/Offset
------------------------------------------------------------------------------
?L_MUL8_PX          REL    CONST PUB UNTYP.       RCODE      0 
?L_MUL8_PX_REW      REL    CONST PUB UNTYP.       RCODE      0 
AC                  ABS    CONST UNTYP.           ASEG       D6 
ACC                 ABS    CONST UNTYP.           ASEG       E0 
B                   ABS    CONST UNTYP.           ASEG       F0 
BLOCK               REL    CONST UNTYP.           RCODE      Not solved 
CFA_SP              REL    CONST UNTYP.           RCODE      Not solved 
DPH                 ABS    CONST UNTYP.           ASEG       83 
DPL                 ABS    CONST UNTYP.           ASEG       82 
ENDBLOCK            REL    CONST UNTYP.           RCODE      Not solved 
EXTI0               ABS    CONST UNTYP.           ASEG       3 
EXTI1               ABS    CONST UNTYP.           ASEG       13 
F0                  ABS    CONST UNTYP.           ASEG       D5 
Frame               REL    CONST UNTYP.           RCODE      Not solved 
NOFUNCTION          REL    CONST UNTYP.           RCODE      Not solved 
OV                  ABS    CONST UNTYP.           ASEG       D2 
P                   ABS    CONST UNTYP.           ASEG       D0 
PSW                 ABS    CONST UNTYP.           ASEG       D0 
RESET               ABS    CONST UNTYP.           ASEG       0 
RS0                 ABS    CONST UNTYP.           ASEG       D3 
RS1                 ABS    CONST UNTYP.           ASEG       D4 
SINT                ABS    CONST UNTYP.           ASEG       23 
SP                  ABS    CONST UNTYP.           ASEG       81 
TID                 ABS    CONST UNTYP.           ASEG       2000 
TIMER0              ABS    CONST UNTYP.           ASEG       B 
TIMER1              ABS    CONST UNTYP.           ASEG       1B 
USING               REL    CONST UNTYP.           RCODE      Not solved 
cfi_common          REL    CONST UNTYP.           RCODE      Not solved 
samevalue           REL    CONST UNTYP.           RCODE      Not solved 
undefined           REL    CONST UNTYP.           RCODE      Not solved 
x                   REL    CONST UNTYP.           RCODE      0 


##############################
#          CRC:350E          #
#        Errors:   0         #
#        Warnings: 0         #
#         Bytes: 46          #
##############################



###############################################################################
#                                                                             #
#     IAR Systems 8051 Assembler V7.30A/W32 06/Apr/2017  13:54:37             #
#     Copyright 2007 IAR Systems. All rights reserved.                        #
#                                                                             #
#           Target option =  plain                                            #
#           Source file   =  E:\1500V_Test2\ED\code\Library\clib\iar_long.s51 #
#           List file     =  E:\1500V_Test2\ED\iar\Build .hex for CC2510\List\iar_long.lst#
#           Object file   =  E:\1500V_Test2\ED\iar\Build .hex for CC2510\Obj\iar_long.r51#
#           Command line  =  E:\1500V_Test2\ED\code\Library\clib\iar_long.s51 #
#                            -v0 -D__CORE__=1 -D__CODE_MODEL__=1              #
#                            -D__DATA_MODEL__=2 -D__CALLING_CONVENTION__=4    #
#                            -D__NUMBER_OF_DPTRS__=1                          #
#                            -OE:\1500V_Test2\ED\iar\Build .hex for CC2510\Obj\ #
#                            -s+ -M<>                                         #
#                            -LE:\1500V_Test2\ED\iar\Build .hex for CC2510\List\ #
#                            -t8 -xDI -IC:\IARSystems-CD-730B\8051\INC\       #
#                            -Dchip=2510 -D_LOW_IMAGE_ -w+                    #
#                                                                             #
###############################################################################

    405    000000          
    406    000000          ;---------------------------------------------------
                           --------------------------
    407    000000          ;
    408    000000          ;       Function: ?L_MUL8_X
    409    000000          ;
    410    000000          ;       Description: Multiply a long object in PDATA
                            with an unsigned
    411    000000          ;                    character.
    412    000000          ;
    413    000000          ;       Register input:
    414    000000          ;               DPTR Points to LSB in the long
                            object
    415    000000          ;               R1   Contains the unsigned
                            character.
    416    000000          ;
    417    000000          ;       Register output:
    418    000000          ;               A    = R2
    419    000000          ;               B      Undefined.
    420    000000          ;               CY     Undefined.
    421    000000          ;               DPTR = DPTR+3
    422    000000          ;               R1     Not changed.
    423    000000          ;
    424    000000          ;       Stack usage: 3
    425    000000          ;
    426    000000          ;---------------------------------------------------
                           --------------------------
    427    000000                  MODULE  ?L_MUL8_X
    428    000000                  RSEG    RCODE:CODE:NOROOT       
    429    000000                  PUBLIC  ?L_MUL8_X
    430    000000          
    431    000000                  CFI BLOCK ?L_MUL8_X USING cfi_common
    432    000000                  CFI NOFUNCTION
    433    000000          
    434    000000                  CFI     A     undefined
    435    000000                  CFI     B     undefined
    436    000000                  CFI     DPTR0 undefined
    437    000000          
    438    000000          ?L_MUL8_X:
    439    000000          
    440    000000 EA               MOV     A,R2
    441    000001 C0E0             PUSH    ACC
    442    000003              CFI CFA_MACHINE MACHINE_SP -(__SIZE_OF_RETADDR__
                            + 1)
    443    000003              CFI R2 Frame(CFA_MACHINE, __SIZE_OF_RETADDR__ +
                            1, 1)
    444    000003          
    445    000003 E0               MOVX    A,@DPTR
    446    000004 89F0             MOV     B,R1
    447    000006 A4               MUL     AB
    448    000007 F0               MOVX    @DPTR,A
    449    000008 08               INC     R0
    450    000009 AAF0             MOV     R2,B
    451    00000B          
    452    00000B E0               MOVX    A,@DPTR
    453    00000C 89F0             MOV     B,R1
    454    00000E A4               MUL     AB
    455    00000F 2A               ADD     A,R2
    456    000010 F0               MOVX    @DPTR,A
    457    000011 08               INC     R0
    458    000012 E4               CLR     A
    459    000013 35F0             ADDC    A,B
    460    000015 FA               MOV     R2,A
    461    000016          
    462    000016 E0               MOVX    A,@DPTR
    463    000017 89F0             MOV     B,R1
    464    000019 A4               MUL     AB
    465    00001A 2A               ADD     A,R2
    466    00001B F0               MOVX    @DPTR,A
    467    00001C 08               INC     R0
    468    00001D E4               CLR     A
    469    00001E 35F0             ADDC    A,B
    470    000020 FA               MOV     R2,A
    471    000021          
    472    000021 E0               MOVX    A,@DPTR
    473    000022 89F0             MOV     B,R1
    474    000024 A4               MUL     AB
    475    000025 2A               ADD     A,R2
    476    000026 F0               MOVX    @DPTR,A
    477    000027          
    478    000027 D0E0             POP     ACC
    479    000029              CFI CFA_MACHINE MACHINE_SP - __SIZE_OF_RETADDR__
    480    000029 FA               MOV     R2,A
    481    00002A              CFI R2 samevalue
    482    00002A 22               RET
    483    00002B                  CFI ENDBLOCK ?L_MUL8_X
    484    00002B                  ENDMOD


EOF                  DELIMITER 
\n                   DELIMITER 
                     DELIMITER 
!                    OPERATOR 
!=                   OPERATOR 
%                    OPERATOR 
&                    OPERATOR 
&&                   OPERATOR 
(                    OPERATOR 
(                    DELIMITER 
)                    OPERATOR 
)                    DELIMITER 
*                    OPERATOR 
+                    OPERATOR 
,                    DELIMITER 
-                    OPERATOR 
/                    OPERATOR 
:                    DELIMITER 
;                    DELIMITER 
;                    Target symbol: 23 
<                    OPERATOR 
<<                   OPERATOR 
<=                   OPERATOR 
<>                   OPERATOR 
=                    OPERATOR 
=                    DIRECTIVE 
==                   OPERATOR 
>                    OPERATOR 
>=                   OPERATOR 
>>                   OPERATOR 
?XSP                 Target symbol: 0 
@                    DELIMITER 
A                    REGISTER 
AB                   REGISTER 
ACALL                MNEMONIC 
ADD                  MNEMONIC 
ADDC                 MNEMONIC 
AJMP                 MNEMONIC 
ALIAS                DIRECTIVE 
ALIGN                DIRECTIVE 
ALIGNRAM             DIRECTIVE 
AND                  OPERATOR 
ANL                  MNEMONIC 
ARGFRAME             DIRECTIVE 
ASEG                 DIRECTIVE 
ASEGN                DIRECTIVE 
ASSIGN               DIRECTIVE 
B                    REGISTER 
BINAND               OPERATOR 
BINNOT               OPERATOR 
BINOR                OPERATOR 
BINXOR               OPERATOR 
BIT                  SEGMENT TYPE 
BITAND               OPERATOR 
BITNOT               OPERATOR 
BITOR                OPERATOR 
BITXOR               OPERATOR 
BREAK                DIRECTIVE 
BYTE                 Target symbol: 524288 
BYTE1                OPERATOR 
BYTE2                OPERATOR 
BYTE3                OPERATOR 
BYTE4                OPERATOR 
C                    Target symbol: 1 
CALL                 MNEMONIC 
CASE                 DIRECTIVE 
CASEOFF              DIRECTIVE 
CASEON               DIRECTIVE 
CFA_ESP16            Target symbol: 0 
CFA_ESP24            Target symbol: 0 
CFA_MACHINE          #define, value: CFA_SP, line:      37:3      516:3    517:3    519:3    519:3
                                                                    519:3    520:3    520:3    520:3
                                                                    520:3    521:3    521:3    521:3
                                                                    521:3    521:3       96       97
                                                                      100      101      209      213
                                                                      363      364      399      442
                                                                      443      479
CFA_PSP24            Target symbol: 0 
CFA_SPP              #define, value: CFA_PSP16, line:      21:3  
CFA_SPX              #define, value: CFA_XSP16, line:      23:3  
CFA_XSP24            Target symbol: 0 
CFI                  DIRECTIVE 
CFI_COMMON_DECLARE_CORE_COMMON MACRO 
CFI_COMMON_DECLARE_SAME_VALUE_FOR_ALL_REGISTERS
                     MACRO 
CFI_COMMON_DECLARE_UNDEFINED_FOR_ALL_DPTR_REGISTERS
                     MACRO 
CFI_NAMES_DECLARE_REGISTER_RESOURCES
                     MACRO 
CFI_NAMES_DECLARE_RETURN_RESOURCE
                     MACRO 
CFI_NAMES_DECLARE_STACKS MACRO 
CFI_banked_com       MACRO 
CFI_banked_nam       MACRO 
CFI_com              MACRO 
CFI_nam              MACRO 
CFI_pdata_enter_com  MACRO 
CFI_pdata_enter_nam  MACRO 
CJNE                 MNEMONIC 
CLR                  MNEMONIC 
CODE                 SEGMENT TYPE 
CODE                 DIRECTIVE 
COL                  DIRECTIVE 
COMMON               DIRECTIVE 
CONST                SEGMENT TYPE 
CONTINUE             DIRECTIVE 
CPL                  MNEMONIC 
CY                   Target symbol: 1 
DA                   MNEMONIC 
DATA                 SEGMENT TYPE 
DATA                 DIRECTIVE 
DATE                 OPERATOR 
DB                   DIRECTIVE 
DC16                 DIRECTIVE 
DC24                 DIRECTIVE 
DC32                 DIRECTIVE 
DC8                  DIRECTIVE 
DD                   DIRECTIVE 
DEC                  MNEMONIC 
DEFAULT              DIRECTIVE 
DEFINE               DIRECTIVE 
DIV                  MNEMONIC 
DJNZ                 MNEMONIC 
DPTR                 REGISTER 
DPTR_MASK_SYMBOLS    MACRO 
DS                   DIRECTIVE 
DS16                 DIRECTIVE 
DS24                 DIRECTIVE 
DS32                 DIRECTIVE 
DS8                  DIRECTIVE 
DT                   DIRECTIVE 
DW                   DIRECTIVE 
ELSE                 DIRECTIVE 
ELSEIF               DIRECTIVE 
ELSEIFS              DIRECTIVE 
ELSES                DIRECTIVE 
END                  DIRECTIVE 
ENDF                 DIRECTIVE 
ENDIF                DIRECTIVE 
ENDIFS               DIRECTIVE 
ENDM                 DIRECTIVE 
ENDMAC               DIRECTIVE 
ENDMOD               DIRECTIVE 
ENDR                 DIRECTIVE 
ENDS                 DIRECTIVE 
ENDW                 DIRECTIVE 
EQ                   OPERATOR 
EQU                  DIRECTIVE 
ESP16                Target symbol: 0 
ESP24                Target symbol: 0 
EVEN                 DIRECTIVE 
EXITM                DIRECTIVE 
EXPORT               DIRECTIVE 
EXTERN               DIRECTIVE 
EXTERNS_FOR_ALL_DPTR_SYMBOLS MACRO 
EXTRN                DIRECTIVE 
FAR                  SEGMENT TYPE 
FARCODE              SEGMENT TYPE 
FARCONST             SEGMENT TYPE 
FARDATA              SEGMENT TYPE 
FOR                  DIRECTIVE 
FUNCALL              DIRECTIVE 
FUNCTION             DIRECTIVE 
GE                   OPERATOR 
GT                   OPERATOR 
HIGH                 OPERATOR 
HUGE                 SEGMENT TYPE 
HUGECODE             SEGMENT TYPE 
HUGECONST            SEGMENT TYPE 
HUGEDATA             SEGMENT TYPE 
HWRD                 OPERATOR 
IDATA                SEGMENT TYPE 
IF                   DIRECTIVE 
IFS                  DIRECTIVE 
IMPORT               DIRECTIVE 
INC                  MNEMONIC 
JB                   MNEMONIC 
JBC                  MNEMONIC 
JC                   MNEMONIC 
JMP                  MNEMONIC 
JNB                  MNEMONIC 
JNC                  MNEMONIC 
JNZ                  MNEMONIC 
JZ                   MNEMONIC 
LCALL                MNEMONIC 
LE                   OPERATOR 
LIBRARY              DIRECTIVE 
LIMIT                DIRECTIVE 
LJMP                 MNEMONIC 
LOC                  OPERATOR 
LOCAL                DIRECTIVE 
LOCFRAME             DIRECTIVE 
LONG                 Target symbol: 2097152 
LOW                  OPERATOR 
LSTCND               DIRECTIVE 
LSTCOD               DIRECTIVE 
LSTCYC               DIRECTIVE 
LSTEXP               DIRECTIVE 
LSTMAC               DIRECTIVE 
LSTOUT               DIRECTIVE 
LSTPAG               DIRECTIVE 
LSTREP               DIRECTIVE 
LSTSAS               DIRECTIVE 
LSTXRF               DIRECTIVE 
LT                   OPERATOR 
LWRD                 OPERATOR 
MACHINE_MEM          #define, value: DATA, line:      39:3      516:3    517:3
MACHINE_SP           #define, value: SP, line:      38:3      516:3    516:3    517:3    517:3
                                                                    519:3    520:3    521:3       96
                                                                      100      209      213      363
                                                                      399      442      479
MACRO                DIRECTIVE 
MOD                  OPERATOR 
MODULE               DIRECTIVE 
MOV                  MNEMONIC 
MOVC                 MNEMONIC 
MOVX                 MNEMONIC 
MUL                  MNEMONIC 
NAME                 DIRECTIVE 
NE                   OPERATOR 
NEAR                 SEGMENT TYPE 
NEARCODE             SEGMENT TYPE 
NEARCONST            SEGMENT TYPE 
NEARDATA             SEGMENT TYPE 
NOP                  MNEMONIC 
NOROOT               SEGMENT TYPE 
NOT                  OPERATOR 
NPAGE                SEGMENT TYPE 
ODD                  DIRECTIVE 
OR                   OPERATOR 
ORG                  DIRECTIVE 
ORL                  MNEMONIC 
PAGE                 DIRECTIVE 
PAGSIZ               DIRECTIVE 
PC                   REGISTER 
POP                  MNEMONIC 
PRM                  OPERATOR 
PROGRAM              DIRECTIVE 
PSP24                Target symbol: 0 
PUBLIC               DIRECTIVE 
PUBWEAK              DIRECTIVE 
PUSH                 MNEMONIC 
R0                   REGISTER 
R1                   REGISTER 
R2                   REGISTER 
R3                   REGISTER 
R4                   REGISTER 
R5                   REGISTER 
R6                   REGISTER 
R7                   REGISTER 
RADIX                DIRECTIVE 
READ                 Target symbol: 2048 
REGISTER             SEGMENT TYPE 
REORDER              SEGMENT TYPE 
REPEAT               DIRECTIVE 
REPT                 DIRECTIVE 
REPTC                DIRECTIVE 
REPTI                DIRECTIVE 
REQUIRE              DIRECTIVE 
RET                  MNEMONIC 
RETI                 MNEMONIC 
RL                   MNEMONIC 
RLC                  MNEMONIC 
ROOT                 SEGMENT TYPE 
RR                   MNEMONIC 
RRC                  MNEMONIC 
RSEG                 DIRECTIVE 
RTMODEL              DIRECTIVE 
S                    PREFIX 
SET                  DIRECTIVE 
SETB                 MNEMONIC 
SFB                  OPERATOR 
SFE                  OPERATOR 
SFRTYPE              DIRECTIVE 
SHL                  OPERATOR 
SHR                  OPERATOR 
SIZEOF               OPERATOR 
SJMP                 MNEMONIC 
SORT                 SEGMENT TYPE 
SPP                  #define, value: PSP16, line:      22:3      521:3
SPX                  #define, value: XSP16, line:      24:3  
STACK                DIRECTIVE 
SUBB                 MNEMONIC 
SWAP                 MNEMONIC 
SWITCH               DIRECTIVE 
SYMBOL               DIRECTIVE 
UGT                  OPERATOR 
ULT                  OPERATOR 
UNTIL                DIRECTIVE 
UNTYPED              SEGMENT TYPE 
WHILE                DIRECTIVE 
WORD                 Target symbol: 1048576 
WRITE                Target symbol: 4096 
XCH                  MNEMONIC 
XCHD                 MNEMONIC 
XDATA                SEGMENT TYPE 
XOR                  OPERATOR 
XRL                  MNEMONIC 
XSP24                Target symbol: 0 
XSP_H                #define, value: ?XSP+1, line:      24:1  
XSP_L                #define, value: ?XSP, line:      23:1  
ZPAGE                SEGMENT TYPE 
[                    DELIMITER 
]                    DELIMITER 
^                    OPERATOR 
_LOW_IMAGE_          #define, value: 1, line:         0  
__BUILD_NUMBER__     #define,            line:         0  
__CALLING_CONVENTION__ #define, value: 4, line:         0  
__CC_DO__            #define, value: 0, line:      45:2  
__CC_ER__            #define, value: 5, line:      50:2  
__CC_IO__            #define, value: 1, line:      46:2  
__CC_IR__            #define, value: 2, line:      47:2  
__CC_PR__            #define, value: 3, line:      48:2  
__CC_XR__            #define, value: 4, line:      49:2  
__CM_BANKED_EXT2__   #define, value: 4, line:      31:2  
__CM_BANKED__        #define, value: 2, line:      29:2  
__CM_FAR__           #define, value: 3, line:      30:2       42:3    516:3    519:3
__CM_NEAR__          #define, value: 1, line:      28:2  
__CM_TINY__          #define, value: 0, line:      27:2  
__CODE_MODEL__       #define, value: 1, line:         0       42:3    516:3    519:3
__CORE_EXTENDED1__   #define, value: 2, line:      21:2       67:2    521:3
__CORE_EXTENDED2__   #define, value: 3, line:      22:2  
__CORE_PLAIN__       #define, value: 1, line:      20:2  
__CORE_TINY__        #define, value: 0, line:      19:2  
__CORE__             #define, value: 1, line:         0       67:2    521:3
__DATA_MODEL__       #define, value: 2, line:         0  
__DATE__             #define,            line:         0  
__DM_FAR__           #define, value: 4, line:      40:2  
__DM_GENERIC__       #define, value: 3, line:      39:2  
__DM_LARGE__         #define, value: 2, line:      38:2  
__DM_SMALL__         #define, value: 1, line:      37:2  
__DM_TINY__          #define, value: 0, line:      36:2  
__DPTR_SEPARATE__    Target symbol: 0 
__DPTR_SHADOWED__    Target symbol: 0 
__EXTENDED_STACK__   Target symbol: 0 
__FILE__             #define,            line:         0  
__IAR_SYSTEMS_ASM    #define,            line:         0  
__IAR_SYSTEMS_ASM__  #define,            line:         0  
__INC_DPSEL_SELECT__ Target symbol: 0 
__LINE__             #define,            line:         0  
__NUMBER_OF_DPTRS__  #define, value: 1, line:         0       56:2    516:3    516:3    516:3
                                                                    516:3    516:3    516:3    516:3
                                                                    516:3    516:3    516:3    516:3
                                                                    516:3    516:3    516:3    516:3
                                                                    517:3    517:3    517:3    517:3
                                                                    517:3    517:3    517:3    517:3
                                                                    517:3    517:3    517:3    517:3
                                                                    517:3    517:3    517:3    519:3
                                                                    519:3    519:3    519:3    519:3
                                                                    519:3    519:3    519:3    519:3
                                                                    519:3    519:3    519:3    519:3
                                                                    519:3    519:3    520:3    520:3
                                                                    520:3    520:3    520:3    520:3
                                                                    520:3    520:3    520:3    520:3
                                                                    520:3    520:3    520:3    520:3
                                                                    520:3    521:3    521:3    521:3
                                                                    521:3    521:3    521:3    521:3
                                                                    521:3    521:3    521:3    521:3
                                                                    521:3    521:3    521:3    521:3
                                                                     97:1
__SIZE_OF_RETADDR__  #define, value: 2, line:      45:3      519:3    521:3    521:3       96
                                                                       97      100      101      209
                                                                      213      363      364      399
                                                                      442      443      479
__SUBVERSION__       #define,            line:         0  
__TID__              #define,            line:         0  
__TIME__             #define,            line:         0  
__VER__              #define,            line:         0  
__XOR_DPSEL_SELECT__ Target symbol: 0 
bytes                Target symbol: 0 
cfi_DATA_BLOCK_end   MACRO 
cfi_DATA_BLOCK_start MACRO 
cfi_PUSH_ISTACK_RET_DEFS_CONST_DEPEND
                     MACRO 
cfi_PUSH_ISTACK_RET_DEFS_REG_DEPEND
                     MACRO 
cfi_PUSH_REG         MACRO 
cfi_REMEMBER_STATE   MACRO 
cfi_RESTORE_STATE    MACRO 
cfi_SET_REG          MACRO 
cfi_STACK_ALLOC      MACRO 
cfi_STACK_DEALL      MACRO 
chip                 #define, value: 2510, line:         0  
constant             Target symbol: 0 
define               PREPROCESSOR DIRECTIVE 
defined              Target symbol: 0 
elif                 PREPROCESSOR DIRECTIVE 
else                 PREPROCESSOR DIRECTIVE 
endif                PREPROCESSOR DIRECTIVE 
error                PREPROCESSOR DIRECTIVE 
if                   PREPROCESSOR DIRECTIVE 
ifdef                PREPROCESSOR DIRECTIVE 
ifndef               PREPROCESSOR DIRECTIVE 
include              PREPROCESSOR DIRECTIVE 
line                 PREPROCESSOR DIRECTIVE 
message              PREPROCESSOR DIRECTIVE 
name                 Target symbol: 0 
no                   Target symbol: 0 
pragma               PREPROCESSOR DIRECTIVE 
reg                  Target symbol: 0 
reg_from             Target symbol: 0 
reg_to               Target symbol: 0 
undef                PREPROCESSOR DIRECTIVE 
|                    OPERATOR 
||                   OPERATOR 
~                    OPERATOR 

Segment             Type 	Mode
----------------------------------------
RCODE               CODE  	REL 
__EXTERNS           CODE  	ABS Org:0 

Label               Mode   Type                   Segment    Value/Offset
------------------------------------------------------------------------------
?L_MUL8_X           REL    CONST PUB UNTYP.       RCODE      0 
AC                  ABS    CONST UNTYP.           ASEG       D6 
ACC                 ABS    CONST UNTYP.           ASEG       E0 
B                   ABS    CONST UNTYP.           ASEG       F0 
BLOCK               REL    CONST UNTYP.           RCODE      Not solved 
CFA_SP              REL    CONST UNTYP.           RCODE      Not solved 
DPH                 ABS    CONST UNTYP.           ASEG       83 
DPL                 ABS    CONST UNTYP.           ASEG       82 
DPTR0               REL    CONST UNTYP.           RCODE      Not solved 
ENDBLOCK            REL    CONST UNTYP.           RCODE      Not solved 
EXTI0               ABS    CONST UNTYP.           ASEG       3 
EXTI1               ABS    CONST UNTYP.           ASEG       13 
F0                  ABS    CONST UNTYP.           ASEG       D5 
Frame               REL    CONST UNTYP.           RCODE      Not solved 
NOFUNCTION          REL    CONST UNTYP.           RCODE      Not solved 
OV                  ABS    CONST UNTYP.           ASEG       D2 
P                   ABS    CONST UNTYP.           ASEG       D0 
PSW                 ABS    CONST UNTYP.           ASEG       D0 
RESET               ABS    CONST UNTYP.           ASEG       0 
RS0                 ABS    CONST UNTYP.           ASEG       D3 
RS1                 ABS    CONST UNTYP.           ASEG       D4 
SINT                ABS    CONST UNTYP.           ASEG       23 
SP                  ABS    CONST UNTYP.           ASEG       81 
TID                 ABS    CONST UNTYP.           ASEG       2000 
TIMER0              ABS    CONST UNTYP.           ASEG       B 
TIMER1              ABS    CONST UNTYP.           ASEG       1B 
USING               REL    CONST UNTYP.           RCODE      Not solved 
cfi_common          REL    CONST UNTYP.           RCODE      Not solved 
samevalue           REL    CONST UNTYP.           RCODE      Not solved 
undefined           REL    CONST UNTYP.           RCODE      Not solved 


##############################
#          CRC:8DEC          #
#        Errors:   0         #
#        Warnings: 0         #
#         Bytes: 43          #
##############################



###############################################################################
#                                                                             #
#     IAR Systems 8051 Assembler V7.30A/W32 06/Apr/2017  13:54:37             #
#     Copyright 2007 IAR Systems. All rights reserved.                        #
#                                                                             #
#           Target option =  plain                                            #
#           Source file   =  E:\1500V_Test2\ED\code\Library\clib\iar_long.s51 #
#           List file     =  E:\1500V_Test2\ED\iar\Build .hex for CC2510\List\iar_long.lst#
#           Object file   =  E:\1500V_Test2\ED\iar\Build .hex for CC2510\Obj\iar_long.r51#
#           Command line  =  E:\1500V_Test2\ED\code\Library\clib\iar_long.s51 #
#                            -v0 -D__CORE__=1 -D__CODE_MODEL__=1              #
#                            -D__DATA_MODEL__=2 -D__CALLING_CONVENTION__=4    #
#                            -D__NUMBER_OF_DPTRS__=1                          #
#                            -OE:\1500V_Test2\ED\iar\Build .hex for CC2510\Obj\ #
#                            -s+ -M<>                                         #
#                            -LE:\1500V_Test2\ED\iar\Build .hex for CC2510\List\ #
#                            -t8 -xDI -IC:\IARSystems-CD-730B\8051\INC\       #
#                            -Dchip=2510 -D_LOW_IMAGE_ -w+                    #
#                                                                             #
###############################################################################

    485    000000          
    486    000000          ;---------------------------------------------------
                           --------------------------
    487    000000          ;
    488    000000          ;       Functions: (Un)signed long divison and
                            modulus
    489    000000          ;
    490    000000          ;- - - - - - - - - - - - - - - - - - - - - - - - - -
                            - - - - - - - - - - - - -
    491    000000          ;
    492    000000          ;       Function: ?UL_DIV_MOD
    493    000000          ;
    494    000000          ;       Description: Unsigned long division and
                            modulus.
    495    000000          ;
    496    000000          ;       Register input:
    497    000000          ;               R0 Points to LSB in the dividend
    498    000000          ;               R1 Points to LSB in the divisor
    499    000000          ;
    500    000000          ;               Note: R0 and R1 must always point to
                            different memory locations
    501    000000          ;
    502    000000          ;       Register output:
    503    000000          ;              @R0 = The result
    504    000000          ;              @R1 = The reminder
    505    000000          ;               A  = Is undefined
    506    000000          ;               B    Is undefined
    507    000000          ;               CY   Is undefined
    508    000000          ;
    509    000000          ;       Important notes:
    510    000000          ;               The source and destination cannot be
                            the same physical
    511    000000          ;               memory area since they are used as
                            accumulators.
    512    000000          ;
    513    000000          ;       Stack usage: 4
    514    000000          ;
    515    000000          ;---------------------------------------------------
                           --------------------------
    516    000000                  MODULE  ?UL_DIV_MOD             ; Replaceabl
                           e module
    517    000000                  RSEG    RCODE:CODE:NOROOT       
    518    000000                  PUBLIC  ?UL_DIV_MOD
    519    000000          
    520    000000                  RSEG    RCODE:CODE:NOROOT
    521    000000          
    522    000000                  CFI BLOCK ?UL_DIV_MOD USING cfi_common
    523    000000                  CFI NOFUNCTION
    524    000000          
    525    000000                  CFI     A  undefined
    526    000000                  CFI     B  undefined
    527    000000                  CFI     R0 undefined
    528    000000                  CFI     R1 undefined
    529    000000          
    530    000000          
    531    000000          ?UL_DIV_MOD:
    532    000000                  ; Save R7-R4 - set to zero and use as
                            remainder
    533    000000 E4               CLR     A
    534    000001 CF               XCH     A,R7
    535    000002 C0E0             PUSH    A
    536    000004              CFI CFA_MACHINE MACHINE_SP - (__SIZE_OF_RETADDR_
                           _ + 1)
    537    000004              CFI R7 Frame(CFA_MACHINE, __SIZE_OF_RETADDR__ +
                            1, 1)
    538    000004 E4               CLR     A
    539    000005 CE               XCH     A,R6
    540    000006 C0E0             PUSH    A
    541    000008              CFI CFA_MACHINE MACHINE_SP - (__SIZE_OF_RETADDR_
                           _ + 2)
    542    000008              CFI R6 Frame(CFA_MACHINE, __SIZE_OF_RETADDR__ +
                            2, 1)
    543    000008 E4               CLR     A
    544    000009 CD               XCH     A,R5
    545    00000A C0E0             PUSH    A
    546    00000C              CFI CFA_MACHINE MACHINE_SP - (__SIZE_OF_RETADDR_
                           _ + 3)
    547    00000C              CFI R5 Frame(CFA_MACHINE, __SIZE_OF_RETADDR__ +
                            3, 1)
    548    00000C E4               CLR     A
    549    00000D CC               XCH     A,R4
    550    00000E C0E0             PUSH    A
    551    000010              CFI CFA_MACHINE MACHINE_SP - (__SIZE_OF_RETADDR_
                           _ + 4)
    552    000010              CFI R4 Frame(CFA_MACHINE, __SIZE_OF_RETADDR__ +
                            4, 1)
    553    000010 75F020           MOV     B,#32           ; set loop
                                                            count
    554    000013          
    555    000013          DIV_LOOP:
    556    000013 C3               CLR     C               ; Clear carry
    557    000014 E6               MOV     A,@R0           ; Quote = (Quote <<
                                                            1) + Carry
    558    000015 33               RLC     A
    559    000016 F6               MOV     @R0,A
    560    000017 08               INC     R0
    561    000018 E6               MOV     A,@R0
    562    000019 33               RLC     A
    563    00001A F6               MOV     @R0,A
    564    00001B 08               INC     R0
    565    00001C E6               MOV     A,@R0
    566    00001D 33               RLC     A
    567    00001E F6               MOV     @R0,A
    568    00001F 08               INC     R0
    569    000020 E6               MOV     A,@R0
    570    000021 33               RLC     A
    571    000022 F6               MOV     @R0,A
    572    000023 18               DEC     R0              ; Reset pointer
    573    000024 18               DEC     R0
    574    000025 18               DEC     R0
    575    000026          
    576    000026 EC               MOV     A,R4            ; Remainder =
                                                            (Remainder << 1) +
                                                            Carry
    577    000027 33               RLC     A
    578    000028 FC               MOV     R4,A
    579    000029 ED               MOV     A,R5
    580    00002A 33               RLC     A
    581    00002B FD               MOV     R5,A
    582    00002C EE               MOV     A,R6
    583    00002D 33               RLC     A
    584    00002E FE               MOV     R6,A
    585    00002F EF               MOV     A,R7
    586    000030 33               RLC     A
    587    000031 FF               MOV     R7,A
    588    000032          
    589    000032 C3               CLR     C               ; Compare remainder
                                                            and divisor
    590    000033 EC               MOV     A,R4
    591    000034 97               SUBB    A,@R1
    592    000035 09               INC     R1
    593    000036 ED               MOV     A,R5
    594    000037 97               SUBB    A,@R1
    595    000038 09               INC     R1
    596    000039 EE               MOV     A,R6
    597    00003A 97               SUBB    A,@R1
    598    00003B 09               INC     R1
    599    00003C EF               MOV     A,R7
    600    00003D 97               SUBB    A,@R1
    601    00003E 19               DEC     R1
    602    00003F 19               DEC     R1
    603    000040 19               DEC     R1
    604    000041          
    605    000041 400F             JC      NO_ADJUST
    606    000043          
    607    000043                  ; carry = 0, no need to clear
    608    000043 FF               MOV     R7,A            ; Remainder =
                                                            remainder -
                                                            divisor
    609    000044 EC               MOV     A,R4
    610    000045 97               SUBB    A,@R1
    611    000046 FC               MOV     R4,A
    612    000047 09               INC     R1
    613    000048 ED               MOV     A,R5
    614    000049 97               SUBB    A,@R1
    615    00004A FD               MOV     R5,A
    616    00004B 09               INC     R1
    617    00004C EE               MOV     A,R6
    618    00004D 97               SUBB    A,@R1
    619    00004E FE               MOV     R6,A
    620    00004F 19               DEC     R1              ; Reset pointer
    621    000050 19               DEC     R1
    622    000051          
    623    000051 06               INC     @R0             ; increment LSB in
                                                            quote
    624    000052                  
    625    000052          NO_ADJUST:
    626    000052 D5F0BE           DJNZ    B,DIV_LOOP
    627    000055          
    628    000055 EC               MOV     A,R4            ; Copy remainder to
                                                            @R1 (operand
                                                            2)
    629    000056 F7               MOV     @R1,A
    630    000057 09               INC     R1
    631    000058 ED               MOV     A,R5    
    632    000059 F7               MOV     @R1,A
    633    00005A 09               INC     R1
    634    00005B EE               MOV     A,R6    
    635    00005C F7               MOV     @R1,A
    636    00005D 09               INC     R1
    637    00005E EF               MOV     A,R7    
    638    00005F F7               MOV     @R1,A
    639    000060 19               DEC     R1
    640    000061 19               DEC     R1
    641    000062 19               DEC     R1
    642    000063          
    643    000063 D0E0             POP     A               ; Restore saved
                                                            registers
    644    000065              CFI CFA_MACHINE MACHINE_SP - (__SIZE_OF_RETADDR_
                           _ + 3)
    645    000065 FC               MOV     R4,A
    646    000066              CFI R4 samevalue
    647    000066 D0E0             POP     A
    648    000068              CFI CFA_MACHINE MACHINE_SP - (__SIZE_OF_RETADDR_
                           _ + 2)
    649    000068 FD               MOV     R5,A
    650    000069              CFI R5 samevalue
    651    000069 D0E0             POP     A
    652    00006B              CFI CFA_MACHINE MACHINE_SP - (__SIZE_OF_RETADDR_
                           _ + 1)
    653    00006B FE               MOV     R6,A
    654    00006C              CFI R6 samevalue
    655    00006C D0E0             POP     A
    656    00006E              CFI CFA_MACHINE MACHINE_SP - __SIZE_OF_RETADDR__
    657    00006E FF               MOV     R7,A
    658    00006F              CFI R7 samevalue
    659    00006F          
    660    00006F 22               RET
    661    000070                  CFI ENDBLOCK ?UL_DIV_MOD
    662    000070                  ENDMOD


EOF                  DELIMITER 
\n                   DELIMITER 
                     DELIMITER 
!                    OPERATOR 
!=                   OPERATOR 
%                    OPERATOR 
&                    OPERATOR 
&&                   OPERATOR 
(                    OPERATOR 
(                    DELIMITER 
)                    OPERATOR 
)                    DELIMITER 
*                    OPERATOR 
+                    OPERATOR 
,                    DELIMITER 
-                    OPERATOR 
/                    OPERATOR 
:                    DELIMITER 
;                    DELIMITER 
;                    Target symbol: 23 
<                    OPERATOR 
<<                   OPERATOR 
<=                   OPERATOR 
<>                   OPERATOR 
=                    OPERATOR 
=                    DIRECTIVE 
==                   OPERATOR 
>                    OPERATOR 
>=                   OPERATOR 
>>                   OPERATOR 
?XSP                 Target symbol: 0 
@                    DELIMITER 
A                    REGISTER 
AB                   REGISTER 
ACALL                MNEMONIC 
ADD                  MNEMONIC 
ADDC                 MNEMONIC 
AJMP                 MNEMONIC 
ALIAS                DIRECTIVE 
ALIGN                DIRECTIVE 
ALIGNRAM             DIRECTIVE 
AND                  OPERATOR 
ANL                  MNEMONIC 
ARGFRAME             DIRECTIVE 
ASEG                 DIRECTIVE 
ASEGN                DIRECTIVE 
ASSIGN               DIRECTIVE 
B                    REGISTER 
BINAND               OPERATOR 
BINNOT               OPERATOR 
BINOR                OPERATOR 
BINXOR               OPERATOR 
BIT                  SEGMENT TYPE 
BITAND               OPERATOR 
BITNOT               OPERATOR 
BITOR                OPERATOR 
BITXOR               OPERATOR 
BREAK                DIRECTIVE 
BYTE                 Target symbol: 524288 
BYTE1                OPERATOR 
BYTE2                OPERATOR 
BYTE3                OPERATOR 
BYTE4                OPERATOR 
C                    Target symbol: 1 
CALL                 MNEMONIC 
CASE                 DIRECTIVE 
CASEOFF              DIRECTIVE 
CASEON               DIRECTIVE 
CFA_ESP16            Target symbol: 0 
CFA_ESP24            Target symbol: 0 
CFA_MACHINE          #define, value: CFA_SP, line:      37:3      516:3    517:3    519:3    519:3
                                                                    519:3    520:3    520:3    520:3
                                                                    520:3    521:3    521:3    521:3
                                                                    521:3    521:3       96       97
                                                                      100      101      209      213
                                                                      363      364      399      442
                                                                      443      479      536      537
                                                                      541      542      546      547
                                                                      551      552      644      648
                                                                      652      656
CFA_PSP24            Target symbol: 0 
CFA_SPP              #define, value: CFA_PSP16, line:      21:3  
CFA_SPX              #define, value: CFA_XSP16, line:      23:3  
CFA_XSP24            Target symbol: 0 
CFI                  DIRECTIVE 
CFI_COMMON_DECLARE_CORE_COMMON MACRO 
CFI_COMMON_DECLARE_SAME_VALUE_FOR_ALL_REGISTERS
                     MACRO 
CFI_COMMON_DECLARE_UNDEFINED_FOR_ALL_DPTR_REGISTERS
                     MACRO 
CFI_NAMES_DECLARE_REGISTER_RESOURCES
                     MACRO 
CFI_NAMES_DECLARE_RETURN_RESOURCE
                     MACRO 
CFI_NAMES_DECLARE_STACKS MACRO 
CFI_banked_com       MACRO 
CFI_banked_nam       MACRO 
CFI_com              MACRO 
CFI_nam              MACRO 
CFI_pdata_enter_com  MACRO 
CFI_pdata_enter_nam  MACRO 
CJNE                 MNEMONIC 
CLR                  MNEMONIC 
CODE                 SEGMENT TYPE 
CODE                 DIRECTIVE 
COL                  DIRECTIVE 
COMMON               DIRECTIVE 
CONST                SEGMENT TYPE 
CONTINUE             DIRECTIVE 
CPL                  MNEMONIC 
CY                   Target symbol: 1 
DA                   MNEMONIC 
DATA                 SEGMENT TYPE 
DATA                 DIRECTIVE 
DATE                 OPERATOR 
DB                   DIRECTIVE 
DC16                 DIRECTIVE 
DC24                 DIRECTIVE 
DC32                 DIRECTIVE 
DC8                  DIRECTIVE 
DD                   DIRECTIVE 
DEC                  MNEMONIC 
DEFAULT              DIRECTIVE 
DEFINE               DIRECTIVE 
DIV                  MNEMONIC 
DJNZ                 MNEMONIC 
DPTR                 REGISTER 
DPTR_MASK_SYMBOLS    MACRO 
DS                   DIRECTIVE 
DS16                 DIRECTIVE 
DS24                 DIRECTIVE 
DS32                 DIRECTIVE 
DS8                  DIRECTIVE 
DT                   DIRECTIVE 
DW                   DIRECTIVE 
ELSE                 DIRECTIVE 
ELSEIF               DIRECTIVE 
ELSEIFS              DIRECTIVE 
ELSES                DIRECTIVE 
END                  DIRECTIVE 
ENDF                 DIRECTIVE 
ENDIF                DIRECTIVE 
ENDIFS               DIRECTIVE 
ENDM                 DIRECTIVE 
ENDMAC               DIRECTIVE 
ENDMOD               DIRECTIVE 
ENDR                 DIRECTIVE 
ENDS                 DIRECTIVE 
ENDW                 DIRECTIVE 
EQ                   OPERATOR 
EQU                  DIRECTIVE 
ESP16                Target symbol: 0 
ESP24                Target symbol: 0 
EVEN                 DIRECTIVE 
EXITM                DIRECTIVE 
EXPORT               DIRECTIVE 
EXTERN               DIRECTIVE 
EXTERNS_FOR_ALL_DPTR_SYMBOLS MACRO 
EXTRN                DIRECTIVE 
FAR                  SEGMENT TYPE 
FARCODE              SEGMENT TYPE 
FARCONST             SEGMENT TYPE 
FARDATA              SEGMENT TYPE 
FOR                  DIRECTIVE 
FUNCALL              DIRECTIVE 
FUNCTION             DIRECTIVE 
GE                   OPERATOR 
GT                   OPERATOR 
HIGH                 OPERATOR 
HUGE                 SEGMENT TYPE 
HUGECODE             SEGMENT TYPE 
HUGECONST            SEGMENT TYPE 
HUGEDATA             SEGMENT TYPE 
HWRD                 OPERATOR 
IDATA                SEGMENT TYPE 
IF                   DIRECTIVE 
IFS                  DIRECTIVE 
IMPORT               DIRECTIVE 
INC                  MNEMONIC 
JB                   MNEMONIC 
JBC                  MNEMONIC 
JC                   MNEMONIC 
JMP                  MNEMONIC 
JNB                  MNEMONIC 
JNC                  MNEMONIC 
JNZ                  MNEMONIC 
JZ                   MNEMONIC 
LCALL                MNEMONIC 
LE                   OPERATOR 
LIBRARY              DIRECTIVE 
LIMIT                DIRECTIVE 
LJMP                 MNEMONIC 
LOC                  OPERATOR 
LOCAL                DIRECTIVE 
LOCFRAME             DIRECTIVE 
LONG                 Target symbol: 2097152 
LOW                  OPERATOR 
LSTCND               DIRECTIVE 
LSTCOD               DIRECTIVE 
LSTCYC               DIRECTIVE 
LSTEXP               DIRECTIVE 
LSTMAC               DIRECTIVE 
LSTOUT               DIRECTIVE 
LSTPAG               DIRECTIVE 
LSTREP               DIRECTIVE 
LSTSAS               DIRECTIVE 
LSTXRF               DIRECTIVE 
LT                   OPERATOR 
LWRD                 OPERATOR 
MACHINE_MEM          #define, value: DATA, line:      39:3      516:3    517:3
MACHINE_SP           #define, value: SP, line:      38:3      516:3    516:3    517:3    517:3
                                                                    519:3    520:3    521:3       96
                                                                      100      209      213      363
                                                                      399      442      479      536
                                                                      541      546      551      644
                                                                      648      652      656
MACRO                DIRECTIVE 
MOD                  OPERATOR 
MODULE               DIRECTIVE 
MOV                  MNEMONIC 
MOVC                 MNEMONIC 
MOVX                 MNEMONIC 
MUL                  MNEMONIC 
NAME                 DIRECTIVE 
NE                   OPERATOR 
NEAR                 SEGMENT TYPE 
NEARCODE             SEGMENT TYPE 
NEARCONST            SEGMENT TYPE 
NEARDATA             SEGMENT TYPE 
NOP                  MNEMONIC 
NOROOT               SEGMENT TYPE 
NOT                  OPERATOR 
NPAGE                SEGMENT TYPE 
ODD                  DIRECTIVE 
OR                   OPERATOR 
ORG                  DIRECTIVE 
ORL                  MNEMONIC 
PAGE                 DIRECTIVE 
PAGSIZ               DIRECTIVE 
PC                   REGISTER 
POP                  MNEMONIC 
PRM                  OPERATOR 
PROGRAM              DIRECTIVE 
PSP24                Target symbol: 0 
PUBLIC               DIRECTIVE 
PUBWEAK              DIRECTIVE 
PUSH                 MNEMONIC 
R0                   REGISTER 
R1                   REGISTER 
R2                   REGISTER 
R3                   REGISTER 
R4                   REGISTER 
R5                   REGISTER 
R6                   REGISTER 
R7                   REGISTER 
RADIX                DIRECTIVE 
READ                 Target symbol: 2048 
REGISTER             SEGMENT TYPE 
REORDER              SEGMENT TYPE 
REPEAT               DIRECTIVE 
REPT                 DIRECTIVE 
REPTC                DIRECTIVE 
REPTI                DIRECTIVE 
REQUIRE              DIRECTIVE 
RET                  MNEMONIC 
RETI                 MNEMONIC 
RL                   MNEMONIC 
RLC                  MNEMONIC 
ROOT                 SEGMENT TYPE 
RR                   MNEMONIC 
RRC                  MNEMONIC 
RSEG                 DIRECTIVE 
RTMODEL              DIRECTIVE 
S                    PREFIX 
SET                  DIRECTIVE 
SETB                 MNEMONIC 
SFB                  OPERATOR 
SFE                  OPERATOR 
SFRTYPE              DIRECTIVE 
SHL                  OPERATOR 
SHR                  OPERATOR 
SIZEOF               OPERATOR 
SJMP                 MNEMONIC 
SORT                 SEGMENT TYPE 
SPP                  #define, value: PSP16, line:      22:3      521:3
SPX                  #define, value: XSP16, line:      24:3  
STACK                DIRECTIVE 
SUBB                 MNEMONIC 
SWAP                 MNEMONIC 
SWITCH               DIRECTIVE 
SYMBOL               DIRECTIVE 
UGT                  OPERATOR 
ULT                  OPERATOR 
UNTIL                DIRECTIVE 
UNTYPED              SEGMENT TYPE 
WHILE                DIRECTIVE 
WORD                 Target symbol: 1048576 
WRITE                Target symbol: 4096 
XCH                  MNEMONIC 
XCHD                 MNEMONIC 
XDATA                SEGMENT TYPE 
XOR                  OPERATOR 
XRL                  MNEMONIC 
XSP24                Target symbol: 0 
XSP_H                #define, value: ?XSP+1, line:      24:1  
XSP_L                #define, value: ?XSP, line:      23:1  
ZPAGE                SEGMENT TYPE 
[                    DELIMITER 
]                    DELIMITER 
^                    OPERATOR 
_LOW_IMAGE_          #define, value: 1, line:         0  
__BUILD_NUMBER__     #define,            line:         0  
__CALLING_CONVENTION__ #define, value: 4, line:         0  
__CC_DO__            #define, value: 0, line:      45:2  
__CC_ER__            #define, value: 5, line:      50:2  
__CC_IO__            #define, value: 1, line:      46:2  
__CC_IR__            #define, value: 2, line:      47:2  
__CC_PR__            #define, value: 3, line:      48:2  
__CC_XR__            #define, value: 4, line:      49:2  
__CM_BANKED_EXT2__   #define, value: 4, line:      31:2  
__CM_BANKED__        #define, value: 2, line:      29:2  
__CM_FAR__           #define, value: 3, line:      30:2       42:3    516:3    519:3
__CM_NEAR__          #define, value: 1, line:      28:2  
__CM_TINY__          #define, value: 0, line:      27:2  
__CODE_MODEL__       #define, value: 1, line:         0       42:3    516:3    519:3
__CORE_EXTENDED1__   #define, value: 2, line:      21:2       67:2    521:3
__CORE_EXTENDED2__   #define, value: 3, line:      22:2  
__CORE_PLAIN__       #define, value: 1, line:      20:2  
__CORE_TINY__        #define, value: 0, line:      19:2  
__CORE__             #define, value: 1, line:         0       67:2    521:3
__DATA_MODEL__       #define, value: 2, line:         0  
__DATE__             #define,            line:         0  
__DM_FAR__           #define, value: 4, line:      40:2  
__DM_GENERIC__       #define, value: 3, line:      39:2  
__DM_LARGE__         #define, value: 2, line:      38:2  
__DM_SMALL__         #define, value: 1, line:      37:2  
__DM_TINY__          #define, value: 0, line:      36:2  
__DPTR_SEPARATE__    Target symbol: 0 
__DPTR_SHADOWED__    Target symbol: 0 
__EXTENDED_STACK__   Target symbol: 0 
__FILE__             #define,            line:         0  
__IAR_SYSTEMS_ASM    #define,            line:         0  
__IAR_SYSTEMS_ASM__  #define,            line:         0  
__INC_DPSEL_SELECT__ Target symbol: 0 
__LINE__             #define,            line:         0  
__NUMBER_OF_DPTRS__  #define, value: 1, line:         0       56:2    516:3    516:3    516:3
                                                                    516:3    516:3    516:3    516:3
                                                                    516:3    516:3    516:3    516:3
                                                                    516:3    516:3    516:3    516:3
                                                                    517:3    517:3    517:3    517:3
                                                                    517:3    517:3    517:3    517:3
                                                                    517:3    517:3    517:3    517:3
                                                                    517:3    517:3    517:3    519:3
                                                                    519:3    519:3    519:3    519:3
                                                                    519:3    519:3    519:3    519:3
                                                                    519:3    519:3    519:3    519:3
                                                                    519:3    519:3    520:3    520:3
                                                                    520:3    520:3    520:3    520:3
                                                                    520:3    520:3    520:3    520:3
                                                                    520:3    520:3    520:3    520:3
                                                                    520:3    521:3    521:3    521:3
                                                                    521:3    521:3    521:3    521:3
                                                                    521:3    521:3    521:3    521:3
                                                                    521:3    521:3    521:3    521:3
                                                                     97:1
__SIZE_OF_RETADDR__  #define, value: 2, line:      45:3      519:3    521:3    521:3       96
                                                                       97      100      101      209
                                                                      213      363      364      399
                                                                      442      443      479      536
                                                                      537      541      542      546
                                                                      547      551      552      644
                                                                      648      652      656
__SUBVERSION__       #define,            line:         0  
__TID__              #define,            line:         0  
__TIME__             #define,            line:         0  
__VER__              #define,            line:         0  
__XOR_DPSEL_SELECT__ Target symbol: 0 
bytes                Target symbol: 0 
cfi_DATA_BLOCK_end   MACRO 
cfi_DATA_BLOCK_start MACRO 
cfi_PUSH_ISTACK_RET_DEFS_CONST_DEPEND
                     MACRO 
cfi_PUSH_ISTACK_RET_DEFS_REG_DEPEND
                     MACRO 
cfi_PUSH_REG         MACRO 
cfi_REMEMBER_STATE   MACRO 
cfi_RESTORE_STATE    MACRO 
cfi_SET_REG          MACRO 
cfi_STACK_ALLOC      MACRO 
cfi_STACK_DEALL      MACRO 
chip                 #define, value: 2510, line:         0  
constant             Target symbol: 0 
define               PREPROCESSOR DIRECTIVE 
defined              Target symbol: 0 
elif                 PREPROCESSOR DIRECTIVE 
else                 PREPROCESSOR DIRECTIVE 
endif                PREPROCESSOR DIRECTIVE 
error                PREPROCESSOR DIRECTIVE 
if                   PREPROCESSOR DIRECTIVE 
ifdef                PREPROCESSOR DIRECTIVE 
ifndef               PREPROCESSOR DIRECTIVE 
include              PREPROCESSOR DIRECTIVE 
line                 PREPROCESSOR DIRECTIVE 
message              PREPROCESSOR DIRECTIVE 
name                 Target symbol: 0 
no                   Target symbol: 0 
pragma               PREPROCESSOR DIRECTIVE 
reg                  Target symbol: 0 
reg_from             Target symbol: 0 
reg_to               Target symbol: 0 
undef                PREPROCESSOR DIRECTIVE 
|                    OPERATOR 
||                   OPERATOR 
~                    OPERATOR 

Segment             Type 	Mode
----------------------------------------
RCODE               CODE  	REL 
__EXTERNS           CODE  	ABS Org:0 

Label               Mode   Type                   Segment    Value/Offset
------------------------------------------------------------------------------
?UL_DIV_MOD         REL    CONST PUB UNTYP.       RCODE      0 
AC                  ABS    CONST UNTYP.           ASEG       D6 
ACC                 ABS    CONST UNTYP.           ASEG       E0 
B                   ABS    CONST UNTYP.           ASEG       F0 
BLOCK               REL    CONST UNTYP.           RCODE      Not solved 
CFA_SP              REL    CONST UNTYP.           RCODE      Not solved 
DIV_LOOP            REL    CONST UNTYP.           RCODE      13 
DPH                 ABS    CONST UNTYP.           ASEG       83 
DPL                 ABS    CONST UNTYP.           ASEG       82 
ENDBLOCK            REL    CONST UNTYP.           RCODE      Not solved 
EXTI0               ABS    CONST UNTYP.           ASEG       3 
EXTI1               ABS    CONST UNTYP.           ASEG       13 
F0                  ABS    CONST UNTYP.           ASEG       D5 
Frame               REL    CONST UNTYP.           RCODE      Not solved 
NOFUNCTION          REL    CONST UNTYP.           RCODE      Not solved 
NO_ADJUST           REL    CONST UNTYP.           RCODE      52 
OV                  ABS    CONST UNTYP.           ASEG       D2 
P                   ABS    CONST UNTYP.           ASEG       D0 
PSW                 ABS    CONST UNTYP.           ASEG       D0 
RESET               ABS    CONST UNTYP.           ASEG       0 
RS0                 ABS    CONST UNTYP.           ASEG       D3 
RS1                 ABS    CONST UNTYP.           ASEG       D4 
SINT                ABS    CONST UNTYP.           ASEG       23 
SP                  ABS    CONST UNTYP.           ASEG       81 
TID                 ABS    CONST UNTYP.           ASEG       2000 
TIMER0              ABS    CONST UNTYP.           ASEG       B 
TIMER1              ABS    CONST UNTYP.           ASEG       1B 
USING               REL    CONST UNTYP.           RCODE      Not solved 
cfi_common          REL    CONST UNTYP.           RCODE      Not solved 
samevalue           REL    CONST UNTYP.           RCODE      Not solved 
undefined           REL    CONST UNTYP.           RCODE      Not solved 


##############################
#          CRC:2AD9          #
#        Errors:   0         #
#        Warnings: 0         #
#         Bytes: 112         #
##############################



###############################################################################
#                                                                             #
#     IAR Systems 8051 Assembler V7.30A/W32 06/Apr/2017  13:54:37             #
#     Copyright 2007 IAR Systems. All rights reserved.                        #
#                                                                             #
#           Target option =  plain                                            #
#           Source file   =  E:\1500V_Test2\ED\code\Library\clib\iar_long.s51 #
#           List file     =  E:\1500V_Test2\ED\iar\Build .hex for CC2510\List\iar_long.lst#
#           Object file   =  E:\1500V_Test2\ED\iar\Build .hex for CC2510\Obj\iar_long.r51#
#           Command line  =  E:\1500V_Test2\ED\code\Library\clib\iar_long.s51 #
#                            -v0 -D__CORE__=1 -D__CODE_MODEL__=1              #
#                            -D__DATA_MODEL__=2 -D__CALLING_CONVENTION__=4    #
#                            -D__NUMBER_OF_DPTRS__=1                          #
#                            -OE:\1500V_Test2\ED\iar\Build .hex for CC2510\Obj\ #
#                            -s+ -M<>                                         #
#                            -LE:\1500V_Test2\ED\iar\Build .hex for CC2510\List\ #
#                            -t8 -xDI -IC:\IARSystems-CD-730B\8051\INC\       #
#                            -Dchip=2510 -D_LOW_IMAGE_ -w+                    #
#                                                                             #
###############################################################################

    663    000000          
    664    000000          ;---------------------------------------------------
                           --------------------------
    665    000000          ;
    666    000000          ;       Function: ?L_DIV_MOD
    667    000000          ;
    668    000000          ;       Description: Signed division and modulus
    669    000000          ;
    670    000000          ;       Register input:
    671    000000          ;               R0 Points to LSB in the dividend
                            (destination object)
    672    000000          ;               R1 Points to LSB in the divisor
    673    000000          ;
    674    000000          ;       Register output:
    675    000000          ;              @R0 = The result
    676    000000          ;              @R1 = The reminder
    677    000000          ;               A  = Is undefined
    678    000000          ;               B    Is undefined
    679    000000          ;               CY   Is undefined
    680    000000          ;
    681    000000          ;       Important notes:
    682    000000          ;               The source and destination cannot be
                            the sam physical
    683    000000          ;               memory area since they are used as
                            accumulators.
    684    000000          ;
    685    000000          ;       Stack usage: 4
    686    000000          ;
    687    000000          ;---------------------------------------------------
                           --------------------------
    688    000000                  MODULE  ?L_DIV_MOD              ; Replaceabl
                           e module
    689    000000                  RSEG    RCODE:CODE:NOROOT       
    690    000000                  PUBLIC  ?L_DIV_MOD
    691    000000                  EXTERN  ?L_NEG
    692    000000                  EXTERN  ?L_NEG_R1
    693    000000                  EXTERN  ?UL_DIV_MOD
    694    000000                  CFI BLOCK ?L_DIV_MOD USING cfi_common
    695    000000                  CFI NOFUNCTION
    696    000000          
    697    000000                  CFI     A  undefined
    698    000000                  CFI     B  undefined
    699    000000                  CFI     R0 undefined
    700    000000                  CFI     R1 undefined
    701    000000          
    702    000000          NEG_DIV_NEG:
    703    000000 12....           LCALL   ?L_NEG
    704    000003 18               DEC     R0
    705    000004 18               DEC     R0
    706    000005 18               DEC     R0
    707    000006 12....           LCALL   ?UL_DIV_MOD
    708    000009 12....           LCALL   ?L_NEG_R1
    709    00000C 19               DEC     R1
    710    00000D 19               DEC     R1
    711    00000E 19               DEC     R1
    712    00000F 22               RET
    713    000010          
    714    000010          X_DIV_NEG:
    715    000010 12....           LCALL   ?L_NEG_R1
    716    000013 19               DEC     R1
    717    000014 19               DEC     R1
    718    000015 19               DEC     R1
    719    000016 08               INC     R0
    720    000017 08               INC     R0
    721    000018 08               INC     R0
    722    000019 E6               MOV     A,@R0
    723    00001A 18               DEC     R0
    724    00001B 18               DEC     R0
    725    00001C 18               DEC     R0
    726    00001D 20E7E0           JB      ACC.7,NEG_DIV_NEG
    727    000020          
    728    000020          ; POS_DIV_NEG:
    729    000020 12....           LCALL   ?UL_DIV_MOD
    730    000023 12....           LCALL   ?L_NEG
    731    000026 18               DEC     R0
    732    000027 18               DEC     R0
    733    000028 18               DEC     R0
    734    000029 22               RET
    735    00002A          
    736    00002A          ?L_DIV_MOD:
    737    00002A 09               INC     R1
    738    00002B 09               INC     R1
    739    00002C 09               INC     R1
    740    00002D E7               MOV     A,@R1
    741    00002E 19               DEC     R1
    742    00002F 19               DEC     R1
    743    000030 19               DEC     R1
    744    000031 20E7DC           JB      ACC.7,X_DIV_NEG
    745    000034          
    746    000034 08               INC     R0      
    747    000035 08               INC     R0      
    748    000036 08               INC     R0      
    749    000037 E6               MOV     A,@R0
    750    000038 18               DEC     R0
    751    000039 18               DEC     R0
    752    00003A 18               DEC     R0
    753    00003B 20E703           JB      ACC.7,NEG_DIV_POS
    754    00003E          
    755    00003E          ; POS_DIV_POS:
    756    00003E 02....           LJMP    ?UL_DIV_MOD
    757    000041          
    758    000041          NEG_DIV_POS:
    759    000041 12....           LCALL   ?L_NEG
    760    000044 18               DEC     R0
    761    000045 18               DEC     R0
    762    000046 18               DEC     R0
    763    000047 12....           LCALL   ?UL_DIV_MOD
    764    00004A 12....           LCALL   ?L_NEG
    765    00004D 18               DEC     R0
    766    00004E 18               DEC     R0
    767    00004F 18               DEC     R0
    768    000050 12....           LCALL   ?L_NEG_R1
    769    000053 19               DEC     R1
    770    000054 19               DEC     R1
    771    000055 19               DEC     R1
    772    000056 22               RET
    773    000057          
    774    000057                  CFI ENDBLOCK ?L_DIV_MOD
    775    000057                  ENDMOD


EOF                  DELIMITER 
\n                   DELIMITER 
                     DELIMITER 
!                    OPERATOR 
!=                   OPERATOR 
%                    OPERATOR 
&                    OPERATOR 
&&                   OPERATOR 
(                    OPERATOR 
(                    DELIMITER 
)                    OPERATOR 
)                    DELIMITER 
*                    OPERATOR 
+                    OPERATOR 
,                    DELIMITER 
-                    OPERATOR 
/                    OPERATOR 
:                    DELIMITER 
;                    DELIMITER 
;                    Target symbol: 23 
<                    OPERATOR 
<<                   OPERATOR 
<=                   OPERATOR 
<>                   OPERATOR 
=                    OPERATOR 
=                    DIRECTIVE 
==                   OPERATOR 
>                    OPERATOR 
>=                   OPERATOR 
>>                   OPERATOR 
?XSP                 Target symbol: 0 
@                    DELIMITER 
A                    REGISTER 
AB                   REGISTER 
ACALL                MNEMONIC 
ADD                  MNEMONIC 
ADDC                 MNEMONIC 
AJMP                 MNEMONIC 
ALIAS                DIRECTIVE 
ALIGN                DIRECTIVE 
ALIGNRAM             DIRECTIVE 
AND                  OPERATOR 
ANL                  MNEMONIC 
ARGFRAME             DIRECTIVE 
ASEG                 DIRECTIVE 
ASEGN                DIRECTIVE 
ASSIGN               DIRECTIVE 
B                    REGISTER 
BINAND               OPERATOR 
BINNOT               OPERATOR 
BINOR                OPERATOR 
BINXOR               OPERATOR 
BIT                  SEGMENT TYPE 
BITAND               OPERATOR 
BITNOT               OPERATOR 
BITOR                OPERATOR 
BITXOR               OPERATOR 
BREAK                DIRECTIVE 
BYTE                 Target symbol: 524288 
BYTE1                OPERATOR 
BYTE2                OPERATOR 
BYTE3                OPERATOR 
BYTE4                OPERATOR 
C                    Target symbol: 1 
CALL                 MNEMONIC 
CASE                 DIRECTIVE 
CASEOFF              DIRECTIVE 
CASEON               DIRECTIVE 
CFA_ESP16            Target symbol: 0 
CFA_ESP24            Target symbol: 0 
CFA_MACHINE          #define, value: CFA_SP, line:      37:3      516:3    517:3    519:3    519:3
                                                                    519:3    520:3    520:3    520:3
                                                                    520:3    521:3    521:3    521:3
                                                                    521:3    521:3       96       97
                                                                      100      101      209      213
                                                                      363      364      399      442
                                                                      443      479      536      537
                                                                      541      542      546      547
                                                                      551      552      644      648
                                                                      652      656
CFA_PSP24            Target symbol: 0 
CFA_SPP              #define, value: CFA_PSP16, line:      21:3  
CFA_SPX              #define, value: CFA_XSP16, line:      23:3  
CFA_XSP24            Target symbol: 0 
CFI                  DIRECTIVE 
CFI_COMMON_DECLARE_CORE_COMMON MACRO 
CFI_COMMON_DECLARE_SAME_VALUE_FOR_ALL_REGISTERS
                     MACRO 
CFI_COMMON_DECLARE_UNDEFINED_FOR_ALL_DPTR_REGISTERS
                     MACRO 
CFI_NAMES_DECLARE_REGISTER_RESOURCES
                     MACRO 
CFI_NAMES_DECLARE_RETURN_RESOURCE
                     MACRO 
CFI_NAMES_DECLARE_STACKS MACRO 
CFI_banked_com       MACRO 
CFI_banked_nam       MACRO 
CFI_com              MACRO 
CFI_nam              MACRO 
CFI_pdata_enter_com  MACRO 
CFI_pdata_enter_nam  MACRO 
CJNE                 MNEMONIC 
CLR                  MNEMONIC 
CODE                 SEGMENT TYPE 
CODE                 DIRECTIVE 
COL                  DIRECTIVE 
COMMON               DIRECTIVE 
CONST                SEGMENT TYPE 
CONTINUE             DIRECTIVE 
CPL                  MNEMONIC 
CY                   Target symbol: 1 
DA                   MNEMONIC 
DATA                 SEGMENT TYPE 
DATA                 DIRECTIVE 
DATE                 OPERATOR 
DB                   DIRECTIVE 
DC16                 DIRECTIVE 
DC24                 DIRECTIVE 
DC32                 DIRECTIVE 
DC8                  DIRECTIVE 
DD                   DIRECTIVE 
DEC                  MNEMONIC 
DEFAULT              DIRECTIVE 
DEFINE               DIRECTIVE 
DIV                  MNEMONIC 
DJNZ                 MNEMONIC 
DPTR                 REGISTER 
DPTR_MASK_SYMBOLS    MACRO 
DS                   DIRECTIVE 
DS16                 DIRECTIVE 
DS24                 DIRECTIVE 
DS32                 DIRECTIVE 
DS8                  DIRECTIVE 
DT                   DIRECTIVE 
DW                   DIRECTIVE 
ELSE                 DIRECTIVE 
ELSEIF               DIRECTIVE 
ELSEIFS              DIRECTIVE 
ELSES                DIRECTIVE 
END                  DIRECTIVE 
ENDF                 DIRECTIVE 
ENDIF                DIRECTIVE 
ENDIFS               DIRECTIVE 
ENDM                 DIRECTIVE 
ENDMAC               DIRECTIVE 
ENDMOD               DIRECTIVE 
ENDR                 DIRECTIVE 
ENDS                 DIRECTIVE 
ENDW                 DIRECTIVE 
EQ                   OPERATOR 
EQU                  DIRECTIVE 
ESP16                Target symbol: 0 
ESP24                Target symbol: 0 
EVEN                 DIRECTIVE 
EXITM                DIRECTIVE 
EXPORT               DIRECTIVE 
EXTERN               DIRECTIVE 
EXTERNS_FOR_ALL_DPTR_SYMBOLS MACRO 
EXTRN                DIRECTIVE 
FAR                  SEGMENT TYPE 
FARCODE              SEGMENT TYPE 
FARCONST             SEGMENT TYPE 
FARDATA              SEGMENT TYPE 
FOR                  DIRECTIVE 
FUNCALL              DIRECTIVE 
FUNCTION             DIRECTIVE 
GE                   OPERATOR 
GT                   OPERATOR 
HIGH                 OPERATOR 
HUGE                 SEGMENT TYPE 
HUGECODE             SEGMENT TYPE 
HUGECONST            SEGMENT TYPE 
HUGEDATA             SEGMENT TYPE 
HWRD                 OPERATOR 
IDATA                SEGMENT TYPE 
IF                   DIRECTIVE 
IFS                  DIRECTIVE 
IMPORT               DIRECTIVE 
INC                  MNEMONIC 
JB                   MNEMONIC 
JBC                  MNEMONIC 
JC                   MNEMONIC 
JMP                  MNEMONIC 
JNB                  MNEMONIC 
JNC                  MNEMONIC 
JNZ                  MNEMONIC 
JZ                   MNEMONIC 
LCALL                MNEMONIC 
LE                   OPERATOR 
LIBRARY              DIRECTIVE 
LIMIT                DIRECTIVE 
LJMP                 MNEMONIC 
LOC                  OPERATOR 
LOCAL                DIRECTIVE 
LOCFRAME             DIRECTIVE 
LONG                 Target symbol: 2097152 
LOW                  OPERATOR 
LSTCND               DIRECTIVE 
LSTCOD               DIRECTIVE 
LSTCYC               DIRECTIVE 
LSTEXP               DIRECTIVE 
LSTMAC               DIRECTIVE 
LSTOUT               DIRECTIVE 
LSTPAG               DIRECTIVE 
LSTREP               DIRECTIVE 
LSTSAS               DIRECTIVE 
LSTXRF               DIRECTIVE 
LT                   OPERATOR 
LWRD                 OPERATOR 
MACHINE_MEM          #define, value: DATA, line:      39:3      516:3    517:3
MACHINE_SP           #define, value: SP, line:      38:3      516:3    516:3    517:3    517:3
                                                                    519:3    520:3    521:3       96
                                                                      100      209      213      363
                                                                      399      442      479      536
                                                                      541      546      551      644
                                                                      648      652      656
MACRO                DIRECTIVE 
MOD                  OPERATOR 
MODULE               DIRECTIVE 
MOV                  MNEMONIC 
MOVC                 MNEMONIC 
MOVX                 MNEMONIC 
MUL                  MNEMONIC 
NAME                 DIRECTIVE 
NE                   OPERATOR 
NEAR                 SEGMENT TYPE 
NEARCODE             SEGMENT TYPE 
NEARCONST            SEGMENT TYPE 
NEARDATA             SEGMENT TYPE 
NOP                  MNEMONIC 
NOROOT               SEGMENT TYPE 
NOT                  OPERATOR 
NPAGE                SEGMENT TYPE 
ODD                  DIRECTIVE 
OR                   OPERATOR 
ORG                  DIRECTIVE 
ORL                  MNEMONIC 
PAGE                 DIRECTIVE 
PAGSIZ               DIRECTIVE 
PC                   REGISTER 
POP                  MNEMONIC 
PRM                  OPERATOR 
PROGRAM              DIRECTIVE 
PSP24                Target symbol: 0 
PUBLIC               DIRECTIVE 
PUBWEAK              DIRECTIVE 
PUSH                 MNEMONIC 
R0                   REGISTER 
R1                   REGISTER 
R2                   REGISTER 
R3                   REGISTER 
R4                   REGISTER 
R5                   REGISTER 
R6                   REGISTER 
R7                   REGISTER 
RADIX                DIRECTIVE 
READ                 Target symbol: 2048 
REGISTER             SEGMENT TYPE 
REORDER              SEGMENT TYPE 
REPEAT               DIRECTIVE 
REPT                 DIRECTIVE 
REPTC                DIRECTIVE 
REPTI                DIRECTIVE 
REQUIRE              DIRECTIVE 
RET                  MNEMONIC 
RETI                 MNEMONIC 
RL                   MNEMONIC 
RLC                  MNEMONIC 
ROOT                 SEGMENT TYPE 
RR                   MNEMONIC 
RRC                  MNEMONIC 
RSEG                 DIRECTIVE 
RTMODEL              DIRECTIVE 
S                    PREFIX 
SET                  DIRECTIVE 
SETB                 MNEMONIC 
SFB                  OPERATOR 
SFE                  OPERATOR 
SFRTYPE              DIRECTIVE 
SHL                  OPERATOR 
SHR                  OPERATOR 
SIZEOF               OPERATOR 
SJMP                 MNEMONIC 
SORT                 SEGMENT TYPE 
SPP                  #define, value: PSP16, line:      22:3      521:3
SPX                  #define, value: XSP16, line:      24:3  
STACK                DIRECTIVE 
SUBB                 MNEMONIC 
SWAP                 MNEMONIC 
SWITCH               DIRECTIVE 
SYMBOL               DIRECTIVE 
UGT                  OPERATOR 
ULT                  OPERATOR 
UNTIL                DIRECTIVE 
UNTYPED              SEGMENT TYPE 
WHILE                DIRECTIVE 
WORD                 Target symbol: 1048576 
WRITE                Target symbol: 4096 
XCH                  MNEMONIC 
XCHD                 MNEMONIC 
XDATA                SEGMENT TYPE 
XOR                  OPERATOR 
XRL                  MNEMONIC 
XSP24                Target symbol: 0 
XSP_H                #define, value: ?XSP+1, line:      24:1  
XSP_L                #define, value: ?XSP, line:      23:1  
ZPAGE                SEGMENT TYPE 
[                    DELIMITER 
]                    DELIMITER 
^                    OPERATOR 
_LOW_IMAGE_          #define, value: 1, line:         0  
__BUILD_NUMBER__     #define,            line:         0  
__CALLING_CONVENTION__ #define, value: 4, line:         0  
__CC_DO__            #define, value: 0, line:      45:2  
__CC_ER__            #define, value: 5, line:      50:2  
__CC_IO__            #define, value: 1, line:      46:2  
__CC_IR__            #define, value: 2, line:      47:2  
__CC_PR__            #define, value: 3, line:      48:2  
__CC_XR__            #define, value: 4, line:      49:2  
__CM_BANKED_EXT2__   #define, value: 4, line:      31:2  
__CM_BANKED__        #define, value: 2, line:      29:2  
__CM_FAR__           #define, value: 3, line:      30:2       42:3    516:3    519:3
__CM_NEAR__          #define, value: 1, line:      28:2  
__CM_TINY__          #define, value: 0, line:      27:2  
__CODE_MODEL__       #define, value: 1, line:         0       42:3    516:3    519:3
__CORE_EXTENDED1__   #define, value: 2, line:      21:2       67:2    521:3
__CORE_EXTENDED2__   #define, value: 3, line:      22:2  
__CORE_PLAIN__       #define, value: 1, line:      20:2  
__CORE_TINY__        #define, value: 0, line:      19:2  
__CORE__             #define, value: 1, line:         0       67:2    521:3
__DATA_MODEL__       #define, value: 2, line:         0  
__DATE__             #define,            line:         0  
__DM_FAR__           #define, value: 4, line:      40:2  
__DM_GENERIC__       #define, value: 3, line:      39:2  
__DM_LARGE__         #define, value: 2, line:      38:2  
__DM_SMALL__         #define, value: 1, line:      37:2  
__DM_TINY__          #define, value: 0, line:      36:2  
__DPTR_SEPARATE__    Target symbol: 0 
__DPTR_SHADOWED__    Target symbol: 0 
__EXTENDED_STACK__   Target symbol: 0 
__FILE__             #define,            line:         0  
__IAR_SYSTEMS_ASM    #define,            line:         0  
__IAR_SYSTEMS_ASM__  #define,            line:         0  
__INC_DPSEL_SELECT__ Target symbol: 0 
__LINE__             #define,            line:         0  
__NUMBER_OF_DPTRS__  #define, value: 1, line:         0       56:2    516:3    516:3    516:3
                                                                    516:3    516:3    516:3    516:3
                                                                    516:3    516:3    516:3    516:3
                                                                    516:3    516:3    516:3    516:3
                                                                    517:3    517:3    517:3    517:3
                                                                    517:3    517:3    517:3    517:3
                                                                    517:3    517:3    517:3    517:3
                                                                    517:3    517:3    517:3    519:3
                                                                    519:3    519:3    519:3    519:3
                                                                    519:3    519:3    519:3    519:3
                                                                    519:3    519:3    519:3    519:3
                                                                    519:3    519:3    520:3    520:3
                                                                    520:3    520:3    520:3    520:3
                                                                    520:3    520:3    520:3    520:3
                                                                    520:3    520:3    520:3    520:3
                                                                    520:3    521:3    521:3    521:3
                                                                    521:3    521:3    521:3    521:3
                                                                    521:3    521:3    521:3    521:3
                                                                    521:3    521:3    521:3    521:3
                                                                     97:1
__SIZE_OF_RETADDR__  #define, value: 2, line:      45:3      519:3    521:3    521:3       96
                                                                       97      100      101      209
                                                                      213      363      364      399
                                                                      442      443      479      536
                                                                      537      541      542      546
                                                                      547      551      552      644
                                                                      648      652      656
__SUBVERSION__       #define,            line:         0  
__TID__              #define,            line:         0  
__TIME__             #define,            line:         0  
__VER__              #define,            line:         0  
__XOR_DPSEL_SELECT__ Target symbol: 0 
bytes                Target symbol: 0 
cfi_DATA_BLOCK_end   MACRO 
cfi_DATA_BLOCK_start MACRO 
cfi_PUSH_ISTACK_RET_DEFS_CONST_DEPEND
                     MACRO 
cfi_PUSH_ISTACK_RET_DEFS_REG_DEPEND
                     MACRO 
cfi_PUSH_REG         MACRO 
cfi_REMEMBER_STATE   MACRO 
cfi_RESTORE_STATE    MACRO 
cfi_SET_REG          MACRO 
cfi_STACK_ALLOC      MACRO 
cfi_STACK_DEALL      MACRO 
chip                 #define, value: 2510, line:         0  
constant             Target symbol: 0 
define               PREPROCESSOR DIRECTIVE 
defined              Target symbol: 0 
elif                 PREPROCESSOR DIRECTIVE 
else                 PREPROCESSOR DIRECTIVE 
endif                PREPROCESSOR DIRECTIVE 
error                PREPROCESSOR DIRECTIVE 
if                   PREPROCESSOR DIRECTIVE 
ifdef                PREPROCESSOR DIRECTIVE 
ifndef               PREPROCESSOR DIRECTIVE 
include              PREPROCESSOR DIRECTIVE 
line                 PREPROCESSOR DIRECTIVE 
message              PREPROCESSOR DIRECTIVE 
name                 Target symbol: 0 
no                   Target symbol: 0 
pragma               PREPROCESSOR DIRECTIVE 
reg                  Target symbol: 0 
reg_from             Target symbol: 0 
reg_to               Target symbol: 0 
undef                PREPROCESSOR DIRECTIVE 
|                    OPERATOR 
||                   OPERATOR 
~                    OPERATOR 

Segment             Type 	Mode
----------------------------------------
RCODE               CODE  	REL 
__EXTERNS           CODE  	ABS Org:0 

Label               Mode   Type                   Segment    Value/Offset
------------------------------------------------------------------------------
?L_DIV_MOD          REL    CONST PUB UNTYP.       RCODE      2A 
?L_NEG              ABS    CONST EXT [000] UNTYP. __EXTERNS  Solved Extern 
?L_NEG_R1           ABS    CONST EXT [001] UNTYP. __EXTERNS  Solved Extern 
?UL_DIV_MOD         ABS    CONST EXT [002] UNTYP. __EXTERNS  Solved Extern 
AC                  ABS    CONST UNTYP.           ASEG       D6 
ACC                 ABS    CONST UNTYP.           ASEG       E0 
B                   ABS    CONST UNTYP.           ASEG       F0 
BLOCK               REL    CONST UNTYP.           RCODE      Not solved 
DPH                 ABS    CONST UNTYP.           ASEG       83 
DPL                 ABS    CONST UNTYP.           ASEG       82 
ENDBLOCK            REL    CONST UNTYP.           RCODE      Not solved 
EXTI0               ABS    CONST UNTYP.           ASEG       3 
EXTI1               ABS    CONST UNTYP.           ASEG       13 
F0                  ABS    CONST UNTYP.           ASEG       D5 
NEG_DIV_NEG         REL    CONST UNTYP.           RCODE      0 
NEG_DIV_POS         REL    CONST UNTYP.           RCODE      41 
NOFUNCTION          REL    CONST UNTYP.           RCODE      Not solved 
OV                  ABS    CONST UNTYP.           ASEG       D2 
P                   ABS    CONST UNTYP.           ASEG       D0 
PSW                 ABS    CONST UNTYP.           ASEG       D0 
RESET               ABS    CONST UNTYP.           ASEG       0 
RS0                 ABS    CONST UNTYP.           ASEG       D3 
RS1                 ABS    CONST UNTYP.           ASEG       D4 
SINT                ABS    CONST UNTYP.           ASEG       23 
SP                  ABS    CONST UNTYP.           ASEG       81 
TID                 ABS    CONST UNTYP.           ASEG       2000 
TIMER0              ABS    CONST UNTYP.           ASEG       B 
TIMER1              ABS    CONST UNTYP.           ASEG       1B 
USING               REL    CONST UNTYP.           RCODE      Not solved 
X_DIV_NEG           REL    CONST UNTYP.           RCODE      10 
cfi_common          REL    CONST UNTYP.           RCODE      Not solved 
undefined           REL    CONST UNTYP.           RCODE      Not solved 


##############################
#          CRC:479F          #
#        Errors:   0         #
#        Warnings: 0         #
#         Bytes: 87          #
##############################



###############################################################################
#                                                                             #
#     IAR Systems 8051 Assembler V7.30A/W32 06/Apr/2017  13:54:37             #
#     Copyright 2007 IAR Systems. All rights reserved.                        #
#                                                                             #
#           Target option =  plain                                            #
#           Source file   =  E:\1500V_Test2\ED\code\Library\clib\iar_long.s51 #
#           List file     =  E:\1500V_Test2\ED\iar\Build .hex for CC2510\List\iar_long.lst#
#           Object file   =  E:\1500V_Test2\ED\iar\Build .hex for CC2510\Obj\iar_long.r51#
#           Command line  =  E:\1500V_Test2\ED\code\Library\clib\iar_long.s51 #
#                            -v0 -D__CORE__=1 -D__CODE_MODEL__=1              #
#                            -D__DATA_MODEL__=2 -D__CALLING_CONVENTION__=4    #
#                            -D__NUMBER_OF_DPTRS__=1                          #
#                            -OE:\1500V_Test2\ED\iar\Build .hex for CC2510\Obj\ #
#                            -s+ -M<>                                         #
#                            -LE:\1500V_Test2\ED\iar\Build .hex for CC2510\List\ #
#                            -t8 -xDI -IC:\IARSystems-CD-730B\8051\INC\       #
#                            -Dchip=2510 -D_LOW_IMAGE_ -w+                    #
#                                                                             #
###############################################################################

    776    000000          
    777    000000          ;---------------------------------------------------
                           --------------------------
    778    000000          ;
    779    000000          ;       Function(s):    (Un)Signed long negate.
    780    000000          ;
    781    000000          ; - - - - - - - - - - - - - - - - - - - - - - - - -
                            - - - - - - - - - - - - -
    782    000000          ;
    783    000000          ;       Function: ?L_NEG_R1
    784    000000          ;
    785    000000          ;       Description: Negates a long object in
                            IDATA.
    786    000000          ;
    787    000000          ;       Register input:
    788    000000          ;               R1 Points to the objects LSB
    789    000000          ;
    790    000000          ;       Register output:
    791    000000          ;               A  Is equal to the objects
                            MSB
    792    000000          ;               R1 = R1+3
    793    000000          ;
    794    000000          ;       Stack usage: 2
    795    000000          ;
    796    000000          ;---------------------------------------------------
                           --------------------------
    797    000000                  MODULE  ?L_NEG_R1
    798    000000                  RSEG    RCODE:CODE:NOROOT
    799    000000                  PUBLIC  ?L_NEG_R1_REW
    800    000000                  CFI BLOCK ?L_NEG_R1_REW USING cfi_common
    801    000000                  CFI NOFUNCTION
    802    000000          
    803    000000                  CFI     R1 undefined
    804    000000          
    805    000000          ?L_NEG_R1_REW:
    806    000000          
    807    000000 19               DEC     R1
    808    000001 19               DEC     R1
    809    000002 19               DEC     R1
    810    000003                  CFI ENDBLOCK ?L_NEG_R1_REW
    811    000003                  REQUIRE ?L_NEG_R1
    812    000003          
    813    000000                  RSEG    RCODE:CODE:NOROOT
    814    000000                  PUBLIC  ?L_NEG_R1
    815    000000                  CFI BLOCK ?L_NEG_R1 USING cfi_common
    816    000000                  CFI NOFUNCTION
    817    000000          
    818    000000                  CFI     A  undefined
    819    000000                  CFI     R1 undefined
    820    000000          
    821    000000          ?L_NEG_R1:
    822    000000          
    823    000000 E4               CLR     A
    824    000001 C3               CLR     C
    825    000002 97               SUBB    A,@R1
    826    000003 F7               MOV     @R1,A
    827    000004 09               INC     R1
    828    000005 E4               CLR     A
    829    000006 97               SUBB    A,@R1
    830    000007 F7               MOV     @R1,A
    831    000008 09               INC     R1
    832    000009 E4               CLR     A
    833    00000A 97               SUBB    A,@R1
    834    00000B F7               MOV     @R1,A
    835    00000C 09               INC     R1
    836    00000D E4               CLR     A
    837    00000E 97               SUBB    A,@R1
    838    00000F F7               MOV     @R1,A
    839    000010 22               RET
    840    000011          
    841    000011                  CFI ENDBLOCK ?L_NEG_R1
    842    000011                  ENDMOD


EOF                  DELIMITER 
\n                   DELIMITER 
                     DELIMITER 
!                    OPERATOR 
!=                   OPERATOR 
%                    OPERATOR 
&                    OPERATOR 
&&                   OPERATOR 
(                    OPERATOR 
(                    DELIMITER 
)                    OPERATOR 
)                    DELIMITER 
*                    OPERATOR 
+                    OPERATOR 
,                    DELIMITER 
-                    OPERATOR 
/                    OPERATOR 
:                    DELIMITER 
;                    DELIMITER 
;                    Target symbol: 23 
<                    OPERATOR 
<<                   OPERATOR 
<=                   OPERATOR 
<>                   OPERATOR 
=                    OPERATOR 
=                    DIRECTIVE 
==                   OPERATOR 
>                    OPERATOR 
>=                   OPERATOR 
>>                   OPERATOR 
?XSP                 Target symbol: 0 
@                    DELIMITER 
A                    REGISTER 
AB                   REGISTER 
ACALL                MNEMONIC 
ADD                  MNEMONIC 
ADDC                 MNEMONIC 
AJMP                 MNEMONIC 
ALIAS                DIRECTIVE 
ALIGN                DIRECTIVE 
ALIGNRAM             DIRECTIVE 
AND                  OPERATOR 
ANL                  MNEMONIC 
ARGFRAME             DIRECTIVE 
ASEG                 DIRECTIVE 
ASEGN                DIRECTIVE 
ASSIGN               DIRECTIVE 
B                    REGISTER 
BINAND               OPERATOR 
BINNOT               OPERATOR 
BINOR                OPERATOR 
BINXOR               OPERATOR 
BIT                  SEGMENT TYPE 
BITAND               OPERATOR 
BITNOT               OPERATOR 
BITOR                OPERATOR 
BITXOR               OPERATOR 
BREAK                DIRECTIVE 
BYTE                 Target symbol: 524288 
BYTE1                OPERATOR 
BYTE2                OPERATOR 
BYTE3                OPERATOR 
BYTE4                OPERATOR 
C                    Target symbol: 1 
CALL                 MNEMONIC 
CASE                 DIRECTIVE 
CASEOFF              DIRECTIVE 
CASEON               DIRECTIVE 
CFA_ESP16            Target symbol: 0 
CFA_ESP24            Target symbol: 0 
CFA_MACHINE          #define, value: CFA_SP, line:      37:3      516:3    517:3    519:3    519:3
                                                                    519:3    520:3    520:3    520:3
                                                                    520:3    521:3    521:3    521:3
                                                                    521:3    521:3       96       97
                                                                      100      101      209      213
                                                                      363      364      399      442
                                                                      443      479      536      537
                                                                      541      542      546      547
                                                                      551      552      644      648
                                                                      652      656
CFA_PSP24            Target symbol: 0 
CFA_SPP              #define, value: CFA_PSP16, line:      21:3  
CFA_SPX              #define, value: CFA_XSP16, line:      23:3  
CFA_XSP24            Target symbol: 0 
CFI                  DIRECTIVE 
CFI_COMMON_DECLARE_CORE_COMMON MACRO 
CFI_COMMON_DECLARE_SAME_VALUE_FOR_ALL_REGISTERS
                     MACRO 
CFI_COMMON_DECLARE_UNDEFINED_FOR_ALL_DPTR_REGISTERS
                     MACRO 
CFI_NAMES_DECLARE_REGISTER_RESOURCES
                     MACRO 
CFI_NAMES_DECLARE_RETURN_RESOURCE
                     MACRO 
CFI_NAMES_DECLARE_STACKS MACRO 
CFI_banked_com       MACRO 
CFI_banked_nam       MACRO 
CFI_com              MACRO 
CFI_nam              MACRO 
CFI_pdata_enter_com  MACRO 
CFI_pdata_enter_nam  MACRO 
CJNE                 MNEMONIC 
CLR                  MNEMONIC 
CODE                 SEGMENT TYPE 
CODE                 DIRECTIVE 
COL                  DIRECTIVE 
COMMON               DIRECTIVE 
CONST                SEGMENT TYPE 
CONTINUE             DIRECTIVE 
CPL                  MNEMONIC 
CY                   Target symbol: 1 
DA                   MNEMONIC 
DATA                 SEGMENT TYPE 
DATA                 DIRECTIVE 
DATE                 OPERATOR 
DB                   DIRECTIVE 
DC16                 DIRECTIVE 
DC24                 DIRECTIVE 
DC32                 DIRECTIVE 
DC8                  DIRECTIVE 
DD                   DIRECTIVE 
DEC                  MNEMONIC 
DEFAULT              DIRECTIVE 
DEFINE               DIRECTIVE 
DIV                  MNEMONIC 
DJNZ                 MNEMONIC 
DPTR                 REGISTER 
DPTR_MASK_SYMBOLS    MACRO 
DS                   DIRECTIVE 
DS16                 DIRECTIVE 
DS24                 DIRECTIVE 
DS32                 DIRECTIVE 
DS8                  DIRECTIVE 
DT                   DIRECTIVE 
DW                   DIRECTIVE 
ELSE                 DIRECTIVE 
ELSEIF               DIRECTIVE 
ELSEIFS              DIRECTIVE 
ELSES                DIRECTIVE 
END                  DIRECTIVE 
ENDF                 DIRECTIVE 
ENDIF                DIRECTIVE 
ENDIFS               DIRECTIVE 
ENDM                 DIRECTIVE 
ENDMAC               DIRECTIVE 
ENDMOD               DIRECTIVE 
ENDR                 DIRECTIVE 
ENDS                 DIRECTIVE 
ENDW                 DIRECTIVE 
EQ                   OPERATOR 
EQU                  DIRECTIVE 
ESP16                Target symbol: 0 
ESP24                Target symbol: 0 
EVEN                 DIRECTIVE 
EXITM                DIRECTIVE 
EXPORT               DIRECTIVE 
EXTERN               DIRECTIVE 
EXTERNS_FOR_ALL_DPTR_SYMBOLS MACRO 
EXTRN                DIRECTIVE 
FAR                  SEGMENT TYPE 
FARCODE              SEGMENT TYPE 
FARCONST             SEGMENT TYPE 
FARDATA              SEGMENT TYPE 
FOR                  DIRECTIVE 
FUNCALL              DIRECTIVE 
FUNCTION             DIRECTIVE 
GE                   OPERATOR 
GT                   OPERATOR 
HIGH                 OPERATOR 
HUGE                 SEGMENT TYPE 
HUGECODE             SEGMENT TYPE 
HUGECONST            SEGMENT TYPE 
HUGEDATA             SEGMENT TYPE 
HWRD                 OPERATOR 
IDATA                SEGMENT TYPE 
IF                   DIRECTIVE 
IFS                  DIRECTIVE 
IMPORT               DIRECTIVE 
INC                  MNEMONIC 
JB                   MNEMONIC 
JBC                  MNEMONIC 
JC                   MNEMONIC 
JMP                  MNEMONIC 
JNB                  MNEMONIC 
JNC                  MNEMONIC 
JNZ                  MNEMONIC 
JZ                   MNEMONIC 
LCALL                MNEMONIC 
LE                   OPERATOR 
LIBRARY              DIRECTIVE 
LIMIT                DIRECTIVE 
LJMP                 MNEMONIC 
LOC                  OPERATOR 
LOCAL                DIRECTIVE 
LOCFRAME             DIRECTIVE 
LONG                 Target symbol: 2097152 
LOW                  OPERATOR 
LSTCND               DIRECTIVE 
LSTCOD               DIRECTIVE 
LSTCYC               DIRECTIVE 
LSTEXP               DIRECTIVE 
LSTMAC               DIRECTIVE 
LSTOUT               DIRECTIVE 
LSTPAG               DIRECTIVE 
LSTREP               DIRECTIVE 
LSTSAS               DIRECTIVE 
LSTXRF               DIRECTIVE 
LT                   OPERATOR 
LWRD                 OPERATOR 
MACHINE_MEM          #define, value: DATA, line:      39:3      516:3    517:3
MACHINE_SP           #define, value: SP, line:      38:3      516:3    516:3    517:3    517:3
                                                                    519:3    520:3    521:3       96
                                                                      100      209      213      363
                                                                      399      442      479      536
                                                                      541      546      551      644
                                                                      648      652      656
MACRO                DIRECTIVE 
MOD                  OPERATOR 
MODULE               DIRECTIVE 
MOV                  MNEMONIC 
MOVC                 MNEMONIC 
MOVX                 MNEMONIC 
MUL                  MNEMONIC 
NAME                 DIRECTIVE 
NE                   OPERATOR 
NEAR                 SEGMENT TYPE 
NEARCODE             SEGMENT TYPE 
NEARCONST            SEGMENT TYPE 
NEARDATA             SEGMENT TYPE 
NOP                  MNEMONIC 
NOROOT               SEGMENT TYPE 
NOT                  OPERATOR 
NPAGE                SEGMENT TYPE 
ODD                  DIRECTIVE 
OR                   OPERATOR 
ORG                  DIRECTIVE 
ORL                  MNEMONIC 
PAGE                 DIRECTIVE 
PAGSIZ               DIRECTIVE 
PC                   REGISTER 
POP                  MNEMONIC 
PRM                  OPERATOR 
PROGRAM              DIRECTIVE 
PSP24                Target symbol: 0 
PUBLIC               DIRECTIVE 
PUBWEAK              DIRECTIVE 
PUSH                 MNEMONIC 
R0                   REGISTER 
R1                   REGISTER 
R2                   REGISTER 
R3                   REGISTER 
R4                   REGISTER 
R5                   REGISTER 
R6                   REGISTER 
R7                   REGISTER 
RADIX                DIRECTIVE 
READ                 Target symbol: 2048 
REGISTER             SEGMENT TYPE 
REORDER              SEGMENT TYPE 
REPEAT               DIRECTIVE 
REPT                 DIRECTIVE 
REPTC                DIRECTIVE 
REPTI                DIRECTIVE 
REQUIRE              DIRECTIVE 
RET                  MNEMONIC 
RETI                 MNEMONIC 
RL                   MNEMONIC 
RLC                  MNEMONIC 
ROOT                 SEGMENT TYPE 
RR                   MNEMONIC 
RRC                  MNEMONIC 
RSEG                 DIRECTIVE 
RTMODEL              DIRECTIVE 
S                    PREFIX 
SET                  DIRECTIVE 
SETB                 MNEMONIC 
SFB                  OPERATOR 
SFE                  OPERATOR 
SFRTYPE              DIRECTIVE 
SHL                  OPERATOR 
SHR                  OPERATOR 
SIZEOF               OPERATOR 
SJMP                 MNEMONIC 
SORT                 SEGMENT TYPE 
SPP                  #define, value: PSP16, line:      22:3      521:3
SPX                  #define, value: XSP16, line:      24:3  
STACK                DIRECTIVE 
SUBB                 MNEMONIC 
SWAP                 MNEMONIC 
SWITCH               DIRECTIVE 
SYMBOL               DIRECTIVE 
UGT                  OPERATOR 
ULT                  OPERATOR 
UNTIL                DIRECTIVE 
UNTYPED              SEGMENT TYPE 
WHILE                DIRECTIVE 
WORD                 Target symbol: 1048576 
WRITE                Target symbol: 4096 
XCH                  MNEMONIC 
XCHD                 MNEMONIC 
XDATA                SEGMENT TYPE 
XOR                  OPERATOR 
XRL                  MNEMONIC 
XSP24                Target symbol: 0 
XSP_H                #define, value: ?XSP+1, line:      24:1  
XSP_L                #define, value: ?XSP, line:      23:1  
ZPAGE                SEGMENT TYPE 
[                    DELIMITER 
]                    DELIMITER 
^                    OPERATOR 
_LOW_IMAGE_          #define, value: 1, line:         0  
__BUILD_NUMBER__     #define,            line:         0  
__CALLING_CONVENTION__ #define, value: 4, line:         0  
__CC_DO__            #define, value: 0, line:      45:2  
__CC_ER__            #define, value: 5, line:      50:2  
__CC_IO__            #define, value: 1, line:      46:2  
__CC_IR__            #define, value: 2, line:      47:2  
__CC_PR__            #define, value: 3, line:      48:2  
__CC_XR__            #define, value: 4, line:      49:2  
__CM_BANKED_EXT2__   #define, value: 4, line:      31:2  
__CM_BANKED__        #define, value: 2, line:      29:2  
__CM_FAR__           #define, value: 3, line:      30:2       42:3    516:3    519:3
__CM_NEAR__          #define, value: 1, line:      28:2  
__CM_TINY__          #define, value: 0, line:      27:2  
__CODE_MODEL__       #define, value: 1, line:         0       42:3    516:3    519:3
__CORE_EXTENDED1__   #define, value: 2, line:      21:2       67:2    521:3
__CORE_EXTENDED2__   #define, value: 3, line:      22:2  
__CORE_PLAIN__       #define, value: 1, line:      20:2  
__CORE_TINY__        #define, value: 0, line:      19:2  
__CORE__             #define, value: 1, line:         0       67:2    521:3
__DATA_MODEL__       #define, value: 2, line:         0  
__DATE__             #define,            line:         0  
__DM_FAR__           #define, value: 4, line:      40:2  
__DM_GENERIC__       #define, value: 3, line:      39:2  
__DM_LARGE__         #define, value: 2, line:      38:2  
__DM_SMALL__         #define, value: 1, line:      37:2  
__DM_TINY__          #define, value: 0, line:      36:2  
__DPTR_SEPARATE__    Target symbol: 0 
__DPTR_SHADOWED__    Target symbol: 0 
__EXTENDED_STACK__   Target symbol: 0 
__FILE__             #define,            line:         0  
__IAR_SYSTEMS_ASM    #define,            line:         0  
__IAR_SYSTEMS_ASM__  #define,            line:         0  
__INC_DPSEL_SELECT__ Target symbol: 0 
__LINE__             #define,            line:         0  
__NUMBER_OF_DPTRS__  #define, value: 1, line:         0       56:2    516:3    516:3    516:3
                                                                    516:3    516:3    516:3    516:3
                                                                    516:3    516:3    516:3    516:3
                                                                    516:3    516:3    516:3    516:3
                                                                    517:3    517:3    517:3    517:3
                                                                    517:3    517:3    517:3    517:3
                                                                    517:3    517:3    517:3    517:3
                                                                    517:3    517:3    517:3    519:3
                                                                    519:3    519:3    519:3    519:3
                                                                    519:3    519:3    519:3    519:3
                                                                    519:3    519:3    519:3    519:3
                                                                    519:3    519:3    520:3    520:3
                                                                    520:3    520:3    520:3    520:3
                                                                    520:3    520:3    520:3    520:3
                                                                    520:3    520:3    520:3    520:3
                                                                    520:3    521:3    521:3    521:3
                                                                    521:3    521:3    521:3    521:3
                                                                    521:3    521:3    521:3    521:3
                                                                    521:3    521:3    521:3    521:3
                                                                     97:1
__SIZE_OF_RETADDR__  #define, value: 2, line:      45:3      519:3    521:3    521:3       96
                                                                       97      100      101      209
                                                                      213      363      364      399
                                                                      442      443      479      536
                                                                      537      541      542      546
                                                                      547      551      552      644
                                                                      648      652      656
__SUBVERSION__       #define,            line:         0  
__TID__              #define,            line:         0  
__TIME__             #define,            line:         0  
__VER__              #define,            line:         0  
__XOR_DPSEL_SELECT__ Target symbol: 0 
bytes                Target symbol: 0 
cfi_DATA_BLOCK_end   MACRO 
cfi_DATA_BLOCK_start MACRO 
cfi_PUSH_ISTACK_RET_DEFS_CONST_DEPEND
                     MACRO 
cfi_PUSH_ISTACK_RET_DEFS_REG_DEPEND
                     MACRO 
cfi_PUSH_REG         MACRO 
cfi_REMEMBER_STATE   MACRO 
cfi_RESTORE_STATE    MACRO 
cfi_SET_REG          MACRO 
cfi_STACK_ALLOC      MACRO 
cfi_STACK_DEALL      MACRO 
chip                 #define, value: 2510, line:         0  
constant             Target symbol: 0 
define               PREPROCESSOR DIRECTIVE 
defined              Target symbol: 0 
elif                 PREPROCESSOR DIRECTIVE 
else                 PREPROCESSOR DIRECTIVE 
endif                PREPROCESSOR DIRECTIVE 
error                PREPROCESSOR DIRECTIVE 
if                   PREPROCESSOR DIRECTIVE 
ifdef                PREPROCESSOR DIRECTIVE 
ifndef               PREPROCESSOR DIRECTIVE 
include              PREPROCESSOR DIRECTIVE 
line                 PREPROCESSOR DIRECTIVE 
message              PREPROCESSOR DIRECTIVE 
name                 Target symbol: 0 
no                   Target symbol: 0 
pragma               PREPROCESSOR DIRECTIVE 
reg                  Target symbol: 0 
reg_from             Target symbol: 0 
reg_to               Target symbol: 0 
undef                PREPROCESSOR DIRECTIVE 
|                    OPERATOR 
||                   OPERATOR 
~                    OPERATOR 

Segment             Type 	Mode
----------------------------------------
RCODE               CODE  	REL 
__EXTERNS           CODE  	ABS Org:0 

Label               Mode   Type                   Segment    Value/Offset
------------------------------------------------------------------------------
?L_NEG_R1           REL    CONST PUB UNTYP.       RCODE      0 
?L_NEG_R1_REW       REL    CONST PUB UNTYP.       RCODE      0 
AC                  ABS    CONST UNTYP.           ASEG       D6 
ACC                 ABS    CONST UNTYP.           ASEG       E0 
B                   ABS    CONST UNTYP.           ASEG       F0 
BLOCK               REL    CONST UNTYP.           RCODE      Not solved 
DPH                 ABS    CONST UNTYP.           ASEG       83 
DPL                 ABS    CONST UNTYP.           ASEG       82 
ENDBLOCK            REL    CONST UNTYP.           RCODE      Not solved 
EXTI0               ABS    CONST UNTYP.           ASEG       3 
EXTI1               ABS    CONST UNTYP.           ASEG       13 
F0                  ABS    CONST UNTYP.           ASEG       D5 
NOFUNCTION          REL    CONST UNTYP.           RCODE      Not solved 
OV                  ABS    CONST UNTYP.           ASEG       D2 
P                   ABS    CONST UNTYP.           ASEG       D0 
PSW                 ABS    CONST UNTYP.           ASEG       D0 
RESET               ABS    CONST UNTYP.           ASEG       0 
RS0                 ABS    CONST UNTYP.           ASEG       D3 
RS1                 ABS    CONST UNTYP.           ASEG       D4 
SINT                ABS    CONST UNTYP.           ASEG       23 
SP                  ABS    CONST UNTYP.           ASEG       81 
TID                 ABS    CONST UNTYP.           ASEG       2000 
TIMER0              ABS    CONST UNTYP.           ASEG       B 
TIMER1              ABS    CONST UNTYP.           ASEG       1B 
USING               REL    CONST UNTYP.           RCODE      Not solved 
cfi_common          REL    CONST UNTYP.           RCODE      Not solved 
undefined           REL    CONST UNTYP.           RCODE      Not solved 


##############################
#          CRC:61E8          #
#        Errors:   0         #
#        Warnings: 0         #
#         Bytes: 20          #
##############################



###############################################################################
#                                                                             #
#     IAR Systems 8051 Assembler V7.30A/W32 06/Apr/2017  13:54:37             #
#     Copyright 2007 IAR Systems. All rights reserved.                        #
#                                                                             #
#           Target option =  plain                                            #
#           Source file   =  E:\1500V_Test2\ED\code\Library\clib\iar_long.s51 #
#           List file     =  E:\1500V_Test2\ED\iar\Build .hex for CC2510\List\iar_long.lst#
#           Object file   =  E:\1500V_Test2\ED\iar\Build .hex for CC2510\Obj\iar_long.r51#
#           Command line  =  E:\1500V_Test2\ED\code\Library\clib\iar_long.s51 #
#                            -v0 -D__CORE__=1 -D__CODE_MODEL__=1              #
#                            -D__DATA_MODEL__=2 -D__CALLING_CONVENTION__=4    #
#                            -D__NUMBER_OF_DPTRS__=1                          #
#                            -OE:\1500V_Test2\ED\iar\Build .hex for CC2510\Obj\ #
#                            -s+ -M<>                                         #
#                            -LE:\1500V_Test2\ED\iar\Build .hex for CC2510\List\ #
#                            -t8 -xDI -IC:\IARSystems-CD-730B\8051\INC\       #
#                            -Dchip=2510 -D_LOW_IMAGE_ -w+                    #
#                                                                             #
###############################################################################

    843    000000          
    844    000000          ;---------------------------------------------------
                           --------------------------
    845    000000          ;
    846    000000          ;       Function: ?L_NEG
    847    000000          ;
    848    000000          ;       Description: Negates a long object in
                            IDATA.
    849    000000          ;
    850    000000          ;       Register input:
    851    000000          ;               R0 Points to the objects LSB
    852    000000          ;
    853    000000          ;       Register output:
    854    000000          ;               A  Is equal to the objects
                            MSB
    855    000000          ;               R0 = R0+3
    856    000000          ;
    857    000000          ;       Stack usage: 2
    858    000000          ;
    859    000000          ;---------------------------------------------------
                           --------------------------
    860    000000                  MODULE  ?L_NEG
    861    000000                  RSEG    RCODE:CODE:NOROOT       
    862    000000                  PUBLIC  ?L_NEG
    863    000000                  PUBLIC  ?L_NEG_REW
    864    000000                  CFI BLOCK ?L_NEG_REW USING cfi_common
    865    000000                  CFI NOFUNCTION
    866    000000          
    867    000000                  CFI     R0 undefined
    868    000000          
    869    000000          ?L_NEG_REW:
    870    000000          
    871    000000 18               DEC     R0
    872    000001 18               DEC     R0
    873    000002 18               DEC     R0
    874    000003          
    875    000003                  CFI ENDBLOCK ?L_NEG_REW
    876    000003                  REQUIRE x
    877    000003          
    878    000000                  RSEG    RCODE:CODE:NOROOT
    879    000000                  CFI BLOCK ?L_NEG USING cfi_common
    880    000000                  CFI NOFUNCTION          
    881    000000          
    882    000000                  CFI     A  undefined
    883    000000                  CFI     R0 undefined
    884    000000          
    885    000000          x:
    886    000000          ?L_NEG:
    887    000000          
    888    000000 E4               CLR     A
    889    000001 C3               CLR     C
    890    000002 96               SUBB    A,@R0
    891    000003 F6               MOV     @R0,A
    892    000004 08               INC     R0
    893    000005 E4               CLR     A
    894    000006 96               SUBB    A,@R0
    895    000007 F6               MOV     @R0,A
    896    000008 08               INC     R0
    897    000009 E4               CLR     A
    898    00000A 96               SUBB    A,@R0
    899    00000B F6               MOV     @R0,A
    900    00000C 08               INC     R0
    901    00000D E4               CLR     A
    902    00000E 96               SUBB    A,@R0
    903    00000F F6               MOV     @R0,A
    904    000010 22               RET
    905    000011          
    906    000011                  CFI ENDBLOCK ?L_NEG
    907    000011                  ENDMOD


EOF                  DELIMITER 
\n                   DELIMITER 
                     DELIMITER 
!                    OPERATOR 
!=                   OPERATOR 
%                    OPERATOR 
&                    OPERATOR 
&&                   OPERATOR 
(                    OPERATOR 
(                    DELIMITER 
)                    OPERATOR 
)                    DELIMITER 
*                    OPERATOR 
+                    OPERATOR 
,                    DELIMITER 
-                    OPERATOR 
/                    OPERATOR 
:                    DELIMITER 
;                    DELIMITER 
;                    Target symbol: 23 
<                    OPERATOR 
<<                   OPERATOR 
<=                   OPERATOR 
<>                   OPERATOR 
=                    OPERATOR 
=                    DIRECTIVE 
==                   OPERATOR 
>                    OPERATOR 
>=                   OPERATOR 
>>                   OPERATOR 
?XSP                 Target symbol: 0 
@                    DELIMITER 
A                    REGISTER 
AB                   REGISTER 
ACALL                MNEMONIC 
ADD                  MNEMONIC 
ADDC                 MNEMONIC 
AJMP                 MNEMONIC 
ALIAS                DIRECTIVE 
ALIGN                DIRECTIVE 
ALIGNRAM             DIRECTIVE 
AND                  OPERATOR 
ANL                  MNEMONIC 
ARGFRAME             DIRECTIVE 
ASEG                 DIRECTIVE 
ASEGN                DIRECTIVE 
ASSIGN               DIRECTIVE 
B                    REGISTER 
BINAND               OPERATOR 
BINNOT               OPERATOR 
BINOR                OPERATOR 
BINXOR               OPERATOR 
BIT                  SEGMENT TYPE 
BITAND               OPERATOR 
BITNOT               OPERATOR 
BITOR                OPERATOR 
BITXOR               OPERATOR 
BREAK                DIRECTIVE 
BYTE                 Target symbol: 524288 
BYTE1                OPERATOR 
BYTE2                OPERATOR 
BYTE3                OPERATOR 
BYTE4                OPERATOR 
C                    Target symbol: 1 
CALL                 MNEMONIC 
CASE                 DIRECTIVE 
CASEOFF              DIRECTIVE 
CASEON               DIRECTIVE 
CFA_ESP16            Target symbol: 0 
CFA_ESP24            Target symbol: 0 
CFA_MACHINE          #define, value: CFA_SP, line:      37:3      516:3    517:3    519:3    519:3
                                                                    519:3    520:3    520:3    520:3
                                                                    520:3    521:3    521:3    521:3
                                                                    521:3    521:3       96       97
                                                                      100      101      209      213
                                                                      363      364      399      442
                                                                      443      479      536      537
                                                                      541      542      546      547
                                                                      551      552      644      648
                                                                      652      656
CFA_PSP24            Target symbol: 0 
CFA_SPP              #define, value: CFA_PSP16, line:      21:3  
CFA_SPX              #define, value: CFA_XSP16, line:      23:3  
CFA_XSP24            Target symbol: 0 
CFI                  DIRECTIVE 
CFI_COMMON_DECLARE_CORE_COMMON MACRO 
CFI_COMMON_DECLARE_SAME_VALUE_FOR_ALL_REGISTERS
                     MACRO 
CFI_COMMON_DECLARE_UNDEFINED_FOR_ALL_DPTR_REGISTERS
                     MACRO 
CFI_NAMES_DECLARE_REGISTER_RESOURCES
                     MACRO 
CFI_NAMES_DECLARE_RETURN_RESOURCE
                     MACRO 
CFI_NAMES_DECLARE_STACKS MACRO 
CFI_banked_com       MACRO 
CFI_banked_nam       MACRO 
CFI_com              MACRO 
CFI_nam              MACRO 
CFI_pdata_enter_com  MACRO 
CFI_pdata_enter_nam  MACRO 
CJNE                 MNEMONIC 
CLR                  MNEMONIC 
CODE                 SEGMENT TYPE 
CODE                 DIRECTIVE 
COL                  DIRECTIVE 
COMMON               DIRECTIVE 
CONST                SEGMENT TYPE 
CONTINUE             DIRECTIVE 
CPL                  MNEMONIC 
CY                   Target symbol: 1 
DA                   MNEMONIC 
DATA                 SEGMENT TYPE 
DATA                 DIRECTIVE 
DATE                 OPERATOR 
DB                   DIRECTIVE 
DC16                 DIRECTIVE 
DC24                 DIRECTIVE 
DC32                 DIRECTIVE 
DC8                  DIRECTIVE 
DD                   DIRECTIVE 
DEC                  MNEMONIC 
DEFAULT              DIRECTIVE 
DEFINE               DIRECTIVE 
DIV                  MNEMONIC 
DJNZ                 MNEMONIC 
DPTR                 REGISTER 
DPTR_MASK_SYMBOLS    MACRO 
DS                   DIRECTIVE 
DS16                 DIRECTIVE 
DS24                 DIRECTIVE 
DS32                 DIRECTIVE 
DS8                  DIRECTIVE 
DT                   DIRECTIVE 
DW                   DIRECTIVE 
ELSE                 DIRECTIVE 
ELSEIF               DIRECTIVE 
ELSEIFS              DIRECTIVE 
ELSES                DIRECTIVE 
END                  DIRECTIVE 
ENDF                 DIRECTIVE 
ENDIF                DIRECTIVE 
ENDIFS               DIRECTIVE 
ENDM                 DIRECTIVE 
ENDMAC               DIRECTIVE 
ENDMOD               DIRECTIVE 
ENDR                 DIRECTIVE 
ENDS                 DIRECTIVE 
ENDW                 DIRECTIVE 
EQ                   OPERATOR 
EQU                  DIRECTIVE 
ESP16                Target symbol: 0 
ESP24                Target symbol: 0 
EVEN                 DIRECTIVE 
EXITM                DIRECTIVE 
EXPORT               DIRECTIVE 
EXTERN               DIRECTIVE 
EXTERNS_FOR_ALL_DPTR_SYMBOLS MACRO 
EXTRN                DIRECTIVE 
FAR                  SEGMENT TYPE 
FARCODE              SEGMENT TYPE 
FARCONST             SEGMENT TYPE 
FARDATA              SEGMENT TYPE 
FOR                  DIRECTIVE 
FUNCALL              DIRECTIVE 
FUNCTION             DIRECTIVE 
GE                   OPERATOR 
GT                   OPERATOR 
HIGH                 OPERATOR 
HUGE                 SEGMENT TYPE 
HUGECODE             SEGMENT TYPE 
HUGECONST            SEGMENT TYPE 
HUGEDATA             SEGMENT TYPE 
HWRD                 OPERATOR 
IDATA                SEGMENT TYPE 
IF                   DIRECTIVE 
IFS                  DIRECTIVE 
IMPORT               DIRECTIVE 
INC                  MNEMONIC 
JB                   MNEMONIC 
JBC                  MNEMONIC 
JC                   MNEMONIC 
JMP                  MNEMONIC 
JNB                  MNEMONIC 
JNC                  MNEMONIC 
JNZ                  MNEMONIC 
JZ                   MNEMONIC 
LCALL                MNEMONIC 
LE                   OPERATOR 
LIBRARY              DIRECTIVE 
LIMIT                DIRECTIVE 
LJMP                 MNEMONIC 
LOC                  OPERATOR 
LOCAL                DIRECTIVE 
LOCFRAME             DIRECTIVE 
LONG                 Target symbol: 2097152 
LOW                  OPERATOR 
LSTCND               DIRECTIVE 
LSTCOD               DIRECTIVE 
LSTCYC               DIRECTIVE 
LSTEXP               DIRECTIVE 
LSTMAC               DIRECTIVE 
LSTOUT               DIRECTIVE 
LSTPAG               DIRECTIVE 
LSTREP               DIRECTIVE 
LSTSAS               DIRECTIVE 
LSTXRF               DIRECTIVE 
LT                   OPERATOR 
LWRD                 OPERATOR 
MACHINE_MEM          #define, value: DATA, line:      39:3      516:3    517:3
MACHINE_SP           #define, value: SP, line:      38:3      516:3    516:3    517:3    517:3
                                                                    519:3    520:3    521:3       96
                                                                      100      209      213      363
                                                                      399      442      479      536
                                                                      541      546      551      644
                                                                      648      652      656
MACRO                DIRECTIVE 
MOD                  OPERATOR 
MODULE               DIRECTIVE 
MOV                  MNEMONIC 
MOVC                 MNEMONIC 
MOVX                 MNEMONIC 
MUL                  MNEMONIC 
NAME                 DIRECTIVE 
NE                   OPERATOR 
NEAR                 SEGMENT TYPE 
NEARCODE             SEGMENT TYPE 
NEARCONST            SEGMENT TYPE 
NEARDATA             SEGMENT TYPE 
NOP                  MNEMONIC 
NOROOT               SEGMENT TYPE 
NOT                  OPERATOR 
NPAGE                SEGMENT TYPE 
ODD                  DIRECTIVE 
OR                   OPERATOR 
ORG                  DIRECTIVE 
ORL                  MNEMONIC 
PAGE                 DIRECTIVE 
PAGSIZ               DIRECTIVE 
PC                   REGISTER 
POP                  MNEMONIC 
PRM                  OPERATOR 
PROGRAM              DIRECTIVE 
PSP24                Target symbol: 0 
PUBLIC               DIRECTIVE 
PUBWEAK              DIRECTIVE 
PUSH                 MNEMONIC 
R0                   REGISTER 
R1                   REGISTER 
R2                   REGISTER 
R3                   REGISTER 
R4                   REGISTER 
R5                   REGISTER 
R6                   REGISTER 
R7                   REGISTER 
RADIX                DIRECTIVE 
READ                 Target symbol: 2048 
REGISTER             SEGMENT TYPE 
REORDER              SEGMENT TYPE 
REPEAT               DIRECTIVE 
REPT                 DIRECTIVE 
REPTC                DIRECTIVE 
REPTI                DIRECTIVE 
REQUIRE              DIRECTIVE 
RET                  MNEMONIC 
RETI                 MNEMONIC 
RL                   MNEMONIC 
RLC                  MNEMONIC 
ROOT                 SEGMENT TYPE 
RR                   MNEMONIC 
RRC                  MNEMONIC 
RSEG                 DIRECTIVE 
RTMODEL              DIRECTIVE 
S                    PREFIX 
SET                  DIRECTIVE 
SETB                 MNEMONIC 
SFB                  OPERATOR 
SFE                  OPERATOR 
SFRTYPE              DIRECTIVE 
SHL                  OPERATOR 
SHR                  OPERATOR 
SIZEOF               OPERATOR 
SJMP                 MNEMONIC 
SORT                 SEGMENT TYPE 
SPP                  #define, value: PSP16, line:      22:3      521:3
SPX                  #define, value: XSP16, line:      24:3  
STACK                DIRECTIVE 
SUBB                 MNEMONIC 
SWAP                 MNEMONIC 
SWITCH               DIRECTIVE 
SYMBOL               DIRECTIVE 
UGT                  OPERATOR 
ULT                  OPERATOR 
UNTIL                DIRECTIVE 
UNTYPED              SEGMENT TYPE 
WHILE                DIRECTIVE 
WORD                 Target symbol: 1048576 
WRITE                Target symbol: 4096 
XCH                  MNEMONIC 
XCHD                 MNEMONIC 
XDATA                SEGMENT TYPE 
XOR                  OPERATOR 
XRL                  MNEMONIC 
XSP24                Target symbol: 0 
XSP_H                #define, value: ?XSP+1, line:      24:1  
XSP_L                #define, value: ?XSP, line:      23:1  
ZPAGE                SEGMENT TYPE 
[                    DELIMITER 
]                    DELIMITER 
^                    OPERATOR 
_LOW_IMAGE_          #define, value: 1, line:         0  
__BUILD_NUMBER__     #define,            line:         0  
__CALLING_CONVENTION__ #define, value: 4, line:         0  
__CC_DO__            #define, value: 0, line:      45:2  
__CC_ER__            #define, value: 5, line:      50:2  
__CC_IO__            #define, value: 1, line:      46:2  
__CC_IR__            #define, value: 2, line:      47:2  
__CC_PR__            #define, value: 3, line:      48:2  
__CC_XR__            #define, value: 4, line:      49:2  
__CM_BANKED_EXT2__   #define, value: 4, line:      31:2  
__CM_BANKED__        #define, value: 2, line:      29:2  
__CM_FAR__           #define, value: 3, line:      30:2       42:3    516:3    519:3
__CM_NEAR__          #define, value: 1, line:      28:2  
__CM_TINY__          #define, value: 0, line:      27:2  
__CODE_MODEL__       #define, value: 1, line:         0       42:3    516:3    519:3
__CORE_EXTENDED1__   #define, value: 2, line:      21:2       67:2    521:3
__CORE_EXTENDED2__   #define, value: 3, line:      22:2  
__CORE_PLAIN__       #define, value: 1, line:      20:2  
__CORE_TINY__        #define, value: 0, line:      19:2  
__CORE__             #define, value: 1, line:         0       67:2    521:3
__DATA_MODEL__       #define, value: 2, line:         0  
__DATE__             #define,            line:         0  
__DM_FAR__           #define, value: 4, line:      40:2  
__DM_GENERIC__       #define, value: 3, line:      39:2  
__DM_LARGE__         #define, value: 2, line:      38:2  
__DM_SMALL__         #define, value: 1, line:      37:2  
__DM_TINY__          #define, value: 0, line:      36:2  
__DPTR_SEPARATE__    Target symbol: 0 
__DPTR_SHADOWED__    Target symbol: 0 
__EXTENDED_STACK__   Target symbol: 0 
__FILE__             #define,            line:         0  
__IAR_SYSTEMS_ASM    #define,            line:         0  
__IAR_SYSTEMS_ASM__  #define,            line:         0  
__INC_DPSEL_SELECT__ Target symbol: 0 
__LINE__             #define,            line:         0  
__NUMBER_OF_DPTRS__  #define, value: 1, line:         0       56:2    516:3    516:3    516:3
                                                                    516:3    516:3    516:3    516:3
                                                                    516:3    516:3    516:3    516:3
                                                                    516:3    516:3    516:3    516:3
                                                                    517:3    517:3    517:3    517:3
                                                                    517:3    517:3    517:3    517:3
                                                                    517:3    517:3    517:3    517:3
                                                                    517:3    517:3    517:3    519:3
                                                                    519:3    519:3    519:3    519:3
                                                                    519:3    519:3    519:3    519:3
                                                                    519:3    519:3    519:3    519:3
                                                                    519:3    519:3    520:3    520:3
                                                                    520:3    520:3    520:3    520:3
                                                                    520:3    520:3    520:3    520:3
                                                                    520:3    520:3    520:3    520:3
                                                                    520:3    521:3    521:3    521:3
                                                                    521:3    521:3    521:3    521:3
                                                                    521:3    521:3    521:3    521:3
                                                                    521:3    521:3    521:3    521:3
                                                                     97:1
__SIZE_OF_RETADDR__  #define, value: 2, line:      45:3      519:3    521:3    521:3       96
                                                                       97      100      101      209
                                                                      213      363      364      399
                                                                      442      443      479      536
                                                                      537      541      542      546
                                                                      547      551      552      644
                                                                      648      652      656
__SUBVERSION__       #define,            line:         0  
__TID__              #define,            line:         0  
__TIME__             #define,            line:         0  
__VER__              #define,            line:         0  
__XOR_DPSEL_SELECT__ Target symbol: 0 
bytes                Target symbol: 0 
cfi_DATA_BLOCK_end   MACRO 
cfi_DATA_BLOCK_start MACRO 
cfi_PUSH_ISTACK_RET_DEFS_CONST_DEPEND
                     MACRO 
cfi_PUSH_ISTACK_RET_DEFS_REG_DEPEND
                     MACRO 
cfi_PUSH_REG         MACRO 
cfi_REMEMBER_STATE   MACRO 
cfi_RESTORE_STATE    MACRO 
cfi_SET_REG          MACRO 
cfi_STACK_ALLOC      MACRO 
cfi_STACK_DEALL      MACRO 
chip                 #define, value: 2510, line:         0  
constant             Target symbol: 0 
define               PREPROCESSOR DIRECTIVE 
defined              Target symbol: 0 
elif                 PREPROCESSOR DIRECTIVE 
else                 PREPROCESSOR DIRECTIVE 
endif                PREPROCESSOR DIRECTIVE 
error                PREPROCESSOR DIRECTIVE 
if                   PREPROCESSOR DIRECTIVE 
ifdef                PREPROCESSOR DIRECTIVE 
ifndef               PREPROCESSOR DIRECTIVE 
include              PREPROCESSOR DIRECTIVE 
line                 PREPROCESSOR DIRECTIVE 
message              PREPROCESSOR DIRECTIVE 
name                 Target symbol: 0 
no                   Target symbol: 0 
pragma               PREPROCESSOR DIRECTIVE 
reg                  Target symbol: 0 
reg_from             Target symbol: 0 
reg_to               Target symbol: 0 
undef                PREPROCESSOR DIRECTIVE 
|                    OPERATOR 
||                   OPERATOR 
~                    OPERATOR 

Segment             Type 	Mode
----------------------------------------
RCODE               CODE  	REL 
__EXTERNS           CODE  	ABS Org:0 

Label               Mode   Type                   Segment    Value/Offset
------------------------------------------------------------------------------
?L_NEG              REL    CONST PUB UNTYP.       RCODE      0 
?L_NEG_REW          REL    CONST PUB UNTYP.       RCODE      0 
AC                  ABS    CONST UNTYP.           ASEG       D6 
ACC                 ABS    CONST UNTYP.           ASEG       E0 
B                   ABS    CONST UNTYP.           ASEG       F0 
BLOCK               REL    CONST UNTYP.           RCODE      Not solved 
DPH                 ABS    CONST UNTYP.           ASEG       83 
DPL                 ABS    CONST UNTYP.           ASEG       82 
ENDBLOCK            REL    CONST UNTYP.           RCODE      Not solved 
EXTI0               ABS    CONST UNTYP.           ASEG       3 
EXTI1               ABS    CONST UNTYP.           ASEG       13 
F0                  ABS    CONST UNTYP.           ASEG       D5 
NOFUNCTION          REL    CONST UNTYP.           RCODE      Not solved 
OV                  ABS    CONST UNTYP.           ASEG       D2 
P                   ABS    CONST UNTYP.           ASEG       D0 
PSW                 ABS    CONST UNTYP.           ASEG       D0 
RESET               ABS    CONST UNTYP.           ASEG       0 
RS0                 ABS    CONST UNTYP.           ASEG       D3 
RS1                 ABS    CONST UNTYP.           ASEG       D4 
SINT                ABS    CONST UNTYP.           ASEG       23 
SP                  ABS    CONST UNTYP.           ASEG       81 
TID                 ABS    CONST UNTYP.           ASEG       2000 
TIMER0              ABS    CONST UNTYP.           ASEG       B 
TIMER1              ABS    CONST UNTYP.           ASEG       1B 
USING               REL    CONST UNTYP.           RCODE      Not solved 
cfi_common          REL    CONST UNTYP.           RCODE      Not solved 
undefined           REL    CONST UNTYP.           RCODE      Not solved 
x                   REL    CONST UNTYP.           RCODE      0 


##############################
#          CRC:DC61          #
#        Errors:   0         #
#        Warnings: 0         #
#         Bytes: 20          #
##############################



###############################################################################
#                                                                             #
#     IAR Systems 8051 Assembler V7.30A/W32 06/Apr/2017  13:54:37             #
#     Copyright 2007 IAR Systems. All rights reserved.                        #
#                                                                             #
#           Target option =  plain                                            #
#           Source file   =  E:\1500V_Test2\ED\code\Library\clib\iar_long.s51 #
#           List file     =  E:\1500V_Test2\ED\iar\Build .hex for CC2510\List\iar_long.lst#
#           Object file   =  E:\1500V_Test2\ED\iar\Build .hex for CC2510\Obj\iar_long.r51#
#           Command line  =  E:\1500V_Test2\ED\code\Library\clib\iar_long.s51 #
#                            -v0 -D__CORE__=1 -D__CODE_MODEL__=1              #
#                            -D__DATA_MODEL__=2 -D__CALLING_CONVENTION__=4    #
#                            -D__NUMBER_OF_DPTRS__=1                          #
#                            -OE:\1500V_Test2\ED\iar\Build .hex for CC2510\Obj\ #
#                            -s+ -M<>                                         #
#                            -LE:\1500V_Test2\ED\iar\Build .hex for CC2510\List\ #
#                            -t8 -xDI -IC:\IARSystems-CD-730B\8051\INC\       #
#                            -Dchip=2510 -D_LOW_IMAGE_ -w+                    #
#                                                                             #
###############################################################################

    908    000000          
    909    000000          ;---------------------------------------------------
                           --------------------------
    910    000000          ;
    911    000000          ;       Function: ?L_NEG_X
    912    000000          ;
    913    000000          ;       Description: Negates a long object in
                            XDATA.
    914    000000          ;
    915    000000          ;       Register input:
    916    000000          ;               DPTRx Points to the objects
                            LSB
    917    000000          ;
    918    000000          ;       Register output:
    919    000000          ;               A    Is equal to the objects
                            MSB
    920    000000          ;               CY   Is undefined if rewind
                            DPTR.
    921    000000          ;               DPTRx = DPTRx+3
    922    000000          ;
    923    000000          ;       Multiple DPTR
    924    000000          ;               DPTR: all allowed in ?L_NEG_X
    925    000000          ;
    926    000000          ;               ?L_NEG_X_REW: in separate mode DPTR0
                            must be selected
    927    000000          ;
    928    000000          ;       Stack usage: 2
    929    000000          ;
    930    000000          ;---------------------------------------------------
                           --------------------------
    931    000000          
    932    000000                  MODULE  ?L_NEG_X
    933    000000                  RSEG    RCODE:CODE:NOROOT       
    934    000000                  PUBLIC  ?L_NEG_X
    935    000000                  PUBLIC  ?L_NEG_X_REW
    936    000000                  CFI BLOCK ?L_NEG_X_REW USING cfi_common
    937    000000                  CFI NOFUNCTION  
    938    000000          
    939    000000                  CFI     A     undefined
    940    000000                  CFI     DPTR0 undefined
    941    000000                  
    942    000000          ?L_NEG_X_REW:
    943    000000          
    944    000000 E582             MOV     A,DPL
    945    000002 24FD             ADD     A,#0FDH
    946    000004 F582             MOV     DPL,A
    947    000006 40..             JC      ?L_NEG_X
    948    000008          #ifdef __EXTENDED_DPTR__
    955    000008          #else
    956    000008 1583             DEC     DPH
    957    00000A          #endif
    958    00000A          
    959    00000A                  CFI ENDBLOCK ?L_NEG_X_REW
    960    00000A          
    961    000000                  RSEG    RCODE:CODE:NOROOT       
    962    000000                  CFI BLOCK ?L_NEG_X USING cfi_common
    963    000000                  CFI NOFUNCTION  
    964    000000          
    965    000000                  CFI     A     undefined
    966    000000                  CFI     DPTR0 undefined
    967    000000          
    968    000000          ?L_NEG_X:
    969    000000          
    970    000000 E0               MOVX    A,@DPTR
    971    000001 F4               CPL     A
    972    000002 2401             ADD     A,#1
    973    000004 F0               MOVX    @DPTR,A
    974    000005 A3               INC     DPTR
    975    000006 E0               MOVX    A,@DPTR
    976    000007 F4               CPL     A
    977    000008 3400             ADDC    A,#0
    978    00000A F0               MOVX    @DPTR,A
    979    00000B A3               INC     DPTR
    980    00000C E0               MOVX    A,@DPTR
    981    00000D F4               CPL     A
    982    00000E 3400             ADDC    A,#0
    983    000010 F0               MOVX    @DPTR,A
    984    000011 A3               INC     DPTR
    985    000012 E0               MOVX    A,@DPTR
    986    000013 F4               CPL     A
    987    000014 3400             ADDC    A,#0
    988    000016 F0               MOVX    @DPTR,A
    989    000017 22               RET
    990    000018                  CFI ENDBLOCK ?L_NEG_X
    991    000018                  ENDMOD


EOF                  DELIMITER 
\n                   DELIMITER 
                     DELIMITER 
!                    OPERATOR 
!=                   OPERATOR 
%                    OPERATOR 
&                    OPERATOR 
&&                   OPERATOR 
(                    OPERATOR 
(                    DELIMITER 
)                    OPERATOR 
)                    DELIMITER 
*                    OPERATOR 
+                    OPERATOR 
,                    DELIMITER 
-                    OPERATOR 
/                    OPERATOR 
:                    DELIMITER 
;                    DELIMITER 
;                    Target symbol: 23 
<                    OPERATOR 
<<                   OPERATOR 
<=                   OPERATOR 
<>                   OPERATOR 
=                    OPERATOR 
=                    DIRECTIVE 
==                   OPERATOR 
>                    OPERATOR 
>=                   OPERATOR 
>>                   OPERATOR 
?XSP                 Target symbol: 0 
@                    DELIMITER 
A                    REGISTER 
AB                   REGISTER 
ACALL                MNEMONIC 
ADD                  MNEMONIC 
ADDC                 MNEMONIC 
AJMP                 MNEMONIC 
ALIAS                DIRECTIVE 
ALIGN                DIRECTIVE 
ALIGNRAM             DIRECTIVE 
AND                  OPERATOR 
ANL                  MNEMONIC 
ARGFRAME             DIRECTIVE 
ASEG                 DIRECTIVE 
ASEGN                DIRECTIVE 
ASSIGN               DIRECTIVE 
B                    REGISTER 
BINAND               OPERATOR 
BINNOT               OPERATOR 
BINOR                OPERATOR 
BINXOR               OPERATOR 
BIT                  SEGMENT TYPE 
BITAND               OPERATOR 
BITNOT               OPERATOR 
BITOR                OPERATOR 
BITXOR               OPERATOR 
BREAK                DIRECTIVE 
BYTE                 Target symbol: 524288 
BYTE1                OPERATOR 
BYTE2                OPERATOR 
BYTE3                OPERATOR 
BYTE4                OPERATOR 
C                    Target symbol: 1 
CALL                 MNEMONIC 
CASE                 DIRECTIVE 
CASEOFF              DIRECTIVE 
CASEON               DIRECTIVE 
CFA_ESP16            Target symbol: 0 
CFA_ESP24            Target symbol: 0 
CFA_MACHINE          #define, value: CFA_SP, line:      37:3      516:3    517:3    519:3    519:3
                                                                    519:3    520:3    520:3    520:3
                                                                    520:3    521:3    521:3    521:3
                                                                    521:3    521:3       96       97
                                                                      100      101      209      213
                                                                      363      364      399      442
                                                                      443      479      536      537
                                                                      541      542      546      547
                                                                      551      552      644      648
                                                                      652      656
CFA_PSP24            Target symbol: 0 
CFA_SPP              #define, value: CFA_PSP16, line:      21:3  
CFA_SPX              #define, value: CFA_XSP16, line:      23:3  
CFA_XSP24            Target symbol: 0 
CFI                  DIRECTIVE 
CFI_COMMON_DECLARE_CORE_COMMON MACRO 
CFI_COMMON_DECLARE_SAME_VALUE_FOR_ALL_REGISTERS
                     MACRO 
CFI_COMMON_DECLARE_UNDEFINED_FOR_ALL_DPTR_REGISTERS
                     MACRO 
CFI_NAMES_DECLARE_REGISTER_RESOURCES
                     MACRO 
CFI_NAMES_DECLARE_RETURN_RESOURCE
                     MACRO 
CFI_NAMES_DECLARE_STACKS MACRO 
CFI_banked_com       MACRO 
CFI_banked_nam       MACRO 
CFI_com              MACRO 
CFI_nam              MACRO 
CFI_pdata_enter_com  MACRO 
CFI_pdata_enter_nam  MACRO 
CJNE                 MNEMONIC 
CLR                  MNEMONIC 
CODE                 SEGMENT TYPE 
CODE                 DIRECTIVE 
COL                  DIRECTIVE 
COMMON               DIRECTIVE 
CONST                SEGMENT TYPE 
CONTINUE             DIRECTIVE 
CPL                  MNEMONIC 
CY                   Target symbol: 1 
DA                   MNEMONIC 
DATA                 SEGMENT TYPE 
DATA                 DIRECTIVE 
DATE                 OPERATOR 
DB                   DIRECTIVE 
DC16                 DIRECTIVE 
DC24                 DIRECTIVE 
DC32                 DIRECTIVE 
DC8                  DIRECTIVE 
DD                   DIRECTIVE 
DEC                  MNEMONIC 
DEFAULT              DIRECTIVE 
DEFINE               DIRECTIVE 
DIV                  MNEMONIC 
DJNZ                 MNEMONIC 
DPTR                 REGISTER 
DPTR_MASK_SYMBOLS    MACRO 
DS                   DIRECTIVE 
DS16                 DIRECTIVE 
DS24                 DIRECTIVE 
DS32                 DIRECTIVE 
DS8                  DIRECTIVE 
DT                   DIRECTIVE 
DW                   DIRECTIVE 
ELSE                 DIRECTIVE 
ELSEIF               DIRECTIVE 
ELSEIFS              DIRECTIVE 
ELSES                DIRECTIVE 
END                  DIRECTIVE 
ENDF                 DIRECTIVE 
ENDIF                DIRECTIVE 
ENDIFS               DIRECTIVE 
ENDM                 DIRECTIVE 
ENDMAC               DIRECTIVE 
ENDMOD               DIRECTIVE 
ENDR                 DIRECTIVE 
ENDS                 DIRECTIVE 
ENDW                 DIRECTIVE 
EQ                   OPERATOR 
EQU                  DIRECTIVE 
ESP16                Target symbol: 0 
ESP24                Target symbol: 0 
EVEN                 DIRECTIVE 
EXITM                DIRECTIVE 
EXPORT               DIRECTIVE 
EXTERN               DIRECTIVE 
EXTERNS_FOR_ALL_DPTR_SYMBOLS MACRO 
EXTRN                DIRECTIVE 
FAR                  SEGMENT TYPE 
FARCODE              SEGMENT TYPE 
FARCONST             SEGMENT TYPE 
FARDATA              SEGMENT TYPE 
FOR                  DIRECTIVE 
FUNCALL              DIRECTIVE 
FUNCTION             DIRECTIVE 
GE                   OPERATOR 
GT                   OPERATOR 
HIGH                 OPERATOR 
HUGE                 SEGMENT TYPE 
HUGECODE             SEGMENT TYPE 
HUGECONST            SEGMENT TYPE 
HUGEDATA             SEGMENT TYPE 
HWRD                 OPERATOR 
IDATA                SEGMENT TYPE 
IF                   DIRECTIVE 
IFS                  DIRECTIVE 
IMPORT               DIRECTIVE 
INC                  MNEMONIC 
JB                   MNEMONIC 
JBC                  MNEMONIC 
JC                   MNEMONIC 
JMP                  MNEMONIC 
JNB                  MNEMONIC 
JNC                  MNEMONIC 
JNZ                  MNEMONIC 
JZ                   MNEMONIC 
LCALL                MNEMONIC 
LE                   OPERATOR 
LIBRARY              DIRECTIVE 
LIMIT                DIRECTIVE 
LJMP                 MNEMONIC 
LOC                  OPERATOR 
LOCAL                DIRECTIVE 
LOCFRAME             DIRECTIVE 
LONG                 Target symbol: 2097152 
LOW                  OPERATOR 
LSTCND               DIRECTIVE 
LSTCOD               DIRECTIVE 
LSTCYC               DIRECTIVE 
LSTEXP               DIRECTIVE 
LSTMAC               DIRECTIVE 
LSTOUT               DIRECTIVE 
LSTPAG               DIRECTIVE 
LSTREP               DIRECTIVE 
LSTSAS               DIRECTIVE 
LSTXRF               DIRECTIVE 
LT                   OPERATOR 
LWRD                 OPERATOR 
MACHINE_MEM          #define, value: DATA, line:      39:3      516:3    517:3
MACHINE_SP           #define, value: SP, line:      38:3      516:3    516:3    517:3    517:3
                                                                    519:3    520:3    521:3       96
                                                                      100      209      213      363
                                                                      399      442      479      536
                                                                      541      546      551      644
                                                                      648      652      656
MACRO                DIRECTIVE 
MOD                  OPERATOR 
MODULE               DIRECTIVE 
MOV                  MNEMONIC 
MOVC                 MNEMONIC 
MOVX                 MNEMONIC 
MUL                  MNEMONIC 
NAME                 DIRECTIVE 
NE                   OPERATOR 
NEAR                 SEGMENT TYPE 
NEARCODE             SEGMENT TYPE 
NEARCONST            SEGMENT TYPE 
NEARDATA             SEGMENT TYPE 
NOP                  MNEMONIC 
NOROOT               SEGMENT TYPE 
NOT                  OPERATOR 
NPAGE                SEGMENT TYPE 
ODD                  DIRECTIVE 
OR                   OPERATOR 
ORG                  DIRECTIVE 
ORL                  MNEMONIC 
PAGE                 DIRECTIVE 
PAGSIZ               DIRECTIVE 
PC                   REGISTER 
POP                  MNEMONIC 
PRM                  OPERATOR 
PROGRAM              DIRECTIVE 
PSP24                Target symbol: 0 
PUBLIC               DIRECTIVE 
PUBWEAK              DIRECTIVE 
PUSH                 MNEMONIC 
R0                   REGISTER 
R1                   REGISTER 
R2                   REGISTER 
R3                   REGISTER 
R4                   REGISTER 
R5                   REGISTER 
R6                   REGISTER 
R7                   REGISTER 
RADIX                DIRECTIVE 
READ                 Target symbol: 2048 
REGISTER             SEGMENT TYPE 
REORDER              SEGMENT TYPE 
REPEAT               DIRECTIVE 
REPT                 DIRECTIVE 
REPTC                DIRECTIVE 
REPTI                DIRECTIVE 
REQUIRE              DIRECTIVE 
RET                  MNEMONIC 
RETI                 MNEMONIC 
RL                   MNEMONIC 
RLC                  MNEMONIC 
ROOT                 SEGMENT TYPE 
RR                   MNEMONIC 
RRC                  MNEMONIC 
RSEG                 DIRECTIVE 
RTMODEL              DIRECTIVE 
S                    PREFIX 
SET                  DIRECTIVE 
SETB                 MNEMONIC 
SFB                  OPERATOR 
SFE                  OPERATOR 
SFRTYPE              DIRECTIVE 
SHL                  OPERATOR 
SHR                  OPERATOR 
SIZEOF               OPERATOR 
SJMP                 MNEMONIC 
SORT                 SEGMENT TYPE 
SPP                  #define, value: PSP16, line:      22:3      521:3
SPX                  #define, value: XSP16, line:      24:3  
STACK                DIRECTIVE 
SUBB                 MNEMONIC 
SWAP                 MNEMONIC 
SWITCH               DIRECTIVE 
SYMBOL               DIRECTIVE 
UGT                  OPERATOR 
ULT                  OPERATOR 
UNTIL                DIRECTIVE 
UNTYPED              SEGMENT TYPE 
WHILE                DIRECTIVE 
WORD                 Target symbol: 1048576 
WRITE                Target symbol: 4096 
XCH                  MNEMONIC 
XCHD                 MNEMONIC 
XDATA                SEGMENT TYPE 
XOR                  OPERATOR 
XRL                  MNEMONIC 
XSP24                Target symbol: 0 
XSP_H                #define, value: ?XSP+1, line:      24:1  
XSP_L                #define, value: ?XSP, line:      23:1  
ZPAGE                SEGMENT TYPE 
[                    DELIMITER 
]                    DELIMITER 
^                    OPERATOR 
_LOW_IMAGE_          #define, value: 1, line:         0  
__BUILD_NUMBER__     #define,            line:         0  
__CALLING_CONVENTION__ #define, value: 4, line:         0  
__CC_DO__            #define, value: 0, line:      45:2  
__CC_ER__            #define, value: 5, line:      50:2  
__CC_IO__            #define, value: 1, line:      46:2  
__CC_IR__            #define, value: 2, line:      47:2  
__CC_PR__            #define, value: 3, line:      48:2  
__CC_XR__            #define, value: 4, line:      49:2  
__CM_BANKED_EXT2__   #define, value: 4, line:      31:2  
__CM_BANKED__        #define, value: 2, line:      29:2  
__CM_FAR__           #define, value: 3, line:      30:2       42:3    516:3    519:3
__CM_NEAR__          #define, value: 1, line:      28:2  
__CM_TINY__          #define, value: 0, line:      27:2  
__CODE_MODEL__       #define, value: 1, line:         0       42:3    516:3    519:3
__CORE_EXTENDED1__   #define, value: 2, line:      21:2       67:2    521:3
__CORE_EXTENDED2__   #define, value: 3, line:      22:2  
__CORE_PLAIN__       #define, value: 1, line:      20:2  
__CORE_TINY__        #define, value: 0, line:      19:2  
__CORE__             #define, value: 1, line:         0       67:2    521:3
__DATA_MODEL__       #define, value: 2, line:         0  
__DATE__             #define,            line:         0  
__DM_FAR__           #define, value: 4, line:      40:2  
__DM_GENERIC__       #define, value: 3, line:      39:2  
__DM_LARGE__         #define, value: 2, line:      38:2  
__DM_SMALL__         #define, value: 1, line:      37:2  
__DM_TINY__          #define, value: 0, line:      36:2  
__DPTR_SEPARATE__    Target symbol: 0 
__DPTR_SHADOWED__    Target symbol: 0 
__EXTENDED_STACK__   Target symbol: 0 
__FILE__             #define,            line:         0  
__IAR_SYSTEMS_ASM    #define,            line:         0  
__IAR_SYSTEMS_ASM__  #define,            line:         0  
__INC_DPSEL_SELECT__ Target symbol: 0 
__LINE__             #define,            line:         0  
__NUMBER_OF_DPTRS__  #define, value: 1, line:         0       56:2    516:3    516:3    516:3
                                                                    516:3    516:3    516:3    516:3
                                                                    516:3    516:3    516:3    516:3
                                                                    516:3    516:3    516:3    516:3
                                                                    517:3    517:3    517:3    517:3
                                                                    517:3    517:3    517:3    517:3
