///////////////////////////////////////////////////////////////////////////////
//                                                                            /
// IAR 8051 C/C++ Compiler V7.30B/W32                   06/Apr/2017  13:54:51 /
// Copyright 2004-2007 IAR Systems. All rights reserved.                      /
//                                                                            /
//    Core               =  plain                                             /
//    Code model         =  near                                              /
//    Data model         =  large                                             /
//    Calling convention =  xdata reentrant                                   /
//    Constant location  =  data                                              /
//    Dptr setup         =  1,16                                              /
//    Source file        =  E:\1500V_Test2\ED\code\AndStackED\source\main.c   /
//    Command line       =  E:\1500V_Test2\ED\code\AndStackED\source\main.c   /
//                          -D NDEBUG -D chip=2510 -D LOWER_IMAGE -lA         /
//                          "E:\1500V_Test2\ED\iar\Build .hex for             /
//                          CC2510\List\" -o "E:\1500V_Test2\ED\iar\Build     /
//                          .hex for CC2510\Obj\" -e -z9 --core=plain         /
//                          --dptr=16,1 --data_model=large --code_model=near  /
//                          --calling_convention=xdata_reentrant              /
//                          --place_constants=data --nr_virtual_regs 32 -I    /
//                          E:\1500V_Test2\ED\iar\..\CODE\AndStackED\INCLUDE\ /
//                           -I E:\1500V_Test2\ED\iar\..\CODE\LIBRARY\HAL\INC /
//                          LUDE\ -I E:\1500V_Test2\ED\iar\..\CODE\LIBRARY\HA /
//                          L_BUI\INCLUDE\ -I C:\IARSystems-CD-730B\8051\INC\ /
//    List file          =  E:\1500V_Test2\ED\iar\Build .hex for              /
//                          CC2510\List\main.s51                              /
//                                                                            /
//                                                                            /
///////////////////////////////////////////////////////////////////////////////

        NAME main

        RTMODEL "__calling_convention", "xdata_reentrant"
        RTMODEL "__code_model", "near"
        RTMODEL "__core", "plain"
        RTMODEL "__data_model", "large"
        RTMODEL "__dptr_size", "16"
        RTMODEL "__extended_stack", "disabled"
        RTMODEL "__location_for_constants", "data"
        RTMODEL "__number_of_dptrs", "1"
        RTMODEL "__rt_version", "1"

        RSEG DOVERLAY:DATA:NOROOT(0)
        RSEG IOVERLAY:IDATA:NOROOT(0)
        RSEG ISTACK:IDATA:NOROOT(0)
        RSEG PSTACK:XDATA:NOROOT(0)
        RSEG XSTACK:XDATA:NOROOT(0)

        EXTERN ?CALL_IND
        EXTERN ?DEALLOC_XSTACK8
        EXTERN ?FLT_ADD
        EXTERN ?FLT_DIV
        EXTERN ?FLT_LT
        EXTERN ?FLT_MUL
        EXTERN ?FLT_SUB
        EXTERN ?FLT_TO_L
        EXTERN ?FUNC_ENTER_XDATA
        EXTERN ?FUNC_LEAVE_XDATA
        EXTERN ?L_ADD_TO_X
        EXTERN ?L_EQ_X
        EXTERN ?L_MOV_TO_X
        EXTERN ?L_MOV_X
        EXTERN ?L_SUB_X
        EXTERN ?L_TO_FLT
        EXTERN ?PUSH_XSTACK_I_TWO
        EXTERN ?SC_DIV_MOD
        EXTERN ?SS_SHR
        EXTERN ?S_DIV_MOD
        EXTERN ?S_SHL
        EXTERN ?UC_SWITCH_DENSE
        EXTERN ?UC_SWITCH_SPARSE
        EXTERN ?UL_GT_X
        EXTERN ?UL_TO_FLT
        EXTERN ?V0
        EXTERN ?XSTACK_DISP0_8
        EXTERN __INIT_XDATA_I
        EXTERN __INIT_XDATA_Z

        PUBWEAK ADCCFG
        PUBWEAK ADCCON1
        PUBWEAK ADCCON3
        PUBWEAK ADCH
        PUBWEAK ADCL
        PUBWEAK CLKCON
        PUBWEAK DMAARM
        PUBWEAK FADDRH
        PUBWEAK FCTL
        PUBWEAK FWT
        PUBWEAK IEN2
        PUBLIC ModuleOffRememberedPtr
        PUBLIC ModuleStatusCanTurnOn
        PUBLIC ModuleStatusOff
        PUBLIC ModuleStatusOffFetFailure
        PUBWEAK P0DIR
        PUBWEAK P0INP
        PUBWEAK P0SEL
        PUBWEAK P1DIR
        PUBWEAK P1SEL
        PUBWEAK P2SEL
        PUBWEAK PERCFG
        PUBWEAK RFIF
        PUBWEAK RFIM
        PUBWEAK RFST
        PUBWEAK RNDH
        PUBWEAK RNDL
        PUBWEAK S1CON
        PUBWEAK SLEEP
        PUBWEAK T1CC0H
        PUBWEAK T1CC0L
        PUBWEAK T1CCTL0
        PUBWEAK T1CNTH
        PUBWEAK T1CNTL
        PUBWEAK T1CTL
        PUBWEAK T3CC0
        PUBWEAK T3CC1
        PUBWEAK T3CCTL0
        PUBWEAK T3CCTL1
        PUBWEAK T3CTL
        PUBWEAK WDCTL
        PUBWEAK _A_IEN0
        PUBWEAK _A_IEN1
        PUBWEAK _A_P1
        PUBWEAK __Constant_0
        PUBWEAK __Constant_38d1b717
        PUBWEAK __Constant_3f800000
        PUBWEAK __Constant_42c80000
        PUBWEAK __Constant_447a0000
        PUBWEAK __Constant_c1c80000
        PUBLIC _coeff
        PUBLIC _datarate
        PUBLIC _gw_delay
        PUBLIC _join_slot
        PUBLIC _loop_delay
        PUBLIC _slot
        PUBLIC abs
        FUNCTION abs,0203H
        ARGFRAME XSTACK, 15, STACK
        ARGFRAME IOVERLAY, 0, STATIC
        ARGFRAME DOVERLAY, 0, STATIC
        PUBLIC adcBuf
        PUBLIC adcChannels
        PUBLIC adcCount
        PUBLIC adcs
        PUBLIC adcs16
        PUBLIC adcsTemp
        PUBLIC alignMPP
        PUBLIC armAdcs
        FUNCTION armAdcs,0603H
        ARGFRAME XSTACK, 0, STACK
        LOCFRAME ISTACK, 2, STACK
        PUBLIC base_ptr
        PUBLIC bufferCount
        PUBLIC bunchCount
        PUBLIC calibrationRepeat
        PUBLIC ch255
        PUBLIC checkForFETFailure
        PUBLIC checkItOut
        FUNCTION checkItOut,0203H
        ARGFRAME XSTACK, 0, STACK
        LOCFRAME ISTACK, 3, STACK
        PUBLIC checkMore
        FUNCTION checkMore,0201H
        ARGFRAME XSTACK, 0, STACK
        ARGFRAME IOVERLAY, 0, STATIC
        ARGFRAME DOVERLAY, 0, STATIC
        LOCFRAME XSTACK, 9, STACK
        PUBLIC checkPD
        PUBLIC checkVin
        FUNCTION checkVin,021203H
        ARGFRAME XSTACK, 31, STACK
        ARGFRAME IOVERLAY, 0, STATIC
        ARGFRAME DOVERLAY, 0, STATIC
        LOCFRAME ISTACK, 2, STACK
        LOCFRAME XSTACK, 15, STACK
        PUBLIC checkVoutOnT
        PUBLIC checkVref
        PUBLIC cmdCount
        PUBLIC coefficients_buffer
        PUBLIC computeADCs
        FUNCTION computeADCs,021203H
        ARGFRAME XSTACK, 9, STACK
        ARGFRAME IOVERLAY, 0, STATIC
        ARGFRAME DOVERLAY, 0, STATIC
        LOCFRAME ISTACK, 1, STACK
        LOCFRAME XSTACK, 31, STACK
        PUBLIC computeAdjustment
        FUNCTION computeAdjustment,0203H
        ARGFRAME XSTACK, 31, STACK
        ARGFRAME IOVERLAY, 0, STATIC
        ARGFRAME DOVERLAY, 0, STATIC
        LOCFRAME XSTACK, 15, STACK
        PUBLIC computeTI
        FUNCTION computeTI,0203H
        ARGFRAME XSTACK, 0, STACK
        LOCFRAME ISTACK, 3, STACK
        PUBLIC copyMac
        FUNCTION copyMac,021203H
        ARGFRAME XSTACK, 8, STACK
        ARGFRAME IOVERLAY, 0, STATIC
        ARGFRAME DOVERLAY, 0, STATIC
        PUBLIC cube_coeff
        FUNCTION cube_coeff,0203H
        ARGFRAME XSTACK, 31, STACK
        ARGFRAME IOVERLAY, 0, STATIC
        ARGFRAME DOVERLAY, 0, STATIC
        LOCFRAME XSTACK, 15, STACK
        PUBLIC curBunch
        PUBLIC curChannel
        PUBLIC cycles2HardKick
        PUBLIC cycles2SoftKick
        PUBLIC cycles2Step10Channel
        PUBLIC cyclesFromStart
        PUBLIC cyclesTo10
        PUBLIC cyclesTo500
        PUBLIC cyclesToHop
        PUBLIC cyclesToStep500Channel
        PUBLIC `dec`
        FUNCTION `dec`,0203H
        ARGFRAME XSTACK, 9, STACK
        ARGFRAME IOVERLAY, 0, STATIC
        ARGFRAME DOVERLAY, 0, STATIC
        LOCFRAME ISTACK, 2, STACK
        PUBLIC decodeDelay
        PUBLIC defFreq
        PUBLIC def_freq
        FUNCTION def_freq,021203H
        ARGFRAME XSTACK, 15, STACK
        ARGFRAME IOVERLAY, 0, STATIC
        ARGFRAME DOVERLAY, 0, STATIC
        PUBLIC enable2SendData
        PUBLIC from_flash
        PUBLIC gnd_shift
        PUBLIC got_gw
        PUBLIC indices
        PUBLIC init
        FUNCTION init,021203H
        ARGFRAME XSTACK, 0, STACK
        ARGFRAME IOVERLAY, 0, STATIC
        ARGFRAME DOVERLAY, 0, STATIC
        LOCFRAME XSTACK, 15, STACK
        PUBLIC invRef
        PUBLIC invVref0
        PUBLIC isCalibrationPackage
        PUBLIC isOnTestStand
        PUBLIC isSteppedDown
        PUBLIC joinRequestWasSend
        PUBLIC kickOsc
        FUNCTION kickOsc,0201H
        ARGFRAME XSTACK, 15, STACK
        ARGFRAME IOVERLAY, 0, STATIC
        ARGFRAME DOVERLAY, 0, STATIC
        LOCFRAME ISTACK, 2, STACK
        PUBLIC last
        PUBLIC lastCycle
        PUBLIC lastOff
        PUBLIC lastRssi
        PUBLIC lin
        FUNCTION lin,021203H
        ARGFRAME XSTACK, 31, STACK
        ARGFRAME IOVERLAY, 0, STATIC
        ARGFRAME DOVERLAY, 0, STATIC
        LOCFRAME XSTACK, 15, STACK
        PUBLIC lin_coeff
        FUNCTION lin_coeff,0203H
        ARGFRAME XSTACK, 31, STACK
        ARGFRAME IOVERLAY, 0, STATIC
        ARGFRAME DOVERLAY, 0, STATIC
        LOCFRAME XSTACK, 15, STACK
        PUBLIC lin_coeff_t
        FUNCTION lin_coeff_t,0203H
        ARGFRAME XSTACK, 15, STACK
        ARGFRAME IOVERLAY, 0, STATIC
        ARGFRAME DOVERLAY, 0, STATIC
        LOCFRAME XSTACK, 15, STACK
        PUBLIC longTickWait
        FUNCTION longTickWait,021203H
        ARGFRAME XSTACK, 0, STACK
        ARGFRAME IOVERLAY, 0, STATIC
        ARGFRAME DOVERLAY, 0, STATIC
        LOCFRAME ISTACK, 1, STACK
        PUBLIC main
        FUNCTION main,0a1a03H
        ARGFRAME XSTACK, 0, STACK
        LOCFRAME ISTACK, 2, STACK
        PUBLIC main_loop
        FUNCTION main_loop,0a1203H
        ARGFRAME XSTACK, 0, STACK
        ARGFRAME IOVERLAY, 0, STATIC
        ARGFRAME DOVERLAY, 0, STATIC
        LOCFRAME ISTACK, 2, STACK
        LOCFRAME XSTACK, 9, STACK
        PUBLIC mdmcfg4_cycles
        PUBLIC milliSeconds
        PUBLIC minutes
        PUBLIC ms
        PUBLIC msLast
        PUBLIC mult
        FUNCTION mult,0203H
        ARGFRAME XSTACK, 2, STACK
        LOCFRAME XSTACK, 15, STACK
        PUBLIC multSaver
        FUNCTION multSaver,0203H
        ARGFRAME XSTACK, 0, STACK
        LOCFRAME XSTACK, 15, STACK
        PUBLIC ndev
        PUBLIC nextIV
        PUBLIC nextKey
        PUBLIC nextSlot
        FUNCTION nextSlot,0203H
        ARGFRAME XSTACK, 0, STACK
        LOCFRAME XSTACK, 9, STACK
        PUBLIC oc2timer
        FUNCTION oc2timer,0203H
        ARGFRAME XSTACK, 19, STACK
        ARGFRAME IOVERLAY, 0, STATIC
        ARGFRAME DOVERLAY, 0, STATIC
        LOCFRAME XSTACK, 19, STACK
        PUBLIC ocShortCircuitLimit
        PUBLIC oscWhatToWaitFor
        PUBLIC ov_startup
        FUNCTION ov_startup,0203H
        ARGFRAME XSTACK, 15, STACK
        ARGFRAME IOVERLAY, 0, STATIC
        ARGFRAME DOVERLAY, 0, STATIC
        LOCFRAME ISTACK, 2, STACK
        PUBLIC packagePrepared
        PUBLIC page
        PUBLIC parseCommands
        FUNCTION parseCommands,0a1203H
        ARGFRAME XSTACK, 15, STACK
        ARGFRAME IOVERLAY, 0, STATIC
        ARGFRAME DOVERLAY, 0, STATIC
        LOCFRAME ISTACK, 2, STACK
        LOCFRAME XSTACK, 15, STACK
        PUBLIC parseGWPackage
        FUNCTION parseGWPackage,021203H
        ARGFRAME XSTACK, 9, STACK
        ARGFRAME IOVERLAY, 0, STATIC
        ARGFRAME DOVERLAY, 0, STATIC
        LOCFRAME ISTACK, 2, STACK
        LOCFRAME XSTACK, 17, STACK
        PUBLIC prepareCoeff
        FUNCTION prepareCoeff,021203H
        ARGFRAME XSTACK, 8, STACK
        ARGFRAME IOVERLAY, 0, STATIC
        ARGFRAME DOVERLAY, 0, STATIC
        LOCFRAME XSTACK, 19, STACK
        PUBLIC prepareData
        FUNCTION prepareData,021203H
        ARGFRAME XSTACK, 9, STACK
        ARGFRAME IOVERLAY, 0, STATIC
        ARGFRAME DOVERLAY, 0, STATIC
        LOCFRAME ISTACK, 1, STACK
        LOCFRAME XSTACK, 8, STACK
        PUBLIC prepareJoinRequest
        FUNCTION prepareJoinRequest,021203H
        ARGFRAME XSTACK, 9, STACK
        ARGFRAME IOVERLAY, 0, STATIC
        ARGFRAME DOVERLAY, 0, STATIC
        LOCFRAME ISTACK, 2, STACK
        PUBLIC prepareScaling
        FUNCTION prepareScaling,021603H
        ARGFRAME XSTACK, 8, STACK
        ARGFRAME IOVERLAY, 0, STATIC
        ARGFRAME DOVERLAY, 0, STATIC
        LOCFRAME XSTACK, 8, STACK
        PUBLIC prepareSpecial
        FUNCTION prepareSpecial,021203H
        ARGFRAME XSTACK, 19, STACK
        ARGFRAME IOVERLAY, 0, STATIC
        ARGFRAME DOVERLAY, 0, STATIC
        LOCFRAME XSTACK, 8, STACK
        PUBLIC prepareTxBuffer
        FUNCTION prepareTxBuffer,021201H
        ARGFRAME XSTACK, 8, STACK
        ARGFRAME IOVERLAY, 0, STATIC
        ARGFRAME DOVERLAY, 0, STATIC
        LOCFRAME XSTACK, 11, STACK
        PUBLIC prevRssi
        PUBLIC processCheck
        FUNCTION processCheck,021203H
        ARGFRAME XSTACK, 0, STACK
        LOCFRAME XSTACK, 15, STACK
        PUBLIC processingTime
        PUBLIC pt
        PUBLIC ptr2RunningTick
        PUBLIC quartz
        FUNCTION quartz,0a1203H
        ARGFRAME XSTACK, 0, STACK
        ARGFRAME IOVERLAY, 0, STATIC
        ARGFRAME DOVERLAY, 0, STATIC
        LOCFRAME XSTACK, 8, STACK
        PUBLIC rcgen
        PUBLIC readNextValue
        FUNCTION readNextValue,021603H
        ARGFRAME XSTACK, 0, STACK
        LOCFRAME ISTACK, 2, STACK
        LOCFRAME XSTACK, 11, STACK
        PUBLIC read_page
        FUNCTION read_page,021203H
        ARGFRAME XSTACK, 15, STACK
        ARGFRAME IOVERLAY, 0, STATIC
        ARGFRAME DOVERLAY, 0, STATIC
        LOCFRAME ISTACK, 2, STACK
        PUBLIC receive
        FUNCTION receive,0203H
        ARGFRAME XSTACK, 15, STACK
        ARGFRAME IOVERLAY, 0, STATIC
        ARGFRAME DOVERLAY, 0, STATIC
        LOCFRAME ISTACK, 3, STACK
        PUBLIC reportFlashCheck
        PUBLIC reportScaling
        PUBLIC resetReason
        PUBLIC restoreRadio
        FUNCTION restoreRadio,0201H
        ARGFRAME XSTACK, 0, STACK
        LOCFRAME ISTACK, 2, STACK
        PUBLIC savePB
        FUNCTION savePB,0a1201H
        ARGFRAME XSTACK, 13, STACK
        ARGFRAME IOVERLAY, 0, STATIC
        ARGFRAME DOVERLAY, 0, STATIC
        LOCFRAME ISTACK, 2, STACK
        PUBLIC saved_channel
        PUBLIC search_stat
        PUBLIC seconds
        PUBLIC sendData
        FUNCTION sendData,021203H
        ARGFRAME XSTACK, 15, STACK
        ARGFRAME IOVERLAY, 0, STATIC
        ARGFRAME DOVERLAY, 0, STATIC
        LOCFRAME ISTACK, 3, STACK
        PUBLIC setByte
        FUNCTION setByte,0a1203H
        ARGFRAME XSTACK, 13, STACK
        ARGFRAME IOVERLAY, 0, STATIC
        ARGFRAME DOVERLAY, 0, STATIC
        LOCFRAME ISTACK, 2, STACK
        LOCFRAME XSTACK, 11, STACK
        PUBLIC setFloat
        FUNCTION setFloat,0a1203H
        ARGFRAME XSTACK, 13, STACK
        ARGFRAME IOVERLAY, 0, STATIC
        ARGFRAME DOVERLAY, 0, STATIC
        LOCFRAME XSTACK, 19, STACK
        PUBLIC setInt
        FUNCTION setInt,0a1203H
        ARGFRAME XSTACK, 13, STACK
        ARGFRAME IOVERLAY, 0, STATIC
        ARGFRAME DOVERLAY, 0, STATIC
        LOCFRAME ISTACK, 1, STACK
        LOCFRAME XSTACK, 10, STACK
        PUBLIC setOC
        PUBLIC setupRadio
        FUNCTION setupRadio,021203H
        ARGFRAME XSTACK, 15, STACK
        ARGFRAME IOVERLAY, 0, STATIC
        ARGFRAME DOVERLAY, 0, STATIC
        LOCFRAME ISTACK, 2, STACK
        PUBLIC setupRadioDR
        FUNCTION setupRadioDR,021203H
        ARGFRAME XSTACK, 0, STACK
        ARGFRAME IOVERLAY, 0, STATIC
        ARGFRAME DOVERLAY, 0, STATIC
        LOCFRAME ISTACK, 1, STACK
        LOCFRAME XSTACK, 8, STACK
        PUBLIC setupRepeater
        FUNCTION setupRepeater,021203H
        ARGFRAME XSTACK, 15, STACK
        ARGFRAME IOVERLAY, 0, STATIC
        ARGFRAME DOVERLAY, 0, STATIC
        LOCFRAME ISTACK, 2, STACK
        PUBLIC si
        PUBLIC sleepCounter
        PUBLIC softKick
        FUNCTION softKick,021203H
        ARGFRAME XSTACK, 15, STACK
        ARGFRAME IOVERLAY, 0, STATIC
        ARGFRAME DOVERLAY, 0, STATIC
        LOCFRAME ISTACK, 3, STACK
        PUBLIC switchTo255
        FUNCTION switchTo255,021203H
        ARGFRAME XSTACK, 15, STACK
        ARGFRAME IOVERLAY, 0, STATIC
        ARGFRAME DOVERLAY, 0, STATIC
        LOCFRAME ISTACK, 2, STACK
        PUBLIC t
        PUBLIC tempAdcsCount
        PUBLIC temperatureProtectionDelay
        PUBLIC theKey
        PUBLIC theOC
        PUBLIC theRealOffset
        PUBLIC the_frequency
        PUBLIC tickWait
        FUNCTION tickWait,0203H
        ARGFRAME XSTACK, 15, STACK
        ARGFRAME IOVERLAY, 0, STATIC
        ARGFRAME DOVERLAY, 0, STATIC
        LOCFRAME XSTACK, 9, STACK
        PUBLIC ticks2ProcessCmd
        PUBLIC turnOnFlag
        PUBLIC txDisabled
        PUBLIC utc
        PUBLIC utcLast
        PUBLIC vref
        PUBLIC was_listening
        PUBLIC was_repeater
        
        CFI Names cfiNames0
        CFI StackFrame CFA_SP SP DATA
        CFI StackFrame CFA_PSP16 PSP16 XDATA
        CFI StackFrame CFA_XSP16 XSP16 XDATA
        CFI StaticOverlayFrame CFA_IOVERLAY IOVERLAY
        CFI StaticOverlayFrame CFA_DOVERLAY DOVERLAY
        CFI Resource `PSW.CY`:1, `B.BR0`:1, `B.BR1`:1, `B.BR2`:1, `B.BR3`:1
        CFI Resource `B.BR4`:1, `B.BR5`:1, `B.BR6`:1, `B.BR7`:1, `VB.BR8`:1
        CFI Resource `VB.BR9`:1, `VB.BR10`:1, `VB.BR11`:1, `VB.BR12`:1
        CFI Resource `VB.BR13`:1, `VB.BR14`:1, `VB.BR15`:1, VB:8, B:8, A:8
        CFI Resource PSW:8, DPL0:8, DPH0:8, R0:8, R1:8, R2:8, R3:8, R4:8, R5:8
        CFI Resource R6:8, R7:8, V0:8, V1:8, V2:8, V3:8, V4:8, V5:8, V6:8, V7:8
        CFI Resource V8:8, V9:8, V10:8, V11:8, V12:8, V13:8, V14:8, V15:8
        CFI Resource V16:8, V17:8, V18:8, V19:8, V20:8, V21:8, V22:8, V23:8
        CFI Resource V24:8, V25:8, V26:8, V27:8, V28:8, V29:8, V30:8, V31:8
        CFI Resource SP:8, PSPH:8, PSPL:8, PSP16:16, XSPH:8, XSPL:8, XSP16:16
        CFI VirtualResource ?RET:16, ?RET_HIGH:8, ?RET_LOW:8
        CFI ResourceParts PSP16 PSPH, PSPL
        CFI ResourceParts XSP16 XSPH, XSPL
        CFI ResourceParts ?RET ?RET_HIGH, ?RET_LOW
        CFI EndNames cfiNames0
        
        CFI Common cfiCommon0 Using cfiNames0
        CFI CodeAlign 1
        CFI DataAlign -1
        CFI ReturnAddress ?RET CODE
        CFI CFA_DOVERLAY Used
        CFI CFA_IOVERLAY Used
        CFI CFA_SP SP+-2
        CFI CFA_PSP16 PSP16+0
        CFI CFA_XSP16 XSP16+0
        CFI `PSW.CY` SameValue
        CFI `B.BR0` SameValue
        CFI `B.BR1` SameValue
        CFI `B.BR2` SameValue
        CFI `B.BR3` SameValue
        CFI `B.BR4` SameValue
        CFI `B.BR5` SameValue
        CFI `B.BR6` SameValue
        CFI `B.BR7` SameValue
        CFI `VB.BR8` SameValue
        CFI `VB.BR9` SameValue
        CFI `VB.BR10` SameValue
        CFI `VB.BR11` SameValue
        CFI `VB.BR12` SameValue
        CFI `VB.BR13` SameValue
        CFI `VB.BR14` SameValue
        CFI `VB.BR15` SameValue
        CFI VB SameValue
        CFI B Undefined
        CFI A Undefined
        CFI PSW SameValue
        CFI DPL0 SameValue
        CFI DPH0 SameValue
        CFI R0 Undefined
        CFI R1 Undefined
        CFI R2 Undefined
        CFI R3 Undefined
        CFI R4 Undefined
        CFI R5 Undefined
        CFI R6 SameValue
        CFI R7 SameValue
        CFI V0 SameValue
        CFI V1 SameValue
        CFI V2 SameValue
        CFI V3 SameValue
        CFI V4 SameValue
        CFI V5 SameValue
        CFI V6 SameValue
        CFI V7 SameValue
        CFI V8 SameValue
        CFI V9 SameValue
        CFI V10 SameValue
        CFI V11 SameValue
        CFI V12 SameValue
        CFI V13 SameValue
        CFI V14 SameValue
        CFI V15 SameValue
        CFI V16 SameValue
        CFI V17 SameValue
        CFI V18 SameValue
        CFI V19 SameValue
        CFI V20 SameValue
        CFI V21 SameValue
        CFI V22 SameValue
        CFI V23 SameValue
        CFI V24 SameValue
        CFI V25 SameValue
        CFI V26 SameValue
        CFI V27 SameValue
        CFI V28 SameValue
        CFI V29 SameValue
        CFI V30 SameValue
        CFI V31 SameValue
        CFI PSPH Undefined
        CFI PSPL Undefined
        CFI XSPH Undefined
        CFI XSPL Undefined
        CFI ?RET Concat
        CFI ?RET_HIGH Frame(CFA_SP, 2)
        CFI ?RET_LOW Frame(CFA_SP, 1)
        CFI EndCommon cfiCommon0
        
        
        CFI Common cfiCommon1 Using cfiNames0
        CFI CodeAlign 1
        CFI DataAlign -1
        CFI ReturnAddress ?RET CODE
        CFI CFA_DOVERLAY Used
        CFI CFA_IOVERLAY Used
        CFI CFA_SP SP+-2
        CFI CFA_PSP16 PSP16+0
        CFI CFA_XSP16 XSP16+0
        CFI `PSW.CY` SameValue
        CFI `B.BR0` SameValue
        CFI `B.BR1` SameValue
        CFI `B.BR2` SameValue
        CFI `B.BR3` SameValue
        CFI `B.BR4` SameValue
        CFI `B.BR5` SameValue
        CFI `B.BR6` SameValue
        CFI `B.BR7` SameValue
        CFI `VB.BR8` SameValue
        CFI `VB.BR9` SameValue
        CFI `VB.BR10` SameValue
        CFI `VB.BR11` SameValue
        CFI `VB.BR12` SameValue
        CFI `VB.BR13` SameValue
        CFI `VB.BR14` SameValue
        CFI `VB.BR15` SameValue
        CFI VB SameValue
        CFI B SameValue
        CFI A SameValue
        CFI PSW SameValue
        CFI DPL0 SameValue
        CFI DPH0 SameValue
        CFI R0 SameValue
        CFI R1 SameValue
        CFI R2 SameValue
        CFI R3 SameValue
        CFI R4 SameValue
        CFI R5 SameValue
        CFI R6 SameValue
        CFI R7 SameValue
        CFI V0 SameValue
        CFI V1 SameValue
        CFI V2 SameValue
        CFI V3 SameValue
        CFI V4 SameValue
        CFI V5 SameValue
        CFI V6 SameValue
        CFI V7 SameValue
        CFI V8 SameValue
        CFI V9 SameValue
        CFI V10 SameValue
        CFI V11 SameValue
        CFI V12 SameValue
        CFI V13 SameValue
        CFI V14 SameValue
        CFI V15 SameValue
        CFI V16 SameValue
        CFI V17 SameValue
        CFI V18 SameValue
        CFI V19 SameValue
        CFI V20 SameValue
        CFI V21 SameValue
        CFI V22 SameValue
        CFI V23 SameValue
        CFI V24 SameValue
        CFI V25 SameValue
        CFI V26 SameValue
        CFI V27 SameValue
        CFI V28 SameValue
        CFI V29 SameValue
        CFI V30 SameValue
        CFI V31 SameValue
        CFI PSPH Undefined
        CFI PSPL Undefined
        CFI XSPH Undefined
        CFI XSPL Undefined
        CFI ?RET Concat
        CFI ?RET_HIGH Frame(CFA_SP, 2)
        CFI ?RET_LOW Frame(CFA_SP, 1)
        CFI EndCommon cfiCommon1
        
        EXTERN mymemcpy
        FUNCTION mymemcpy,0202H
        ARGFRAME ISTACK, 2, STACK
        ARGFRAME PSTACK, 0, STACK
        ARGFRAME XSTACK, 19, STACK
        ARGFRAME IOVERLAY, 0, STATIC
        ARGFRAME DOVERLAY, 0, STATIC
        EXTERN radioConfigure
        FUNCTION radioConfigure,0202H
        ARGFRAME ISTACK, 0, STACK
        ARGFRAME PSTACK, 0, STACK
        ARGFRAME XSTACK, 8, STACK
        ARGFRAME IOVERLAY, 0, STATIC
        ARGFRAME DOVERLAY, 0, STATIC
        EXTERN zerofill
        FUNCTION zerofill,0202H
        ARGFRAME ISTACK, 2, STACK
        ARGFRAME PSTACK, 0, STACK
        ARGFRAME XSTACK, 19, STACK
        ARGFRAME IOVERLAY, 0, STATIC
        ARGFRAME DOVERLAY, 0, STATIC
        EXTERN load
        FUNCTION load,0202H
        ARGFRAME ISTACK, 2, STACK
        ARGFRAME PSTACK, 0, STACK
        ARGFRAME XSTACK, 15, STACK
        ARGFRAME IOVERLAY, 0, STATIC
        ARGFRAME DOVERLAY, 0, STATIC
        EXTERN wait_aes
        FUNCTION wait_aes,0202H
        ARGFRAME ISTACK, 2, STACK
        ARGFRAME PSTACK, 0, STACK
        ARGFRAME XSTACK, 15, STACK
        ARGFRAME IOVERLAY, 0, STATIC
        ARGFRAME DOVERLAY, 0, STATIC
        EXTERN setup_hopper
        FUNCTION setup_hopper,0202H
        ARGFRAME ISTACK, 0, STACK
        ARGFRAME PSTACK, 0, STACK
        ARGFRAME XSTACK, 15, STACK
        ARGFRAME IOVERLAY, 0, STATIC
        ARGFRAME DOVERLAY, 0, STATIC
        EXTERN dmaRadioSetup
        FUNCTION dmaRadioSetup,0202H
        ARGFRAME ISTACK, 0, STACK
        ARGFRAME PSTACK, 0, STACK
        ARGFRAME XSTACK, 15, STACK
        ARGFRAME IOVERLAY, 0, STATIC
        ARGFRAME DOVERLAY, 0, STATIC
        EXTERN convU
        FUNCTION convU,0202H
        ARGFRAME ISTACK, 0, STACK
        ARGFRAME PSTACK, 0, STACK
        ARGFRAME XSTACK, 31, STACK
        ARGFRAME IOVERLAY, 0, STATIC
        ARGFRAME DOVERLAY, 0, STATIC
        EXTERN hop
        FUNCTION hop,0202H
        ARGFRAME ISTACK, 0, STACK
        ARGFRAME PSTACK, 0, STACK
        ARGFRAME XSTACK, 9, STACK
        ARGFRAME IOVERLAY, 0, STATIC
        ARGFRAME DOVERLAY, 0, STATIC
        EXTERN reset
        FUNCTION reset,0202H
        ARGFRAME ISTACK, 2, STACK
        ARGFRAME PSTACK, 0, STACK
        ARGFRAME XSTACK, 13, STACK
        ARGFRAME IOVERLAY, 0, STATIC
        ARGFRAME DOVERLAY, 0, STATIC
        EXTERN mymemcmp
        FUNCTION mymemcmp,0202H
        ARGFRAME ISTACK, 0, STACK
        ARGFRAME PSTACK, 0, STACK
        ARGFRAME XSTACK, 15, STACK
        ARGFRAME IOVERLAY, 0, STATIC
        ARGFRAME DOVERLAY, 0, STATIC
        EXTERN `code`
        FUNCTION `code`,0202H
        ARGFRAME ISTACK, 0, STACK
        ARGFRAME PSTACK, 0, STACK
        ARGFRAME XSTACK, 17, STACK
        ARGFRAME IOVERLAY, 0, STATIC
        ARGFRAME DOVERLAY, 0, STATIC
        EXTERN convS
        FUNCTION convS,0202H
        ARGFRAME ISTACK, 0, STACK
        ARGFRAME PSTACK, 0, STACK
        ARGFRAME XSTACK, 31, STACK
        ARGFRAME IOVERLAY, 0, STATIC
        ARGFRAME DOVERLAY, 0, STATIC
        EXTERN halWait
        FUNCTION halWait,0202H
        ARGFRAME ISTACK, 0, STACK
        ARGFRAME PSTACK, 0, STACK
        ARGFRAME XSTACK, 8, STACK
        ARGFRAME IOVERLAY, 0, STATIC
        ARGFRAME DOVERLAY, 0, STATIC
        EXTERN addDF
        FUNCTION addDF,0202H
        ARGFRAME ISTACK, 0, STACK
        ARGFRAME PSTACK, 0, STACK
        ARGFRAME XSTACK, 31, STACK
        ARGFRAME IOVERLAY, 0, STATIC
        ARGFRAME DOVERLAY, 0, STATIC
        EXTERN substractGround
        FUNCTION substractGround,0202H
        ARGFRAME ISTACK, 0, STACK
        ARGFRAME PSTACK, 0, STACK
        ARGFRAME XSTACK, 31, STACK
        ARGFRAME IOVERLAY, 0, STATIC
        ARGFRAME DOVERLAY, 0, STATIC
        EXTERN refreshTheFlash
        FUNCTION refreshTheFlash,0202H
        ARGFRAME ISTACK, 0, STACK
        ARGFRAME PSTACK, 0, STACK
        ARGFRAME XSTACK, 11, STACK
        ARGFRAME IOVERLAY, 0, STATIC
        ARGFRAME DOVERLAY, 0, STATIC
        EXTERN initiateTransfer
        FUNCTION initiateTransfer,0202H
        ARGFRAME ISTACK, 2, STACK
        ARGFRAME PSTACK, 0, STACK
        ARGFRAME XSTACK, 0, STACK
        ARGFRAME IOVERLAY, 0, STATIC
        ARGFRAME DOVERLAY, 0, STATIC
        EXTERN delta
        EXTERN dmaConfig
        EXTERN flashCallback
        FUNCTION flashCallback,0602H
        EXTERN mdm_rate1
        EXTERN perRssiOffset
        EXTERN radioPktBuffer
        EXTERN radioPktBufferRx
        EXTERN radioPktBufferTx

// E:\1500V_Test2\ED\code\AndStackED\source\main.c
//    1 /*==== DECLARATION CONTROL ===================================================*/
//    2 /*==== INCLUDES ==============================================================*/
//    3 
//    4 #include "hal_main.h"

        ASEGN SFR_AN:DATA:NOROOT,08fH
// unsigned char volatile __sfr P0INP
P0INP:
        DS 1

        ASEGN SFR_AN:DATA:NOROOT,090H
// union <unnamed> volatile __sfr _A_P1
_A_P1:
        DS 1

        ASEGN SFR_AN:DATA:NOROOT,091H
// unsigned char volatile __sfr RFIM
RFIM:
        DS 1

        ASEGN SFR_AN:DATA:NOROOT,09aH
// unsigned char volatile __sfr IEN2
IEN2:
        DS 1

        ASEGN SFR_AN:DATA:NOROOT,09bH
// unsigned char volatile __sfr S1CON
S1CON:
        DS 1

        ASEGN SFR_AN:DATA:NOROOT,0a8H
// union <unnamed> volatile __sfr _A_IEN0
_A_IEN0:
        DS 1

        ASEGN SFR_AN:DATA:NOROOT,0abH
// unsigned char volatile __sfr FWT
FWT:
        DS 1

        ASEGN SFR_AN:DATA:NOROOT,0adH
// unsigned char volatile __sfr FADDRH
FADDRH:
        DS 1

        ASEGN SFR_AN:DATA:NOROOT,0aeH
// unsigned char volatile __sfr FCTL
FCTL:
        DS 1

        ASEGN SFR_AN:DATA:NOROOT,0b4H
// unsigned char volatile __sfr ADCCON1
ADCCON1:
        DS 1

        ASEGN SFR_AN:DATA:NOROOT,0b6H
// unsigned char volatile __sfr ADCCON3
ADCCON3:
        DS 1

        ASEGN SFR_AN:DATA:NOROOT,0b8H
// union <unnamed> volatile __sfr _A_IEN1
_A_IEN1:
        DS 1

        ASEGN SFR_AN:DATA:NOROOT,0baH
// unsigned char volatile __sfr ADCL
ADCL:
        DS 1

        ASEGN SFR_AN:DATA:NOROOT,0bbH
// unsigned char volatile __sfr ADCH
ADCH:
        DS 1

        ASEGN SFR_AN:DATA:NOROOT,0bcH
// unsigned char volatile __sfr RNDL
RNDL:
        DS 1

        ASEGN SFR_AN:DATA:NOROOT,0bdH
// unsigned char volatile __sfr RNDH
RNDH:
        DS 1

        ASEGN SFR_AN:DATA:NOROOT,0beH
// unsigned char volatile __sfr SLEEP
SLEEP:
        DS 1

        ASEGN SFR_AN:DATA:NOROOT,0c6H
// unsigned char volatile __sfr CLKCON
CLKCON:
        DS 1

        ASEGN SFR_AN:DATA:NOROOT,0c9H
// unsigned char volatile __sfr WDCTL
WDCTL:
        DS 1

        ASEGN SFR_AN:DATA:NOROOT,0cbH
// unsigned char volatile __sfr T3CTL
T3CTL:
        DS 1

        ASEGN SFR_AN:DATA:NOROOT,0ccH
// unsigned char volatile __sfr T3CCTL0
T3CCTL0:
        DS 1

        ASEGN SFR_AN:DATA:NOROOT,0cdH
// unsigned char volatile __sfr T3CC0
T3CC0:
        DS 1

        ASEGN SFR_AN:DATA:NOROOT,0ceH
// unsigned char volatile __sfr T3CCTL1
T3CCTL1:
        DS 1

        ASEGN SFR_AN:DATA:NOROOT,0cfH
// unsigned char volatile __sfr T3CC1
T3CC1:
        DS 1

        ASEGN SFR_AN:DATA:NOROOT,0d6H
// unsigned char volatile __sfr DMAARM
DMAARM:
        DS 1

        ASEGN SFR_AN:DATA:NOROOT,0daH
// unsigned char volatile __sfr T1CC0L
T1CC0L:
        DS 1

        ASEGN SFR_AN:DATA:NOROOT,0dbH
// unsigned char volatile __sfr T1CC0H
T1CC0H:
        DS 1

        ASEGN SFR_AN:DATA:NOROOT,0e1H
// unsigned char volatile __sfr RFST
RFST:
        DS 1

        ASEGN SFR_AN:DATA:NOROOT,0e2H
// unsigned char volatile __sfr T1CNTL
T1CNTL:
        DS 1

        ASEGN SFR_AN:DATA:NOROOT,0e3H
// unsigned char volatile __sfr T1CNTH
T1CNTH:
        DS 1

        ASEGN SFR_AN:DATA:NOROOT,0e4H
// unsigned char volatile __sfr T1CTL
T1CTL:
        DS 1

        ASEGN SFR_AN:DATA:NOROOT,0e5H
// unsigned char volatile __sfr T1CCTL0
T1CCTL0:
        DS 1

        ASEGN SFR_AN:DATA:NOROOT,0e9H
// unsigned char volatile __sfr RFIF
RFIF:
        DS 1

        ASEGN SFR_AN:DATA:NOROOT,0f1H
// unsigned char volatile __sfr PERCFG
PERCFG:
        DS 1

        ASEGN SFR_AN:DATA:NOROOT,0f2H
// unsigned char volatile __sfr ADCCFG
ADCCFG:
        DS 1

        ASEGN SFR_AN:DATA:NOROOT,0f3H
// unsigned char volatile __sfr P0SEL
P0SEL:
        DS 1

        ASEGN SFR_AN:DATA:NOROOT,0f4H
// unsigned char volatile __sfr P1SEL
P1SEL:
        DS 1

        ASEGN SFR_AN:DATA:NOROOT,0f5H
// unsigned char volatile __sfr P2SEL
P2SEL:
        DS 1

        ASEGN SFR_AN:DATA:NOROOT,0fdH
// unsigned char volatile __sfr P0DIR
P0DIR:
        DS 1

        ASEGN SFR_AN:DATA:NOROOT,0feH
// unsigned char volatile __sfr P1DIR
P1DIR:
        DS 1
//    5 #include "main.h"
//    6 #include "parameter_block.h"
//    7 #include "commands.h"
//    8 //#include <stdio.h>
//    9 //#include <stdlib.h>
//   10 //#include <string.h>
//   11 
//   12 #define MKS_IN_TICK     500
//   13 #define TICKS_IN_SEC    2000
//   14 #define TICKS_IN_MS     2
//   15 /*
//   16 #define MKS_IN_TICK     200
//   17 #define TICKS_IN_SEC    5000
//   18 #define TICKS_IN_MS     5
//   19 */
//   20 //UINT32  _freq         = FREQUENCY_FCC_CC2511;

        RSEG XDATA_I:XDATA:NOROOT(0)
        DATA
//   21 INT16  _slot         = ( 40 * TICKS_IN_MS );
_slot:
        DS 2
        REQUIRE `?<Initializer for _slot>`
        REQUIRE __INIT_XDATA_I

        RSEG XDATA_I:XDATA:NOROOT(0)
        DATA
//   22 INT16  _join_slot    = ( 24 * TICKS_IN_MS );
_join_slot:
        DS 2
        REQUIRE `?<Initializer for _join_slot>`
        REQUIRE __INIT_XDATA_I
//   23 //#define  _slot         ( 40 * TICKS_IN_MS )
//   24 //#define  _join_slot    ( 24 * TICKS_IN_MS )

        RSEG XDATA_I:XDATA:NOROOT(0)
        DATA
//   25 INT16  _gw_delay     = ( 30 * TICKS_IN_MS );
_gw_delay:
        DS 2
        REQUIRE `?<Initializer for _gw_delay>`
        REQUIRE __INIT_XDATA_I

        RSEG XDATA_I:XDATA:NOROOT(0)
        DATA
//   26 INT16  _loop_delay   = ( 40 * TICKS_IN_MS );
_loop_delay:
        DS 2
        REQUIRE `?<Initializer for _loop_delay>`
        REQUIRE __INIT_XDATA_I
//   27 //#define  _gw_delay      ( 30 * TICKS_IN_MS )
//   28 //#define  _loop_delay     ( 40 * TICKS_IN_MS )

        RSEG XDATA_I:XDATA:NOROOT(0)
        DATA
//   29 BYTE    _datarate     = DATA_RATE_4_CC2511;
_datarate:
        DS 1
        REQUIRE `?<Initializer for _datarate>`
        REQUIRE __INIT_XDATA_I
//   30 
//   31 //#define _mppCycle            ( TICKS_IN_SEC / 16 ) 
//   32 #define _mppCycle            ( 60 * TICKS_IN_MS ) 
//   33 #define _dogFeeding          ( TICKS_IN_SEC / 16 )
//   34 #define _adjustFrequency     ( (UINT16)TICKS_IN_SEC * 2 )
//   35 #define _firstAdcMeasurement ( TICKS_IN_SEC / 50 )
//   36 //#define _adcMeasurement      ( TICKS_IN_SEC / 100 )
//   37 #define _adcMeasurement      ( 4 * TICKS_IN_MS )
//   38 #define _calibrationDelay    ( TICKS_IN_MS  )
//   39 
//   40 //void configureAdcs(void);
//   41 
//   42 //void feedTheDog(void);
//   43 //BYTE clearAndHop( BYTE p );
//   44 void tickWait(BYTE wait);
//   45 void rc(void);
//   46 void prepareData(void);
//   47 void sendData(BYTE *buffer, BOOL is500 );
//   48 void armAdcs(void);
//   49 void readNextValue(void);
//   50 void parseGWPackage(void);
//   51 //void calibrate(void);
//   52 void computeADCs(BOOL timeout, BOOL accumulateEnergy);
//   53 void prepareJoinRequest(void);
//   54 void prepareScaling(void);
//   55 //void prepareFlashCheck(void);
//   56 void setup500( BOOL flag );
//   57 BYTE *nextSlot(void);
//   58 void switchTo255(void);
//   59 
//   60 void parseCommands(BYTE l);
//   61 void setByte( BYTE reg, BYTE val );
//   62 
//   63 extern void flashCallback(void);
//   64 extern void setup_hopper(BYTE curch);
//   65 extern void hop(void);
//   66 
//   67 extern void wait_aes(void);
//   68 extern void load(const unsigned char what, char *ptr);
//   69 extern void code(    unsigned char what, unsigned char size,  char *from, char *to );
//   70 //extern BOOL initiateTransfer(BYTE *ptr, BYTE *addr, UINT16 len);
//   71 extern BOOL initiateTransfer(BYTE *ptr, BYTE *addr, BYTE len);
//   72 //extern void writeTheLatest(BYTE *ptr, BYTE len);
//   73 extern BOOL readTheLatest( BYTE *ptr, BYTE len);
//   74 
//   75 //#ifdef MidString
//   76 //void compute98(void);
//   77 //#endif
//   78 
//   79 #define loadKey( key )                  { load( 0x04, key );     wait_aes(); }
//   80 #define loadIV(  iv )                   { load( 0x06, iv  );     wait_aes(); }
//   81 #define encode( size,  from, to )       code( 0x00, size, from, to );
//   82 #define decode( size,  from, to )       code( 0x02, size, from, to );
//   83 
//   84 // must be even

        RSEG XDATA_Z:XDATA:NOROOT(0)
//   85 ParameterBlock page;
page:
        DS 242
        REQUIRE __INIT_XDATA_Z
//   86 //float energy       = 0.0;
//   87 //float deltaEnergy  = 0.0;

        RSEG XDATA_Z:XDATA:NOROOT(0)
//   88 BYTE *base_ptr = NULL;
base_ptr:
        DS 2
        REQUIRE __INIT_XDATA_Z
//   89 
//   90 //#define PAGESIZE 240
//   91 #define PAGESIZE 242
//   92 #define PAGEADDR 0x5C00
//   93 
//   94 //#define ENERGY_WRITE_LIMIT   ((BYTE *) (PAGEADDR + 0x3F0) )
//   95 #ifdef MidString 
//   96     #define KE (1E-3*20.0*1E-3*0.125 / 3600.0)
//   97 #else
//   98     #define KE (1E-3*2.0*1E-3*0.125  / 3600.0)
//   99 #endif

        RSEG XDATA_I:XDATA:NOROOT(0)
        DATA
//  100 BYTE  search_stat = 2;
search_stat:
        DS 1
        REQUIRE `?<Initializer for search_stat>`
        REQUIRE __INIT_XDATA_I
//  101 

        RSEG XDATA_Z:XDATA:NOROOT(0)
//  102 float invVref0 = 0;
invVref0:
        DS 4
        REQUIRE __INIT_XDATA_Z

        RSEG XDATA_Z:XDATA:NOROOT(0)
//  103 INT8 theRealOffset  = 0;
theRealOffset:
        DS 1
        REQUIRE __INIT_XDATA_Z
//  104 
//  105 /*==== PUBLIC FUNCTIONS ======================================================*/
//  106 #define BUFFER_SIZE 8
//  107 #define BUFFER_MASK 0x7    
//  108 #define N_CHANNELS  9
//  109 

        RSEG XDATA_Z:XDATA:NOROOT(0)
//  110 UINT16 adcBuf  [ N_CHANNELS ][ BUFFER_SIZE    ];
adcBuf:
        DS 144
        REQUIRE __INIT_XDATA_Z

        RSEG XDATA_Z:XDATA:NOROOT(0)
//  111 INT32  adcs[     N_CHANNELS ];
adcs:
        DS 36
        REQUIRE __INIT_XDATA_Z

        RSEG XDATA_Z:XDATA:NOROOT(0)
//  112 UINT16 adcs16[   N_CHANNELS ];
adcs16:
        DS 18
        REQUIRE __INIT_XDATA_Z
//  113 

        RSEG XDATA_Z:XDATA:NOROOT(0)
//  114 UINT16 adcsTemp[ N_CHANNELS ];
adcsTemp:
        DS 18
        REQUIRE __INIT_XDATA_Z

        RSEG XDATA_Z:XDATA:NOROOT(0)
//  115 BYTE tempAdcsCount = 0;
tempAdcsCount:
        DS 1
        REQUIRE __INIT_XDATA_Z
//  116 
//  117 extern BYTE mdm_rate1[6];
//  118 
//  119 UINT16            

        RSEG XDATA_Z:XDATA:NOROOT(0)
//  120        ticks2ProcessCmd = 0,       
ticks2ProcessCmd:
        DS 2
        REQUIRE __INIT_XDATA_Z

        RSEG XDATA_Z:XDATA:NOROOT(0)
//  121        cmdCount = 0,
cmdCount:
        DS 2
        REQUIRE __INIT_XDATA_Z

        RSEG XDATA_I:XDATA:NOROOT(0)
        DATA
//  122        lastCycle   = (40 * TICKS_IN_MS * 21),
lastCycle:
        DS 2
        REQUIRE `?<Initializer for lastCycle>`
        REQUIRE __INIT_XDATA_I

        RSEG XDATA_I:XDATA:NOROOT(0)
        DATA
//  123        cyclesTo500 = 120, cyclesTo10 = 220, cyclesToStep500Channel = 20, cycles2Step10Channel = 30,
cyclesTo500:
        DS 2
        REQUIRE `?<Initializer for cyclesTo500>`
        REQUIRE __INIT_XDATA_I

        RSEG XDATA_I:XDATA:NOROOT(0)
        DATA
cyclesTo10:
        DS 2
        REQUIRE `?<Initializer for cyclesTo10>`
        REQUIRE __INIT_XDATA_I

        RSEG XDATA_I:XDATA:NOROOT(0)
        DATA
cyclesToStep500Channel:
        DS 2
        REQUIRE `?<Initializer for cyclesToStep500Channel>`
        REQUIRE __INIT_XDATA_I

        RSEG XDATA_I:XDATA:NOROOT(0)
        DATA
cycles2Step10Channel:
        DS 2
        REQUIRE `?<Initializer for cycles2Step10Channel>`
        REQUIRE __INIT_XDATA_I

        RSEG XDATA_I:XDATA:NOROOT(0)
        DATA
//  124        cycles2SoftKick = 8, cycles2HardKick = 80, cyclesFromStart = 0;
cycles2SoftKick:
        DS 2
        REQUIRE `?<Initializer for cycles2SoftKick>`
        REQUIRE __INIT_XDATA_I

        RSEG XDATA_I:XDATA:NOROOT(0)
        DATA
cycles2HardKick:
        DS 2
        REQUIRE `?<Initializer for cycles2HardKick>`
        REQUIRE __INIT_XDATA_I

        RSEG XDATA_Z:XDATA:NOROOT(0)
cyclesFromStart:
        DS 2
        REQUIRE __INIT_XDATA_Z

        RSEG XDATA_Z:XDATA:NOROOT(0)
//  125 UINT16 temperatureProtectionDelay, decodeDelay;
temperatureProtectionDelay:
        DS 2
        REQUIRE __INIT_XDATA_Z

        RSEG XDATA_Z:XDATA:NOROOT(0)
decodeDelay:
        DS 2
        REQUIRE __INIT_XDATA_Z
//  126 

        RSEG XDATA_Z:XDATA:NOROOT(0)
//  127 BYTE   curChannel = 0,  curBunch = 0,  /*maxBunch = 0,*/        
curChannel:
        DS 1
        REQUIRE __INIT_XDATA_Z

        RSEG XDATA_Z:XDATA:NOROOT(0)
curBunch:
        DS 1
        REQUIRE __INIT_XDATA_Z

        RSEG XDATA_Z:XDATA:NOROOT(0)
//  128        bufferCount = 0, adcCount = 0,  reportScaling = 0,       joinRequestWasSend = 0,
bufferCount:
        DS 1
        REQUIRE __INIT_XDATA_Z

        RSEG XDATA_Z:XDATA:NOROOT(0)
adcCount:
        DS 1
        REQUIRE __INIT_XDATA_Z

        RSEG XDATA_Z:XDATA:NOROOT(0)
reportScaling:
        DS 1
        REQUIRE __INIT_XDATA_Z

        RSEG XDATA_Z:XDATA:NOROOT(0)
joinRequestWasSend:
        DS 1
        REQUIRE __INIT_XDATA_Z

        RSEG XDATA_Z:XDATA:NOROOT(0)
//  129        resetReason,     theOC,         setOC,
resetReason:
        DS 1
        REQUIRE __INIT_XDATA_Z

        RSEG XDATA_Z:XDATA:NOROOT(0)
theOC:
        DS 1
        REQUIRE __INIT_XDATA_Z

        RSEG XDATA_Z:XDATA:NOROOT(0)
setOC:
        DS 1
        REQUIRE __INIT_XDATA_Z

        RSEG XDATA_Z:XDATA:NOROOT(0)
//  130        reportFlashCheck = 0,           calibrationRepeat = 4,   cyclesToHop = 0, 
reportFlashCheck:
        DS 1
        REQUIRE __INIT_XDATA_Z

        RSEG XDATA_I:XDATA:NOROOT(0)
        DATA
calibrationRepeat:
        DS 1
        REQUIRE `?<Initializer for calibrationRepeat>`
        REQUIRE __INIT_XDATA_I

        RSEG XDATA_Z:XDATA:NOROOT(0)
cyclesToHop:
        DS 1
        REQUIRE __INIT_XDATA_Z

        RSEG XDATA_Z:XDATA:NOROOT(0)
//  131        bunchCount = 0,                 got_gw = 0,              isOnTestStand = 0,
bunchCount:
        DS 1
        REQUIRE __INIT_XDATA_Z

        RSEG XDATA_Z:XDATA:NOROOT(0)
got_gw:
        DS 1
        REQUIRE __INIT_XDATA_Z

        RSEG XDATA_Z:XDATA:NOROOT(0)
isOnTestStand:
        DS 1
        REQUIRE __INIT_XDATA_Z

        RSEG XDATA_I:XDATA:NOROOT(0)
        DATA
//  132        oscWhatToWaitFor = SetOscLowCurrentOnlyDelay,
oscWhatToWaitFor:
        DS 1
        REQUIRE `?<Initializer for oscWhatToWaitFor>`
        REQUIRE __INIT_XDATA_I

        RSEG XDATA_I:XDATA:NOROOT(0)
        DATA
//  133        ocShortCircuitLimit = 255; //, page2clear = 255;
ocShortCircuitLimit:
        DS 1
        REQUIRE `?<Initializer for ocShortCircuitLimit>`
        REQUIRE __INIT_XDATA_I
//  134 
//  135 // Pointer to memory location tracking whether module can turn on,                                              
//  136 // and the three acceptable values. Module turning off because of                                               
//  137 // temperature is not tracked.  Pointer to memory location is                                                   
//  138 // constant.                                                                                                    

        RSEG XDATA_I:XDATA:NOROOT(0)
        DATA
//  139 BYTE * const ModuleOffRememberedPtr = ((BYTE *) 0xFFFD);
ModuleOffRememberedPtr:
        DS 2
        REQUIRE `?<Initializer for ModuleOffRememberedPtr>`
        REQUIRE __INIT_XDATA_I

        RSEG XDATA_I:XDATA:NOROOT(0)
        DATA
//  140 BYTE ModuleStatusOff = 0xE7;
ModuleStatusOff:
        DS 1
        REQUIRE `?<Initializer for ModuleStatusOff>`
        REQUIRE __INIT_XDATA_I

        RSEG XDATA_I:XDATA:NOROOT(0)
        DATA
//  141 BYTE ModuleStatusOffFetFailure = 0x7E;
ModuleStatusOffFetFailure:
        DS 1
        REQUIRE `?<Initializer for ModuleStatusOffFetFailure>`
        REQUIRE __INIT_XDATA_I

        RSEG XDATA_Z:XDATA:NOROOT(0)
//  142 BYTE ModuleStatusCanTurnOn = 0x00;
ModuleStatusCanTurnOn:
        DS 1
        REQUIRE __INIT_XDATA_Z
//  143 

        RSEG XDATA_Z:XDATA:NOROOT(0)
//  144 BOOL   enable2SendData  = FALSE,       txDisabled = FALSE,                    alignMPP = TRUE,     //cleanTxBuffer   = FALSE,
enable2SendData:
        DS 1
        REQUIRE __INIT_XDATA_Z

        RSEG XDATA_Z:XDATA:NOROOT(0)
txDisabled:
        DS 1
        REQUIRE __INIT_XDATA_Z

        RSEG XDATA_I:XDATA:NOROOT(0)
        DATA
alignMPP:
        DS 1
        REQUIRE `?<Initializer for alignMPP>`
        REQUIRE __INIT_XDATA_I

        RSEG XDATA_Z:XDATA:NOROOT(0)
//  145        from_flash = FALSE,             /*zeroPackageWasNotReceived = FALSE,*/ turnOnFlag = FALSE,  isCalibrationPackage = FALSE,
from_flash:
        DS 1
        REQUIRE __INIT_XDATA_Z

        RSEG XDATA_Z:XDATA:NOROOT(0)
turnOnFlag:
        DS 1
        REQUIRE __INIT_XDATA_Z

        RSEG XDATA_Z:XDATA:NOROOT(0)
isCalibrationPackage:
        DS 1
        REQUIRE __INIT_XDATA_Z

        RSEG XDATA_Z:XDATA:NOROOT(0)
//  146        was_listening = FALSE, rcgen = FALSE,
was_listening:
        DS 1
        REQUIRE __INIT_XDATA_Z

        RSEG XDATA_Z:XDATA:NOROOT(0)
rcgen:
        DS 1
        REQUIRE __INIT_XDATA_Z

        RSEG XDATA_Z:XDATA:NOROOT(0)
//  147        ch255 = FALSE,                  packagePrepared = FALSE;//,                  real_cw_mode = FALSE;
ch255:
        DS 1
        REQUIRE __INIT_XDATA_Z

        RSEG XDATA_Z:XDATA:NOROOT(0)
packagePrepared:
        DS 1
        REQUIRE __INIT_XDATA_Z

        RSEG XDATA_I:XDATA:NOROOT(0)
        DATA
//  148 INT16 gnd_shift = -600;
gnd_shift:
        DS 2
        REQUIRE `?<Initializer for gnd_shift>`
        REQUIRE __INIT_XDATA_I
//  149 
//  150 //UINT16 Vout98 = 0; 
//  151 //INT16  Cur98  = 0;
//  152 

        RSEG XDATA_Z:XDATA:NOROOT(0)
//  153 UINT32 utc = 0;
utc:
        DS 4
        REQUIRE __INIT_XDATA_Z

        RSEG XDATA_Z:XDATA:NOROOT(0)
//  154 UINT16 ms  = 0;
ms:
        DS 2
        REQUIRE __INIT_XDATA_Z
//  155 //UINT16 ticks2Prepare = 0;
//  156 

        RSEG XDATA_Z:XDATA:NOROOT(0)
//  157 UINT32 utcLast = 0;
utcLast:
        DS 4
        REQUIRE __INIT_XDATA_Z

        RSEG XDATA_Z:XDATA:NOROOT(0)
//  158 UINT16 msLast = 0,  processingTime, pt;
msLast:
        DS 2
        REQUIRE __INIT_XDATA_Z

        RSEG XDATA_Z:XDATA:NOROOT(0)
processingTime:
        DS 2
        REQUIRE __INIT_XDATA_Z

        RSEG XDATA_Z:XDATA:NOROOT(0)
pt:
        DS 2
        REQUIRE __INIT_XDATA_Z
//  159 

        RSEG XDATA_Z:XDATA:NOROOT(0)
//  160 UINT16 mdmcfg4_cycles = 0;
mdmcfg4_cycles:
        DS 2
        REQUIRE __INIT_XDATA_Z
//  161 
//  162 // variables to control turning module on/ "track" FET failures                                             

        RSEG XDATA_Z:XDATA:NOROOT(0)
//  163 static BOOL fetFailure = FALSE; // static variable indicating if a FET failure recognized
fetFailure:
        DS 1
        REQUIRE __INIT_XDATA_Z

        RSEG XDATA_I:XDATA:NOROOT(0)
        DATA
//  164 BOOL checkForFETFailure = TRUE; // once FET failure recognized, no longer check unless restart
checkForFETFailure:
        DS 1
        REQUIRE `?<Initializer for checkForFETFailure>`
        REQUIRE __INIT_XDATA_I
//  165 // netValue made global so fetFailure condition can access/change reported "status"

        RSEG XDATA_I:XDATA:NOROOT(0)
        DATA
//  166 static UINT16 netValue = MainNetValueStandard;
netValue:
        DS 2
        REQUIRE `?<Initializer for netValue>`
        REQUIRE __INIT_XDATA_I
//  167 
//  168 static __xdata_rom const UINT16 cyclesDefaults[] = {180, 30, 3, 4, 8, 80};

        RSEG XDATA_ROM_C:CONST:REORDER:NOROOT(0)
        DATA
//  169 static __xdata_rom const BYTE default_pb[] = {
default_pb:
        DB 170, 170, 0, 0, 255, 255, 44, 118, 64, 2, 39, 68, 113, 170, 53, 186
        DB 211, 188, 99, 61, 145, 237, 28, 63, 0, 0, 117, 195, 0, 0, 28, 69
        DB 149, 191, 214, 52, 0, 0, 146, 66, 184, 30, 221, 65, 0, 192, 90, 197
        DB 225, 122, 200, 65, 0, 0, 0, 0, 0, 0, 248, 64, 0, 128, 14, 196, 143
        DB 194, 199, 65, 0, 0, 107, 195, 82, 184, 222, 62, 0, 64, 28, 68, 205
        DB 204, 252, 64, 0, 0, 5, 196, 195, 245, 248, 64, 0, 128, 18, 196, 65
        DB 78, 68, 83, 0, 108, 97, 114, 65, 117, 103, 117, 115, 116, 0, 7, 65
        DB 117, 103, 117, 115, 116, 0, 7, 65, 117, 103, 117, 115, 116, 0, 7, 32
        DB 78, 188, 2, 80, 0, 0, 0, 48, 117, 240, 0, 176, 4, 248, 127, 0, 0, 0
        DB 0, 255, 255, 255, 255, 255, 255, 240, 240, 0, 0, 0, 170, 255, 120
        DB 128, 77, 255, 203, 72, 102, 84, 203, 72, 102, 84, 203, 72, 102, 84
        DB 172, 197, 167, 55, 23, 183, 81, 56, 1, 1, 100, 100, 255, 2, 1, 255
        DB 255, 23, 1, 164, 154, 56, 255, 40, 0, 30, 0, 3, 0, 4, 0, 8, 0, 80, 0
        DB 63, 8, 241, 0, 241, 0, 255, 137, 255, 255, 25, 70, 110, 100, 90, 10
        DB 7, 11, 60, 10, 24, 252, 10, 20, 1, 0, 0, 0, 85, 85
//  170 /*0xAA, 0xAA, 0x00, 0x00, 0xFF, 0xFF, 0x08, 0x76, 0x40, 0x03, 0x62, 0x7B, 0x71, 0xAA, 0x35, 0xBA, 
//  171 0xD3, 0xBC, 0x63, 0x3D, 0x91, 0xED, 0x1C, 0x3F, 0x00, 0x00, 0x34, 0xC3, 0x00, 0x00, 0x1C, 0x45, 
//  172 0x95, 0xBF, 0xD6, 0x34, 0x00, 0x00, 0x92, 0x42, 0x85, 0xEB, 0x5D, 0x41, 0x00, 0xC0, 0xD0, 0xC4, 
//  173 0x9A, 0x99, 0x49, 0x41, 0x00, 0x00, 0x00, 0x00, 0x8F, 0xC2, 0xFD, 0x40, 0x00, 0x00, 0x12, 0xC4,
//  174 0x0A, 0xD7, 0x47, 0x41, 0x00, 0x00, 0x00, 0x00, 0x52, 0xB8, 0xDE, 0x3E, 0x00, 0x40, 0x1C, 0x44, 
//  175 0xEC, 0x51, 0xF8, 0x40, 0x00, 0xC0, 0x13, 0xC4, 0xF0, 0xF0, 0x18, 0xFC, 0x00, 0x00, 0x00, 0x64, 
//  176 0x41, 0x4E, 0x44, 0x53, 0x00, 0x6C, 0x61, 0x72, 0x41, 0x75, 0x67, 0x75, 0x73, 0x74, 0x00, 0x07, 
//  177 0x41, 0x75, 0x67, 0x75, 0x73, 0x74, 0x00, 0x07, 0x41, 0x75, 0x67, 0x75, 0x73, 0x74, 0x00, 0x07, 
//  178 0x00, 0x00, 0x00, 0x00, 0x00, 0x00, 0x00, 0x00, 0x00, 0x00, 0x00, 0x00, 0x00, 0x00, 0x00, 0x00, 
//  179 0x00, 0x00, 0x00, 0x00, 0xFF, 0xFF, 0xFF, 0xFF, 0xFF, 0xFF, 0xFF, 0xFF, 0xFF, 0xFF, 0xFF, 0xFF, 
//  180 0xFF, 0xFF, 0xFF, 0xFF, 0xFE, 0xAE, 0x4C, 0x09, 0x53, 0xAE, 0x4C, 0x09, 0x53, 0xAE, 0x4C, 0x09, 
//  181 0x53, 0xAC, 0xC5, 0xA7, 0x37, 0x17, 0xB7, 0x51, 0x38, 0x01, 0x01, 0xD2, 0x82, 0xFF, 0x02, 0x01, 
//  182 0xFE, 0xFF, 0x17, 0x01, 0xA4, 0x9A, 0x38, 0xFF, 0x28, 0x00, 0x1E, 0x00, 0x03, 0x00, 0x04, 0x00, 
//  183 0x08, 0x00, 0x50, 0x00, 0x3F, 0x08, 0xF1, 0x00, 0xF1, 0x00, 0xFE, 0x89, 0xFF, 0xFF, 0x19, 0xC8, 
//  184 0x6E, 0x64, 0x5A, 0x0A, 0x07, 0x0B, 0x3C, 0x0A, 0x00, 0x00, 0x0A, 0x00, 0x01, 0x00, 0x00, 0x00, 
//  185 0x55, 0x55 */
//  186 // channel 255, ed/gw 0201, std key, bunch 0, netid 0
//  187 /* 0xAA, 0xAA, 0x00, 0x00, 0xFF, 0xFF, 0x2C, 0x76, 0x40, 0x02, 0x27, 0x44, 0x71, 0xAA, 0x35, 0xBA,
//  188 0xD3, 0xBC, 0x63, 0x3D, 0x91, 0xED, 0x1C, 0x3F, 0x00, 0x00, 0x48, 0xC3, 0x00, 0x00, 0x1C, 0x45, 
//  189 0x95, 0xBF, 0xD6, 0x34, 0x00, 0x00, 0x92, 0x42, 0x85, 0xEB, 0x5D, 0x41, 0x00, 0xC0, 0xD0, 0xC4, 
//  190 0x66, 0x66, 0x4A, 0x41, 0x00, 0x00, 0x00, 0x00, 0x8F, 0xC2, 0xFD, 0x40, 0x00, 0x00, 0x12, 0xC4, 
//  191 0x0A, 0xD7, 0x47, 0x41, 0x00, 0x00, 0x00, 0x00, 0x52, 0xB8, 0xDE, 0x3E, 0x00, 0x40, 0x1C, 0x44, 
//  192 0xEC, 0x51, 0xF8, 0x40, 0x00, 0xC0, 0x13, 0xC4, 0x00, 0x00, 0x80, 0x3F, 0x00, 0x00, 0x00, 0x00, 
//  193 0x41, 0x4E, 0x44, 0x53, 0x00, 0x6C, 0x61, 0x72, 0x41, 0x75, 0x67, 0x75, 0x73, 0x74, 0x00, 0x07, 
//  194 0x41, 0x75, 0x67, 0x75, 0x73, 0x74, 0x00, 0x07, 0x41, 0x75, 0x67, 0x75, 0x73, 0x74, 0x00, 0x07, 
//  195 0x00, 0x00, 0x00, 0x00, 0x00, 0x00, 0x00, 0x00, 0x00, 0x00, 0x00, 0x00, 0x00, 0x00, 0x00, 0x00, 
//  196 0x00, 0x00, 0x00, 0x00, 0xFF, 0xFF, 0xFF, 0xFF, 0xFF, 0xFF, 0xF0, 0xF0, 0x00, 0x00, 0x00, 0xAA, 
//  197 0xFF, 0x78, 0x80, 0x4D, 0xFF, 0xCB, 0x48, 0x66, 0x54, 0xCB, 0x48, 0x66, 0x54, 0xCB, 0x48, 0x66, 
//  198 0x54, 0xAC, 0xC5, 0xA7, 0x37, 0x17, 0xB7, 0x51, 0x38, 0x01, 0x01, 0x64, 0x64, 0xFF, 0x02, 0x01, 
//  199 0xFF, 0xFF, 0x17, 0x01, 0xA4, 0x9A, 0x38, 0xFF, 0x28, 0x00, 0x1E, 0x00, 0x03, 0x00, 0x04, 0x00, 
//  200 0x08, 0x00, 0x50, 0x00, 0x3F, 0x08, 0xF1, 0x00, 0xF1, 0x00, 0xFF, 0x89, 0xFF, 0xFF, 0x19, 0xC8, 
//  201 0x6E, 0x64, 0x5A, 0x0A, 0x07, 0x0B, 0x3C, 0x0A, 0x18, 0xFC, 0x0A, 0x00, 0x01, 0x00, 0x00, 0x00, 
//  202 0x55, 0x55 */
//  203 // New in code parameter block 09/15/15, defaults according to manufacturing
//  204 // 1st Line : barrier through dFk[0]
//  205 // 2nd Line : dFk[1] through vrefPolynom[0] (dFk[3] changed)
//  206 // 3rd Line : vrefPolynom[1] through linearK[0][1] (linearK[0][0], [0][1] changed)
//  207 // 4th Line : linearK[1][0] through linearK[2][1] (linearK[1][0], [2][0],[2][1] changed)
//  208 // 5th Line : linearK[3][0] through linearK[4][1] (linearK[3][0], [3][1] changed)
//  209 // 6th Line : linearK[5][0] through linearK[6][1] (all four values changed)
//  210 // 7th Line : curKey[AES_SIZE]  
//  211 // 8th Line : curIV[AES_SIZE] 
//  212 // 9th Line : fetFailureCount through oscLowCurrentOnlyDelay (only oscLowCurrentLimitInmA stayed same)
//  213 // 10th Line: tests[4] through shortCircuitLevel
//  214 // 11th Line: reserved through 3rd byte of utcHigh (did not change the 3 times values)
//  215 // 12th Line: 4th byte of utcHigh through gwAddr  (should oc change?)
//  216 // 13th Line: repeaterChannel through defCyclesToStep10Channel
//  217 // 14th Line: defCycles2SoftKick through ov_startup (changed ov_startup)
//  218 // 15th Line: t_mod_off through vin_switch_off
//  219 // 16th Line: post_barrier
//  220 0xAA, 0xAA, 0x00, 0x00, 0xFF, 0xFF, 0x2C, 0x76, 0x40, 0x02, 0x27, 0x44, 0x71, 0xAA, 0x35, 0xBA,
//  221 0xD3, 0xBC, 0x63, 0x3D, 0x91, 0xED, 0x1C, 0x3F, 0x00, 0x00, 0x75, 0xC3, 0x00, 0x00, 0x1C, 0x45, 
//  222 0x95, 0xBF, 0xD6, 0x34, 0x00, 0x00, 0x92, 0x42, 0xB8, 0x1E, 0xDD, 0x41, 0x00, 0xC0, 0x5A, 0xC5, 
//  223 0xE1, 0x7A, 0xC8, 0x41, 0x00, 0x00, 0x00, 0x00, 0x00, 0x00, 0xF8, 0x40, 0x00, 0x80, 0x0E, 0xC4, 
//  224 0x8F, 0xC2, 0xC7, 0x41, 0x00, 0x00, 0x6B, 0xC3, 0x52, 0xB8, 0xDE, 0x3E, 0x00, 0x40, 0x1C, 0x44, 
//  225 0xCD, 0xCC, 0xFC, 0x40, 0x00, 0x00, 0x05, 0xC4, 0xC3, 0xF5, 0xF8, 0x40, 0x00, 0x80, 0x12, 0xC4, 
//  226 0x41, 0x4E, 0x44, 0x53, 0x00, 0x6C, 0x61, 0x72, 0x41, 0x75, 0x67, 0x75, 0x73, 0x74, 0x00, 0x07, 
//  227 0x41, 0x75, 0x67, 0x75, 0x73, 0x74, 0x00, 0x07, 0x41, 0x75, 0x67, 0x75, 0x73, 0x74, 0x00, 0x07, 
//  228 0x20, 0x4E, 0xBC, 0x02, 0x50, 0x00, 0x00, 0x00, 0x30, 0x75, 0xF0, 0x00, 0xB0, 0x04, 0xF8, 0x7F, 
//  229 0x00, 0x00, 0x00, 0x00, 0xFF, 0xFF, 0xFF, 0xFF, 0xFF, 0xFF, 0xF0, 0xF0, 0x00, 0x00, 0x00, 0xAA, 
//  230 0xFF, 0x78, 0x80, 0x4D, 0xFF, 0xCB, 0x48, 0x66, 0x54, 0xCB, 0x48, 0x66, 0x54, 0xCB, 0x48, 0x66, 
//  231 0x54, 0xAC, 0xC5, 0xA7, 0x37, 0x17, 0xB7, 0x51, 0x38, 0x01, 0x01, 0x64, 0x64, 0xFF, 0x02, 0x01, 
//  232 0xFF, 0xFF, 0x17, 0x01, 0xA4, 0x9A, 0x38, 0xFF, 0x28, 0x00, 0x1E, 0x00, 0x03, 0x00, 0x04, 0x00, 
//  233 0x08, 0x00, 0x50, 0x00, 0x3F, 0x08, 0xF1, 0x00, 0xF1, 0x00, 0xFF, 0x89, 0xFF, 0xFF, 0x19, 0x46, 
//  234 0x6E, 0x64, 0x5A, 0x0A, 0x07, 0x0B, 0x3C, 0x0A, 0x18, 0xFC, 0x0A, 0x14, 0x01, 0x00, 0x00, 0x00, 
//  235 0x55, 0x55
//  236 };
//  237 
//  238 //static INT32 counts1[5] = {0L,0L,0L,0L,0L};
//  239 //static INT32 counts2[5] = {0L,0L,0L,0L,0L};
//  240 

        RSEG XDATA_I:XDATA:NOROOT(0)
        DATA
//  241 SchedulerInterface *si = (SchedulerInterface *)0xF500;
si:
        DS 2
        REQUIRE `?<Initializer for si>`
        REQUIRE __INIT_XDATA_I
//  242 

        RSEG XDATA_Z:XDATA:NOROOT(0)
//  243 static BOOL  *flags;// = si->flags;
flags:
        DS 2
        REQUIRE __INIT_XDATA_Z

        RSEG XDATA_Z:XDATA:NOROOT(0)
//  244 static INT16 *ticks;// = si->ticks;
ticks:
        DS 2
        REQUIRE __INIT_XDATA_Z
//  245 
//  246 //float safe_vin;
//  247 //UINT16 safe_vin_16;
//  248 //UINT16 VinTurnOn_16, VinShutOff_16, VinDisableRadio_16;
//  249 
//  250 #define POWER   1
//  251 #define CURRENT 2
//  252 #define EXT_GND 3
//  253 #define REF     4
//  254 
//  255 #define TINT    7
//  256 #define TEXT    6
//  257 
//  258 #define Iin2    8
//  259 
//  260 /*
//  261 const BYTE  adcChannels[ N_CHANNELS ] = {  
//  262   // Vout  0                                         Pin   1                                        Iout  2      
//  263     ADC_REF_P0_7   | ADC_12_BIT | ADC_AIN1,    ADC_REF_P0_7   | ADC_12_BIT | ADC_AIN2,    ADC_REF_P0_7   | ADC_12_BIT | ADC_AIN3,    
//  264   // Gnd ext 3                                       Ref 4
//  265     ADC_REF_P0_7   | ADC_12_BIT | ADC_AIN4,    ADC_REF_P0_7   | ADC_12_BIT | ADC_AIN6,    
//  266   // Vin  5                                          Text  6                          
//  267     ADC_REF_P0_7   
//  268 | ADC_12_BIT | ADC_AIN0,    ADC_REF_P0_7   | ADC_12_BIT | ADC_AIN5,    
//  269   // Tin 7
//  270     ADC_REF_P0_7   | ADC_12_BIT | ADC_TEMP_SENS
//  271     //ADC_REF_1_25_V | ADC_12_BIT | ADC_TEMP_SENS
//  272 };
//  273 */
//  274 
//  275 //#define MidString - defined in projects
//  276 
//  277 #ifdef MidString
//  278   #define REFERENCE       ADC_REF_AVDD
//  279   #define REFERENCE_PIN   ADC_AIN7
//  280 #else
//  281   #define REFERENCE       ADC_REF_P0_7
//  282   #define REFERENCE_PIN   ADC_AIN6
//  283 #endif
//  284 

        RSEG XDATA_I:XDATA:NOROOT(0)
        DATA
//  285 const BYTE  adcChannels[ N_CHANNELS ] = {  
adcChannels:
        DS 9
        REQUIRE `?<Initializer for adcChannels>`
        REQUIRE __INIT_XDATA_I
//  286   // Vout  0                                         Pin   1                                        Iout  2      
//  287     REFERENCE | ADC_12_BIT | ADC_AIN1,      REFERENCE | ADC_12_BIT | ADC_AIN2,    REFERENCE | ADC_12_BIT | ADC_AIN3,    
//  288   // Gnd ext 3                                       Ref 4
//  289     REFERENCE | ADC_12_BIT | ADC_GND,       REFERENCE | ADC_12_BIT | REFERENCE_PIN,    
//  290   // Vin  5                                          Text  6                          
//  291     REFERENCE | ADC_12_BIT | ADC_AIN0,      REFERENCE | ADC_12_BIT | ADC_AIN5,    
//  292   // Tin 7                                           Iin2 8
//  293     REFERENCE | ADC_12_BIT | ADC_AIN4,       REFERENCE | ADC_12_BIT | ADC_AIN6
//  294 };
//  295 /*
//  296 #else
//  297 const BYTE  adcChannels[ N_CHANNELS ] = {  
//  298   // Vout  0                                        Pin   1                                        Iout  2      
//  299     ADC_REF_P0_7 | ADC_12_BIT | ADC_AIN1,      ADC_REF_P0_7 | ADC_12_BIT | ADC_AIN2,    ADC_REF_P0_7   | ADC_12_BIT | ADC_AIN3,    
//  300   // Gnd ext 3                                      Ref 4
//  301     ADC_REF_P0_7 | ADC_12_BIT | ADC_AIN4,      ADC_REF_P0_7 | ADC_12_BIT | ADC_AIN6,    
//  302   // Vin  5                                         Text  6                          
//  303     ADC_REF_P0_7 | ADC_12_BIT | ADC_AIN0,      ADC_REF_P0_7 | ADC_12_BIT | ADC_AIN5,    
//  304   // Tin 7                                          Iin2 8 
//  305     ADC_REF_P0_7 | ADC_12_BIT | ADC_TEMP_SENS, ADC_REF_P0_7 | ADC_12_BIT | ADC_AIN7,
//  306   // int Gnd. 9                                     int Ref 10
//  307     ADC_REF_P0_7 | ADC_12_BIT | ADC_GND,       ADC_REF_P0_7 | ADC_12_BIT | ADC_REF
//  308 };
//  309 #endif
//  310 */
//  311 
//  312                                    // Vout Pin Iout           Vin Text  Iout+ Iin2  //  IntGnd  IntRef

        RSEG XDATA_I:XDATA:NOROOT(0)
        DATA
//  313 const BYTE indices[ N_CHANNELS ] = { 0,     1,  2, 0xFF, 0xFF, 3, 0xFF, 6,    5};   //,    0xFF }; //,   0xFF   };
indices:
        DS 9
        REQUIRE `?<Initializer for indices>`
        REQUIRE __INIT_XDATA_I
//  314 //const BYTE indices[ N_CHANNELS ] = { 0,     1,  2, 0xFF, 0xFF, 3, 0xFF, 0xFF,  5};   //,    0xFF }; //,   0xFF   };

        RSEG XDATA_Z:XDATA:NOROOT(0)
//  315 INT16  lastOff = 0, lastRssi = 0; //, delta = 0;
lastOff:
        DS 2
        REQUIRE __INIT_XDATA_Z

        RSEG XDATA_Z:XDATA:NOROOT(0)
lastRssi:
        DS 2
        REQUIRE __INIT_XDATA_Z
//  316 extern INT32 delta;
//  317 

        RSEG XDATA_I:XDATA:NOROOT(0)
        DATA
//  318 const char theKey[ 2*AES_SIZE ] = { 'A', 'N', 'D', 'S',  0,  'l', 'a', 'r', 'A', 'u', 'g', 'u', 's', 't',  0,   7 ,
theKey:
        DS 32
        REQUIRE `?<Initializer for theKey>`
        REQUIRE __INIT_XDATA_I
//  319                                     'A', 'u', 'g', 'u', 's', 't',  0,   7,  'A', 'u', 'g', 'u', 's', 't',  0,   7 };
//  320 /******************************************************************************/
//  321 /*
//  322 void atomicChange( BYTE idx, INT16 val ){
//  323     INT_GLOBAL_ENABLE( INT_OFF ); 
//  324         ticks[ idx ] = val;
//  325     INT_GLOBAL_ENABLE( INT_ON ); 
//  326 }
//  327 */
//  328 #define atomicChange( idx, val ) ticks[idx]=val
//  329 

        RSEG XDATA_Z:XDATA:NOROOT(0)
//  330 BYTE nextKey[ AES_SIZE ];
nextKey:
        DS 16
        REQUIRE __INIT_XDATA_Z

        RSEG XDATA_Z:XDATA:NOROOT(0)
//  331 BYTE nextIV [ AES_SIZE ];
nextIV:
        DS 16
        REQUIRE __INIT_XDATA_Z
//  332 
//  333 void savePB();
//  334 
//  335 // 12/27/2016 static const float DEF_CURRENT_MULTYPLIER = 3.93; //7.93; //5.536;
//  336 

        RSEG XDATA_Z:XDATA:NOROOT(0)
//  337 static float k_oc2timer = 0.0;
k_oc2timer:
        DS 4
        REQUIRE __INIT_XDATA_Z

        RSEG NEAR_CODE:CODE:NOROOT(0)
//  338 BYTE oc2timer(BYTE oc){ 
oc2timer:
        CFI Block cfiBlock0 Using cfiCommon0
        CFI Function oc2timer
        MOV     A,#-0x13
        LCALL   ?FUNC_ENTER_XDATA
        CFI DPH0 load(1, XDATA, add(CFA_XSP16, literal(-1)))
        CFI DPL0 load(1, XDATA, add(CFA_XSP16, literal(-2)))
        CFI ?RET_HIGH load(1, XDATA, add(CFA_XSP16, literal(-3)))
        CFI ?RET_LOW load(1, XDATA, add(CFA_XSP16, literal(-4)))
        CFI R7 load(1, XDATA, add(CFA_XSP16, literal(-5)))
        CFI V11 load(1, XDATA, add(CFA_XSP16, literal(-6)))
        CFI V10 load(1, XDATA, add(CFA_XSP16, literal(-7)))
        CFI V9 load(1, XDATA, add(CFA_XSP16, literal(-8)))
        CFI V8 load(1, XDATA, add(CFA_XSP16, literal(-9)))
        CFI V7 load(1, XDATA, add(CFA_XSP16, literal(-10)))
        CFI V6 load(1, XDATA, add(CFA_XSP16, literal(-11)))
        CFI V5 load(1, XDATA, add(CFA_XSP16, literal(-12)))
        CFI V4 load(1, XDATA, add(CFA_XSP16, literal(-13)))
        CFI V3 load(1, XDATA, add(CFA_XSP16, literal(-14)))
        CFI V2 load(1, XDATA, add(CFA_XSP16, literal(-15)))
        CFI V1 load(1, XDATA, add(CFA_XSP16, literal(-16)))
        CFI V0 load(1, XDATA, add(CFA_XSP16, literal(-17)))
        CFI VB load(1, XDATA, add(CFA_XSP16, literal(-18)))
        CFI R6 load(1, XDATA, add(CFA_XSP16, literal(-19)))
        CFI CFA_SP SP+0
        CFI CFA_XSP16 add(XSP16, 19)
        ; Saved register size: 19
        ; Auto size: 0
        MOV     ?V0 + 0,R1
//  339 UINT16 val;
//  340 #ifdef MidString
//  341   if( oc > ocShortCircuitLimit ) oc = ocShortCircuitLimit;  // Short Circuit protection.
//  342 #endif
//  343   // 12/27/2016 if( k_oc2timer < 1.0 ) k_oc2timer = DEF_CURRENT_MULTYPLIER / (page.linearK[2][0]-4.0);
//  344   // 04/06/2017 if( k_oc2timer < 1.0 ) k_oc2timer =  7.6 / (page.linearK[2][0]);
//  345   if( k_oc2timer < 1.0 ) 
        MOV     DPTR,#k_oc2timer
        MOV     R0,#?V0 + 4
        LCALL   ?L_MOV_X
        MOV     DPTR,#__Constant_3f800000
        MOV     R0,#?V0 + 8
        LCALL   ?L_MOV_X
        MOV     R0,#?V0 + 4
        MOV     R1,#?V0 + 8
        LCALL   ?FLT_LT
        JNC     ??oc2timer_0
//  346     k_oc2timer =  8.33 / (page.linearK[2][0]);
        MOV     ?V0 + 4,#-0x52
        MOV     ?V0 + 5,#0x47
        MOV     ?V0 + 6,#0x5
        MOV     ?V0 + 7,#0x41
        MOV     DPTR,#(page + 56)
        MOV     R0,#?V0 + 8
        LCALL   ?L_MOV_X
        MOV     R0,#?V0 + 4
        MOV     R1,#?V0 + 8
        LCALL   ?FLT_DIV
        MOV     DPTR,#k_oc2timer
        MOV     R0,#?V0 + 4
        LCALL   ?L_MOV_TO_X
//  347 
//  348   //  if( test4Zero((BYTE*)&k_oc2timer, 4) ) k_oc2timer = DEF_CURRENT_MULTYPLIER / page.linearK[2][0];
//  349 
//  350   // 12/27/2016 added line
//  351   if ( oc > 240 ) oc = 240;
??oc2timer_0:
        MOV     A,?V0 + 0
        CLR     C
        SUBB    A,#-0xf
        JC      ??oc2timer_1
        MOV     ?V0 + 0,#-0x10
//  352   
//  353   // 12/27/2016 val = (UINT16)( oc * k_oc2timer + 0.5 );
//  354   val = (UINT16)( oc * k_oc2timer ); 
??oc2timer_1:
        MOV     ?V0 + 1,#0x0
        MOV     ?V0 + 2,#0x0
        MOV     ?V0 + 3,#0x0
        MOV     R0,#?V0 + 0
        LCALL   ?UL_TO_FLT
        MOV     DPTR,#k_oc2timer
        MOV     R0,#?V0 + 4
        LCALL   ?L_MOV_X
        MOV     R0,#?V0 + 0
        MOV     R1,#?V0 + 4
        LCALL   ?FLT_MUL
        MOV     R0,#?V0 + 0
        LCALL   ?FLT_TO_L
        MOV     R0,?V0 + 0
//  355   if( val > 255 ) val = 255;
        CLR     C
        MOV     A,?V0 + 1
        SUBB    A,#0x1
        JC      ??oc2timer_2
        MOV     R0,#-0x1
//  356   return (BYTE) val; 
??oc2timer_2:
        MOV     A,R0
        MOV     R1,A
        CFI EndBlock cfiBlock0
        REQUIRE ?Subroutine111
        ; // Fall through to label ?Subroutine111
//  357 }

        RSEG NEAR_CODE:CODE:NOROOT(0)
?Subroutine111:
        CFI Block cfiBlock1 Using cfiCommon0
        CFI NoFunction
        CFI CFA_SP SP+0
        CFI CFA_XSP16 add(XSP16, 19)
        CFI VB load(1, XDATA, add(CFA_XSP16, literal(-18)))
        CFI DPL0 load(1, XDATA, add(CFA_XSP16, literal(-2)))
        CFI DPH0 load(1, XDATA, add(CFA_XSP16, literal(-1)))
        CFI R6 load(1, XDATA, add(CFA_XSP16, literal(-19)))
        CFI R7 load(1, XDATA, add(CFA_XSP16, literal(-5)))
        CFI V0 load(1, XDATA, add(CFA_XSP16, literal(-17)))
        CFI V1 load(1, XDATA, add(CFA_XSP16, literal(-16)))
        CFI V2 load(1, XDATA, add(CFA_XSP16, literal(-15)))
        CFI V3 load(1, XDATA, add(CFA_XSP16, literal(-14)))
        CFI V4 load(1, XDATA, add(CFA_XSP16, literal(-13)))
        CFI V5 load(1, XDATA, add(CFA_XSP16, literal(-12)))
        CFI V6 load(1, XDATA, add(CFA_XSP16, literal(-11)))
        CFI V7 load(1, XDATA, add(CFA_XSP16, literal(-10)))
        CFI V8 load(1, XDATA, add(CFA_XSP16, literal(-9)))
        CFI V9 load(1, XDATA, add(CFA_XSP16, literal(-8)))
        CFI V10 load(1, XDATA, add(CFA_XSP16, literal(-7)))
        CFI V11 load(1, XDATA, add(CFA_XSP16, literal(-6)))
        CFI ?RET_HIGH load(1, XDATA, add(CFA_XSP16, literal(-3)))
        CFI ?RET_LOW load(1, XDATA, add(CFA_XSP16, literal(-4)))
        MOV     R7,#0xc
        LJMP    ?FUNC_LEAVE_XDATA
        CFI EndBlock cfiBlock1

        RSEG NEAR_CODE:CODE:NOROOT(0)
//  358 INT16 abs( INT16 a ) { return ( a > 0 ) ? a : -a; }
abs:
        CFI Block cfiBlock2 Using cfiCommon0
        CFI Function abs
        ; Saved register size: 0
        ; Auto size: 0
        CLR     C
        MOV     A,R2
        SUBB    A,#0x1
        MOV     A,R3
        LCALL   ??Subroutine0_1
??CrossCallReturnLabel_326:
        JC      ??abs_0
        MOV     A,R2
        MOV     R0,A
        MOV     A,R3
        SJMP    ??abs_1
??abs_0:
        CLR     C
        CLR     A
        SUBB    A,R2
        MOV     R0,A
        CLR     A
        SUBB    A,R3
??abs_1:
        MOV     R1,A
        MOV     A,R0
        MOV     R2,A
        MOV     A,R1
        MOV     R3,A
        RET
        CFI EndBlock cfiBlock2
//  359 //void bootOtherImage()
//  360 //  {void (*f)( void ) = ( void (*)( void ) ) page.imageAddr;  /*si->interImageCommunications[ JustLoaded ] = TRUE;*/ (*f)();}
//  361 
//  362 /******************************************************************************/
//  363 inline float sqr( float x ){ return x*x; }
//  364 /******************************************************************************/
//  365 //inline void setupFrequency(){
//  366     // Configure the radio frequency to use
//  367 //    FREQ2 = 0x64;  FREQ1 = 0x6A; FREQ0 = 0xAA; // always FCC
//  368 //}

        RSEG XDATA_I:XDATA:NOROOT(0)
        DATA
//  369 const INT32 defFreq = 0x646AAA;
defFreq:
        DS 4
        REQUIRE `?<Initializer for defFreq>`
        REQUIRE __INIT_XDATA_I

        RSEG XDATA_I:XDATA:NOROOT(0)
        DATA
//  370 const BYTE the_frequency[3] = { 0x64, 0x6A, 0xAA };
the_frequency:
        DS 3
        REQUIRE `?<Initializer for the_frequency>`
        REQUIRE __INIT_XDATA_I
//  371 // def_freq puts the frequency values into the FrequencyControl High/Medium/Low Bytes

        RSEG NEAR_CODE:CODE:NOROOT(0)
//  372 void def_freq(void){ mymemcpy( (BYTE *)0xDF09, (BYTE *)the_frequency, 3 ); }
def_freq:
        CFI Block cfiBlock3 Using cfiCommon0
        CFI Function def_freq
        FUNCALL def_freq, mymemcpy
        LOCFRAME ISTACK, 0, STACK
        LOCFRAME PSTACK, 0, STACK
        LOCFRAME XSTACK, 0, STACK
        LOCFRAME IOVERLAY, 0, STATIC
        LOCFRAME DOVERLAY, 0, STATIC
        ARGFRAME ISTACK, 0, STACK
        ARGFRAME PSTACK, 0, STACK
        ARGFRAME XSTACK, 0, STACK
        ARGFRAME IOVERLAY, 0, STATIC
        ARGFRAME DOVERLAY, 0, STATIC
        ; Saved register size: 0
        ; Auto size: 0
        ; Setup parameters for call to function mymemcpy
        MOV     R1,#0x3
        MOV     R4,#(the_frequency & 0xff)
        MOV     R5,#((the_frequency >> 8) & 0xff)
        MOV     R2,#0x9
        MOV     R3,#-0x21
        LCALL   mymemcpy
        RET
        CFI EndBlock cfiBlock3
//  373 /*
//  374 void switchDataRate( BOOL tenKbod ){
//  375   if( page.is500Always )    _datarate    = DATA_RATE_1_CC2511;
//  376   else  if( tenKbod )       _datarate    = DATA_RATE_3_CC2511;
//  377   else                      _datarate    = DATA_RATE_4_CC2511;
//  378 }
//  379 */
//  380 /*
//  381 void setupRadioDR(BYTE dr, BYTE channel, BOOL useFEC ){
//  382     INT_GLOBAL_ENABLE( INT_OFF );           // Enable interrupts globally
//  383         RFST = STROBE_IDLE; si->radioMode = RADIO_MODE_UNDEF;            
//  384         S1CON &= ~0x03; RFIF &= ~IRQ_DONE;  RFIM = IRQ_DONE;                     // Mask IRQ_DONE flag only
//  385         //switchDataRate( page.use12kbod );
//  386         //if( (dr == DATA_RATE_1_CC2511) && page.use250kbod )   radioConfigure( DATA_RATE_2_CC2511 ); 
//  387         //else
//  388         radioConfigure( dr ); 
//  389         CHANNR = channel;      
//  390         if( dr == DATA_RATE_1_CC2511 ) PA_TABLE0 = page.repeaterPower;
//  391         else                           PA_TABLE0 = page.radioPower;
//  392         if( useFEC  ) MDMCFG1 |= 0x80; else MDMCFG1 &= 0x7F;
//  393         ADDR = page.edAddr;
//  394         //SYNC0 = 0xF0;    SYNC1 = 0xF0;
//  395         SYNC0 = page.syncword & 0xFF;    SYNC1 = ( page.syncword >> 8 ) & 0xFF;
//  396         HAL_INT_ENABLE(INUM_RF,  INT_ON);    // Enable RF general interrupt
//  397     INT_GLOBAL_ENABLE( INT_ON );             // Enable interrupts globally
//  398 }
//  399 extern BOOL transfer;
//  400 void setupRadio( BYTE channel ){ 
//  401     //switchDataRate( page.use12kbod ); 
//  402     if( page.is500Always )     _datarate    = DATA_RATE_1_CC2511;
//  403     else  if( page.use12kbod ) _datarate    = DATA_RATE_3_CC2511;
//  404     else                       _datarate    = DATA_RATE_4_CC2511;
//  405     setupRadioDR( _datarate, channel, page.useFEC || page.is500Always ); 
//  406 }
//  407 void setupRepeater( BOOL flag ){
//  408   DMAARM = 0x83; // stop receive and transmit
//  409   if( flag && (!page.is500Always) ){  
//  410        setupRadioDR( DATA_RATE_1_CC2511, page.repeaterChannel, TRUE );  
//  411        ADDR = page.gwAddr;  
//  412   }else setupRadio( curChannel );                    
//  413   // global interrups are enabled inside setup radio
//  414 }
//  415 */

        RSEG NEAR_CODE:CODE:NOROOT(0)
//  416 void setupRadioDR(BYTE dr, BYTE channel ){
setupRadioDR:
        CFI Block cfiBlock4 Using cfiCommon0
        CFI Function setupRadioDR
        FUNCALL setupRadioDR, tickWait
        LOCFRAME ISTACK, 0, STACK
        LOCFRAME PSTACK, 0, STACK
        LOCFRAME XSTACK, 8, STACK
        LOCFRAME IOVERLAY, 0, STATIC
        LOCFRAME DOVERLAY, 0, STATIC
        ARGFRAME ISTACK, 0, STACK
        ARGFRAME PSTACK, 0, STACK
        ARGFRAME XSTACK, 8, STACK
        ARGFRAME IOVERLAY, 0, STATIC
        ARGFRAME DOVERLAY, 0, STATIC
        FUNCALL setupRadioDR, radioConfigure
        LOCFRAME ISTACK, 0, STACK
        LOCFRAME PSTACK, 0, STACK
        LOCFRAME XSTACK, 8, STACK
        LOCFRAME IOVERLAY, 0, STATIC
        LOCFRAME DOVERLAY, 0, STATIC
        ARGFRAME ISTACK, 0, STACK
        ARGFRAME PSTACK, 0, STACK
        ARGFRAME XSTACK, 8, STACK
        ARGFRAME IOVERLAY, 0, STATIC
        ARGFRAME DOVERLAY, 0, STATIC
        FUNCALL setupRadioDR, radioConfigure
        LOCFRAME ISTACK, 0, STACK
        LOCFRAME PSTACK, 0, STACK
        LOCFRAME XSTACK, 8, STACK
        LOCFRAME IOVERLAY, 0, STATIC
        LOCFRAME DOVERLAY, 0, STATIC
        ARGFRAME ISTACK, 0, STACK
        ARGFRAME PSTACK, 0, STACK
        ARGFRAME XSTACK, 8, STACK
        ARGFRAME IOVERLAY, 0, STATIC
        ARGFRAME DOVERLAY, 0, STATIC
        MOV     A,#-0x8
        LCALL   ?FUNC_ENTER_XDATA
        CFI DPH0 load(1, XDATA, add(CFA_XSP16, literal(-1)))
        CFI DPL0 load(1, XDATA, add(CFA_XSP16, literal(-2)))
        CFI ?RET_HIGH load(1, XDATA, add(CFA_XSP16, literal(-3)))
        CFI ?RET_LOW load(1, XDATA, add(CFA_XSP16, literal(-4)))
        CFI R7 load(1, XDATA, add(CFA_XSP16, literal(-5)))
        CFI V0 load(1, XDATA, add(CFA_XSP16, literal(-6)))
        CFI VB load(1, XDATA, add(CFA_XSP16, literal(-7)))
        CFI R6 load(1, XDATA, add(CFA_XSP16, literal(-8)))
        CFI CFA_SP SP+0
        CFI CFA_XSP16 add(XSP16, 8)
        ; Saved register size: 8
        ; Auto size: 0
        MOV     A,R1
        MOV     R6,A
        MOV     A,R2
        MOV     R7,A
        SJMP    ??setupRadioDR_0
//  417     //INT_GLOBAL_ENABLE( INT_OFF );           // Enable interrupts globally
//  418         while( *((BYTE *)0xF53A) == RADIO_MODE_TX) tickWait(1);            
??setupRadioDR_1:
        ; Setup parameters for call to function tickWait
        MOV     R1,#0x1
        LCALL   tickWait
??setupRadioDR_0:
        MOV     DPTR,#-0xac6
        MOVX    A,@DPTR
        XRL     A,#0x10
        JZ      ??setupRadioDR_1
//  419         RFST = STROBE_IDLE; si->radioMode = RADIO_MODE_UNDEF;            
        LCALL   ?Subroutine24
//  420         S1CON &= ~0x03; RFIF &= ~IRQ_DONE;  RFIM = IRQ_DONE;                     // Mask IRQ_DONE flag only
??CrossCallReturnLabel_45:
        ANL     0x9b,#0xfc
        MOV     A,0x9b
        ANL     0xe9,#0xef
        MOV     0x91,#0x10
//  421         if( (dr == DATA_RATE_1_CC2511) && page.use250kbod )   radioConfigure( DATA_RATE_2_CC2511 ); 
        MOV     A,#0x32
        XRL     A,R6
        JNZ     ??setupRadioDR_2
        MOV     DPTR,#(page + 219)
        MOVX    A,@DPTR
        MOV     C,0xE0 /* A   */.1
        JNC     ??setupRadioDR_2
        ; Setup parameters for call to function radioConfigure
        MOV     R1,#0x19
        SJMP    ??setupRadioDR_3
//  422         else                                                  radioConfigure( dr ); 
??setupRadioDR_2:
        ; Setup parameters for call to function radioConfigure
        MOV     A,R6
        MOV     R1,A
??setupRadioDR_3:
        LCALL   radioConfigure
//  423         CHANNR = channel;      
        MOV     A,R7
        MOV     DPTR,#-0x20fa
        MOVX    @DPTR,A
//  424         if( dr == DATA_RATE_1_CC2511 ) PA_TABLE0 = page.repeaterPower;
        MOV     A,#0x32
        XRL     A,R6
        JNZ     ??setupRadioDR_4
        MOV     DPTR,#(page + 193)
        SJMP    ??setupRadioDR_5
//  425         else                           PA_TABLE0 = page.radioPower;
??setupRadioDR_4:
        MOV     DPTR,#(page + 189)
??setupRadioDR_5:
        MOVX    A,@DPTR
        MOV     DPTR,#-0x20d2
        LCALL   ?Subroutine79
//  426         ADDR = page.edAddr;
??CrossCallReturnLabel_208:
        MOVX    @DPTR,A
//  427         SYNC0 = page.syncword & 0xFF;    SYNC1 = ( page.syncword >> 8 ) & 0xFF;
        MOV     DPTR,#(page + 154)
        MOVX    A,@DPTR
        MOV     DPTR,#-0x20ff
        MOVX    @DPTR,A
        MOV     DPTR,#(page + 155)
        MOVX    A,@DPTR
        MOV     DPTR,#-0x2100
        MOVX    @DPTR,A
//  428         //RFST = STROBE_CAL; 
//  429         HAL_INT_ENABLE(INUM_RF,  INT_ON);    // Enable RF general interrupt
        ORL     0x9a,#0x1
//  430     //INT_GLOBAL_ENABLE( INT_ON );             // Enable interrupts globally
//  431 }
        LJMP    ?Subroutine123
        CFI EndBlock cfiBlock4
        REQUIRE RFIM
        REQUIRE IEN2
        REQUIRE S1CON
        REQUIRE _A_IEN0
        REQUIRE _A_IEN1
        REQUIRE RFST
        REQUIRE RFIF
//  432 extern BOOL transfer;

        RSEG NEAR_CODE:CODE:NOROOT(0)
//  433 void setupRadio( BYTE channel ){ setupRadioDR( page.is500Always ? DATA_RATE_1_CC2511 : DATA_RATE_3_CC2511, channel ); }
setupRadio:
        CFI Block cfiBlock5 Using cfiCommon0
        CFI Function setupRadio
        FUNCALL setupRadio, setupRadioDR
        LOCFRAME ISTACK, 2, STACK
        LOCFRAME PSTACK, 0, STACK
        LOCFRAME XSTACK, 0, STACK
        LOCFRAME IOVERLAY, 0, STATIC
        LOCFRAME DOVERLAY, 0, STATIC
        ARGFRAME ISTACK, 2, STACK
        ARGFRAME PSTACK, 0, STACK
        ARGFRAME XSTACK, 0, STACK
        ARGFRAME IOVERLAY, 0, STATIC
        ARGFRAME DOVERLAY, 0, STATIC
        PUSH    DPL
        CFI DPL0 Frame(CFA_SP, 3)
        CFI CFA_SP SP+-3
        PUSH    DPH
        CFI DPH0 Frame(CFA_SP, 4)
        CFI CFA_SP SP+-4
        ; Saved register size: 2
        ; Auto size: 0
        MOV     A,R1
        MOV     R2,A
        MOV     DPTR,#(page + 194)
        MOVX    A,@DPTR
        MOV     C,0xE0 /* A   */.6
        JNC     ??setupRadio_0
        MOV     R1,#0x32
        SJMP    ??setupRadio_1
??setupRadio_0:
        MOV     R1,#0xc
??setupRadio_1:
        ; Setup parameters for call to function setupRadioDR
        LCALL   setupRadioDR
        LJMP    ??Subroutine116_0
        CFI EndBlock cfiBlock5

        RSEG NEAR_CODE:CODE:NOROOT(0)
//  434 void setupRepeater( BOOL flag ){
setupRepeater:
        CFI Block cfiBlock6 Using cfiCommon0
        CFI Function setupRepeater
        FUNCALL setupRepeater, setupRadioDR
        LOCFRAME ISTACK, 2, STACK
        LOCFRAME PSTACK, 0, STACK
        LOCFRAME XSTACK, 0, STACK
        LOCFRAME IOVERLAY, 0, STATIC
        LOCFRAME DOVERLAY, 0, STATIC
        ARGFRAME ISTACK, 2, STACK
        ARGFRAME PSTACK, 0, STACK
        ARGFRAME XSTACK, 0, STACK
        ARGFRAME IOVERLAY, 0, STATIC
        ARGFRAME DOVERLAY, 0, STATIC
        FUNCALL setupRepeater, setupRadio
        LOCFRAME ISTACK, 2, STACK
        LOCFRAME PSTACK, 0, STACK
        LOCFRAME XSTACK, 0, STACK
        LOCFRAME IOVERLAY, 0, STATIC
        LOCFRAME DOVERLAY, 0, STATIC
        ARGFRAME ISTACK, 2, STACK
        ARGFRAME PSTACK, 0, STACK
        ARGFRAME XSTACK, 0, STACK
        ARGFRAME IOVERLAY, 0, STATIC
        ARGFRAME DOVERLAY, 0, STATIC
        PUSH    DPL
        CFI DPL0 Frame(CFA_SP, 3)
        CFI CFA_SP SP+-3
        PUSH    DPH
        CFI DPH0 Frame(CFA_SP, 4)
        CFI CFA_SP SP+-4
        ; Saved register size: 2
        ; Auto size: 0
//  435   DMAARM = 0x83; // stop receive and transmit
        MOV     0xd6,#-0x7d
//  436   if( flag && (!page.is500Always) ){  
        MOV     A,R1
        JZ      ??setupRepeater_0
        MOV     DPTR,#(page + 194)
        MOVX    A,@DPTR
        MOV     C,0xE0 /* A   */.6
        JC      ??setupRepeater_0
//  437        //P1_1 = 1;
//  438        setupRadioDR( DATA_RATE_1_CC2511, page.repeaterChannel );  
        ; Setup parameters for call to function setupRadioDR
        MOV     DPTR,#(page + 192)
        MOVX    A,@DPTR
        MOV     R2,A
        MOV     R1,#0x32
        LCALL   setupRadioDR
//  439        ADDR = page.gwAddr;  
        MOV     DPTR,#(page + 191)
        MOVX    A,@DPTR
        MOV     DPTR,#-0x20fb
        MOVX    @DPTR,A
        SJMP    ??CrossCallReturnLabel_128
//  440   }else{
//  441        //P1_1 = 0;
//  442        setupRadio( curChannel );                    
??setupRepeater_0:
        ; Setup parameters for call to function setupRadio
        LCALL   ?Subroutine56
//  443   }
//  444 }
??CrossCallReturnLabel_128:
        LJMP    ??Subroutine116_0
        CFI EndBlock cfiBlock6
        REQUIRE DMAARM

        RSEG NEAR_CODE:CODE:NOROOT(0)
?Subroutine56:
        CFI Block cfiCond7 Using cfiCommon0
        CFI NoFunction
        CFI Conditional ??CrossCallReturnLabel_128
        CFI DPL0 Frame(CFA_SP, 3)
        CFI DPH0 Frame(CFA_SP, 4)
        CFI CFA_SP SP+-4
        CFI Block cfiCond8 Using cfiCommon0
        CFI (cfiCond8) NoFunction
        CFI (cfiCond8) Conditional ??CrossCallReturnLabel_129
        CFI (cfiCond8) R6 load(1, XDATA, add(CFA_XSP16, literal(-15)))
        CFI (cfiCond8) VB load(1, XDATA, add(CFA_XSP16, literal(-14)))
        CFI (cfiCond8) V0 load(1, XDATA, add(CFA_XSP16, literal(-13)))
        CFI (cfiCond8) V1 load(1, XDATA, add(CFA_XSP16, literal(-12)))
        CFI (cfiCond8) V2 load(1, XDATA, add(CFA_XSP16, literal(-11)))
        CFI (cfiCond8) V3 load(1, XDATA, add(CFA_XSP16, literal(-10)))
        CFI (cfiCond8) V4 load(1, XDATA, add(CFA_XSP16, literal(-9)))
        CFI (cfiCond8) V5 load(1, XDATA, add(CFA_XSP16, literal(-8)))
        CFI (cfiCond8) V6 load(1, XDATA, add(CFA_XSP16, literal(-7)))
        CFI (cfiCond8) V7 load(1, XDATA, add(CFA_XSP16, literal(-6)))
        CFI (cfiCond8) R7 load(1, XDATA, add(CFA_XSP16, literal(-5)))
        CFI (cfiCond8) ?RET_LOW load(1, XDATA, add(CFA_XSP16, literal(-4)))
        CFI (cfiCond8) ?RET_HIGH load(1, XDATA, add(CFA_XSP16, literal(-3)))
        CFI (cfiCond8) DPL0 load(1, XDATA, add(CFA_XSP16, literal(-2)))
        CFI (cfiCond8) DPH0 load(1, XDATA, add(CFA_XSP16, literal(-1)))
        CFI (cfiCond8) CFA_SP SP+0
        CFI (cfiCond8) CFA_XSP16 add(XSP16, 15)
        CFI Block cfiPicker9 Using cfiCommon1
        CFI (cfiPicker9) NoFunction
        CFI (cfiPicker9) Picker
        MOV     DPTR,#curChannel
        CFI Block cfiCond10 Using cfiCommon0
        CFI (cfiCond10) NoFunction
        CFI (cfiCond10) Conditional ??CrossCallReturnLabel_130
        CFI (cfiCond10) R6 load(1, XDATA, add(CFA_XSP16, literal(-11)))
        CFI (cfiCond10) VB load(1, XDATA, add(CFA_XSP16, literal(-10)))
        CFI (cfiCond10) V0 load(1, XDATA, add(CFA_XSP16, literal(-9)))
        CFI (cfiCond10) V1 load(1, XDATA, add(CFA_XSP16, literal(-8)))
        CFI (cfiCond10) V2 load(1, XDATA, add(CFA_XSP16, literal(-7)))
        CFI (cfiCond10) V3 load(1, XDATA, add(CFA_XSP16, literal(-6)))
        CFI (cfiCond10) R7 load(1, XDATA, add(CFA_XSP16, literal(-5)))
        CFI (cfiCond10) ?RET_LOW load(1, XDATA, add(CFA_XSP16, literal(-4)))
        CFI (cfiCond10) ?RET_HIGH load(1, XDATA, add(CFA_XSP16, literal(-3)))
        CFI (cfiCond10) DPL0 load(1, XDATA, add(CFA_XSP16, literal(-2)))
        CFI (cfiCond10) DPH0 load(1, XDATA, add(CFA_XSP16, literal(-1)))
        CFI (cfiCond10) CFA_SP SP+0
        CFI (cfiCond10) CFA_XSP16 add(XSP16, 11)
        CFI Block cfiCond11 Using cfiCommon0
        CFI (cfiCond11) NoFunction
        CFI (cfiCond11) Conditional ??CrossCallReturnLabel_131
        CFI (cfiCond11) R6 load(1, XDATA, add(CFA_XSP16, literal(-13)))
        CFI (cfiCond11) VB load(1, XDATA, add(CFA_XSP16, literal(-12)))
        CFI (cfiCond11) V0 load(1, XDATA, add(CFA_XSP16, literal(-11)))
        CFI (cfiCond11) V1 load(1, XDATA, add(CFA_XSP16, literal(-10)))
        CFI (cfiCond11) V2 load(1, XDATA, add(CFA_XSP16, literal(-9)))
        CFI (cfiCond11) V3 load(1, XDATA, add(CFA_XSP16, literal(-8)))
        CFI (cfiCond11) V4 load(1, XDATA, add(CFA_XSP16, literal(-7)))
        CFI (cfiCond11) V5 load(1, XDATA, add(CFA_XSP16, literal(-6)))
        CFI (cfiCond11) R7 load(1, XDATA, add(CFA_XSP16, literal(-5)))
        CFI (cfiCond11) ?RET_LOW load(1, XDATA, add(CFA_XSP16, literal(-4)))
        CFI (cfiCond11) ?RET_HIGH load(1, XDATA, add(CFA_XSP16, literal(-3)))
        CFI (cfiCond11) DPL0 load(1, XDATA, add(CFA_XSP16, literal(-2)))
        CFI (cfiCond11) DPH0 load(1, XDATA, add(CFA_XSP16, literal(-1)))
        CFI (cfiCond11) CFA_SP SP+0
        CFI (cfiCond11) CFA_XSP16 add(XSP16, 13)
??Subroutine56_0:
        MOVX    A,@DPTR
        MOV     R1,A
        LCALL   setupRadio
        RET
        CFI EndBlock cfiCond7
        CFI EndBlock cfiCond8
        CFI EndBlock cfiPicker9
        CFI EndBlock cfiCond10
        CFI EndBlock cfiCond11

        RSEG NEAR_CODE:CODE:NOROOT(0)
//  445 void softKick(void){
softKick:
        CFI Block cfiBlock12 Using cfiCommon0
        CFI Function softKick
        FUNCALL softKick, zerofill
        LOCFRAME ISTACK, 2, STACK
        LOCFRAME PSTACK, 0, STACK
        LOCFRAME XSTACK, 0, STACK
        LOCFRAME IOVERLAY, 0, STATIC
        LOCFRAME DOVERLAY, 0, STATIC
        ARGFRAME ISTACK, 2, STACK
        ARGFRAME PSTACK, 0, STACK
        ARGFRAME XSTACK, 0, STACK
        ARGFRAME IOVERLAY, 0, STATIC
        ARGFRAME DOVERLAY, 0, STATIC
        FUNCALL softKick, def_freq
        LOCFRAME ISTACK, 2, STACK
        LOCFRAME PSTACK, 0, STACK
        LOCFRAME XSTACK, 0, STACK
        LOCFRAME IOVERLAY, 0, STATIC
        LOCFRAME DOVERLAY, 0, STATIC
        ARGFRAME ISTACK, 2, STACK
        ARGFRAME PSTACK, 0, STACK
        ARGFRAME XSTACK, 0, STACK
        ARGFRAME IOVERLAY, 0, STATIC
        ARGFRAME DOVERLAY, 0, STATIC
        FUNCALL softKick, load
        LOCFRAME ISTACK, 2, STACK
        LOCFRAME PSTACK, 0, STACK
        LOCFRAME XSTACK, 0, STACK
        LOCFRAME IOVERLAY, 0, STATIC
        LOCFRAME DOVERLAY, 0, STATIC
        ARGFRAME ISTACK, 2, STACK
        ARGFRAME PSTACK, 0, STACK
        ARGFRAME XSTACK, 0, STACK
        ARGFRAME IOVERLAY, 0, STATIC
        ARGFRAME DOVERLAY, 0, STATIC
        FUNCALL softKick, wait_aes
        LOCFRAME ISTACK, 2, STACK
        LOCFRAME PSTACK, 0, STACK
        LOCFRAME XSTACK, 0, STACK
        LOCFRAME IOVERLAY, 0, STATIC
        LOCFRAME DOVERLAY, 0, STATIC
        ARGFRAME ISTACK, 2, STACK
        ARGFRAME PSTACK, 0, STACK
        ARGFRAME XSTACK, 0, STACK
        ARGFRAME IOVERLAY, 0, STATIC
        ARGFRAME DOVERLAY, 0, STATIC
        FUNCALL softKick, setupRadio
        LOCFRAME ISTACK, 2, STACK
        LOCFRAME PSTACK, 0, STACK
        LOCFRAME XSTACK, 0, STACK
        LOCFRAME IOVERLAY, 0, STATIC
        LOCFRAME DOVERLAY, 0, STATIC
        ARGFRAME ISTACK, 2, STACK
        ARGFRAME PSTACK, 0, STACK
        ARGFRAME XSTACK, 0, STACK
        ARGFRAME IOVERLAY, 0, STATIC
        ARGFRAME DOVERLAY, 0, STATIC
        FUNCALL softKick, zerofill
        LOCFRAME ISTACK, 2, STACK
        LOCFRAME PSTACK, 0, STACK
        LOCFRAME XSTACK, 0, STACK
        LOCFRAME IOVERLAY, 0, STATIC
        LOCFRAME DOVERLAY, 0, STATIC
        ARGFRAME ISTACK, 2, STACK
        ARGFRAME PSTACK, 0, STACK
        ARGFRAME XSTACK, 0, STACK
        ARGFRAME IOVERLAY, 0, STATIC
        ARGFRAME DOVERLAY, 0, STATIC
        FUNCALL softKick, computeADCs
        LOCFRAME ISTACK, 2, STACK
        LOCFRAME PSTACK, 0, STACK
        LOCFRAME XSTACK, 0, STACK
        LOCFRAME IOVERLAY, 0, STATIC
        LOCFRAME DOVERLAY, 0, STATIC
        ARGFRAME ISTACK, 2, STACK
        ARGFRAME PSTACK, 0, STACK
        ARGFRAME XSTACK, 0, STACK
        ARGFRAME IOVERLAY, 0, STATIC
        ARGFRAME DOVERLAY, 0, STATIC
        PUSH    DPL
        CFI DPL0 Frame(CFA_SP, 3)
        CFI CFA_SP SP+-3
        PUSH    DPH
        CFI DPH0 Frame(CFA_SP, 4)
        CFI CFA_SP SP+-4
        ; Saved register size: 2
        ; Auto size: 0
//  446     //if( transfer ) return;
//  447     //INT_GLOBAL_ENABLE( INT_OFF );
//  448         //halPowerClkMgmtSetMainClkSrc(CRYSTAL);  // it is never needed to set crystall again
//  449         DMAARM = 0x83; RFST = STROBE_IDLE; si->radioMode = RADIO_MODE_UNDEF;            
        MOV     0xd6,#-0x7d
        LCALL   ?Subroutine24
//  450         //FREQ2 = 0x64;  FREQ1 = 0x6A; FREQ0 = 0xAA; // always FCC //setupFrequency();       //
//  451         zerofill( (BYTE *)&delta, 4 ); //delta = 0;     
??CrossCallReturnLabel_46:
        ; Setup parameters for call to function zerofill
        MOV     R1,#0x4
        MOV     R2,#(delta & 0xff)
        MOV     R3,#((delta >> 8) & 0xff)
        LCALL   zerofill
//  452         FSCTRL0 = 0;   def_freq();
        CLR     A
        MOV     DPTR,#-0x20f8
        MOVX    @DPTR,A
        ; Setup parameters for call to function def_freq
        LCALL   def_freq
//  453         //dmaRadioSetup();
//  454         //MCSM0 = 0x14; // calibraton on
//  455         loadKey( page.curKey );
        ; Setup parameters for call to function load
        LCALL   ?Subroutine81
//  456         setupRadio( curChannel = ( page.is500Always ? curChannel : page.channel ) );        // global interrups are enabled inside setup radio
??CrossCallReturnLabel_212:
        MOV     DPTR,#(page + 194)
        MOVX    A,@DPTR
        MOV     C,0xE0 /* A   */.6
        JNC     ??softKick_0
        MOV     DPTR,#curChannel
        SJMP    ??softKick_1
??softKick_0:
        MOV     DPTR,#(page + 164)
??softKick_1:
        MOVX    A,@DPTR
        MOV     R1,A
        MOV     A,R1
        MOV     DPTR,#curChannel
        MOVX    @DPTR,A
        ; Setup parameters for call to function setupRadio
        LCALL   setupRadio
//  457         zerofill( (BYTE *)&utcLast, 6 ); //utcLast = 0; msLast = 0;
        ; Setup parameters for call to function zerofill
        MOV     R1,#0x6
        MOV     R2,#(utcLast & 0xff)
        MOV     R3,#((utcLast >> 8) & 0xff)
        LCALL   zerofill
//  458         cmdCount = 0;
        MOV     DPTR,#cmdCount
        CLR     A
        MOVX    @DPTR,A
        INC     DPTR
        MOVX    @DPTR,A
//  459         //if( enable2SendData ){ computeADCs( TRUE, FALSE );  } // adjust quartz to temperature only if buffer is already full
//  460         computeADCs( TRUE, FALSE );  // adjust quartz to temperature only if buffer is already full
        ; Setup parameters for call to function computeADCs
        MOV     R2,A
        MOV     R1,#0x1
        LCALL   computeADCs
//  461         ticks[ ReceiveData ] = 1;
        LCALL   ?Subroutine6
//  462         ticks[ Hop ] = 0; cyclesToHop = 0;
??CrossCallReturnLabel_363:
        LCALL   ??Subroutine8_0
??CrossCallReturnLabel_6:
        MOV     DPTR,#cyclesToHop
        LJMP    ?Subroutine116
        CFI EndBlock cfiBlock12
        REQUIRE DMAARM
        REQUIRE RFST
//  463     //INT_GLOBAL_ENABLE( INT_ON );
//  464 }

        RSEG NEAR_CODE:CODE:NOROOT(0)
?Subroutine81:
        CFI Block cfiCond13 Using cfiCommon0
        CFI NoFunction
        CFI Conditional ??CrossCallReturnLabel_212
        CFI DPL0 Frame(CFA_SP, 3)
        CFI DPH0 Frame(CFA_SP, 4)
        CFI CFA_SP SP+-4
        CFI Block cfiCond14 Using cfiCommon0
        CFI (cfiCond14) NoFunction
        CFI (cfiCond14) Conditional ??CrossCallReturnLabel_213
        CFI Block cfiCond15 Using cfiCommon0
        CFI (cfiCond15) NoFunction
        CFI (cfiCond15) Conditional ??CrossCallReturnLabel_214
        CFI (cfiCond15) R6 load(1, XDATA, add(CFA_XSP16, literal(-11)))
        CFI (cfiCond15) VB load(1, XDATA, add(CFA_XSP16, literal(-10)))
        CFI (cfiCond15) V0 load(1, XDATA, add(CFA_XSP16, literal(-9)))
        CFI (cfiCond15) V1 load(1, XDATA, add(CFA_XSP16, literal(-8)))
        CFI (cfiCond15) V2 load(1, XDATA, add(CFA_XSP16, literal(-7)))
        CFI (cfiCond15) V3 load(1, XDATA, add(CFA_XSP16, literal(-6)))
        CFI (cfiCond15) R7 load(1, XDATA, add(CFA_XSP16, literal(-5)))
        CFI (cfiCond15) ?RET_LOW load(1, XDATA, add(CFA_XSP16, literal(-4)))
        CFI (cfiCond15) ?RET_HIGH load(1, XDATA, add(CFA_XSP16, literal(-3)))
        CFI (cfiCond15) DPL0 load(1, XDATA, add(CFA_XSP16, literal(-2)))
        CFI (cfiCond15) DPH0 load(1, XDATA, add(CFA_XSP16, literal(-1)))
        CFI (cfiCond15) CFA_SP SP+0
        CFI (cfiCond15) CFA_XSP16 add(XSP16, 11)
        CFI Block cfiCond16 Using cfiCommon0
        CFI (cfiCond16) NoFunction
        CFI (cfiCond16) Conditional ??CrossCallReturnLabel_215
        CFI (cfiCond16) R6 load(1, XDATA, add(CFA_XSP16, literal(-13)))
        CFI (cfiCond16) VB load(1, XDATA, add(CFA_XSP16, literal(-12)))
        CFI (cfiCond16) V0 load(1, XDATA, add(CFA_XSP16, literal(-11)))
        CFI (cfiCond16) V1 load(1, XDATA, add(CFA_XSP16, literal(-10)))
        CFI (cfiCond16) V2 load(1, XDATA, add(CFA_XSP16, literal(-9)))
        CFI (cfiCond16) V3 load(1, XDATA, add(CFA_XSP16, literal(-8)))
        CFI (cfiCond16) V4 load(1, XDATA, add(CFA_XSP16, literal(-7)))
        CFI (cfiCond16) V5 load(1, XDATA, add(CFA_XSP16, literal(-6)))
        CFI (cfiCond16) R7 load(1, XDATA, add(CFA_XSP16, literal(-5)))
        CFI (cfiCond16) ?RET_LOW load(1, XDATA, add(CFA_XSP16, literal(-4)))
        CFI (cfiCond16) ?RET_HIGH load(1, XDATA, add(CFA_XSP16, literal(-3)))
        CFI (cfiCond16) DPL0 load(1, XDATA, add(CFA_XSP16, literal(-2)))
        CFI (cfiCond16) DPH0 load(1, XDATA, add(CFA_XSP16, literal(-1)))
        CFI (cfiCond16) CFA_SP SP+0
        CFI (cfiCond16) CFA_XSP16 add(XSP16, 13)
        CFI Block cfiPicker17 Using cfiCommon1
        CFI (cfiPicker17) NoFunction
        CFI (cfiPicker17) Picker
        MOV     R2,#((page + 96) & 0xff)
        MOV     R3,#(((page + 96) >> 8) & 0xff)
        CFI Block cfiCond18 Using cfiCommon0
        CFI (cfiCond18) NoFunction
        CFI (cfiCond18) Conditional ??CrossCallReturnLabel_216
        CFI (cfiCond18) R6 load(1, XDATA, add(CFA_XSP16, literal(-13)))
        CFI (cfiCond18) VB load(1, XDATA, add(CFA_XSP16, literal(-12)))
        CFI (cfiCond18) V0 load(1, XDATA, add(CFA_XSP16, literal(-11)))
        CFI (cfiCond18) V1 load(1, XDATA, add(CFA_XSP16, literal(-10)))
        CFI (cfiCond18) V2 load(1, XDATA, add(CFA_XSP16, literal(-9)))
        CFI (cfiCond18) V3 load(1, XDATA, add(CFA_XSP16, literal(-8)))
        CFI (cfiCond18) V4 load(1, XDATA, add(CFA_XSP16, literal(-7)))
        CFI (cfiCond18) V5 load(1, XDATA, add(CFA_XSP16, literal(-6)))
        CFI (cfiCond18) R7 load(1, XDATA, add(CFA_XSP16, literal(-5)))
        CFI (cfiCond18) ?RET_LOW load(1, XDATA, add(CFA_XSP16, literal(-4)))
        CFI (cfiCond18) ?RET_HIGH load(1, XDATA, add(CFA_XSP16, literal(-3)))
        CFI (cfiCond18) DPL0 load(1, XDATA, add(CFA_XSP16, literal(-2)))
        CFI (cfiCond18) DPH0 load(1, XDATA, add(CFA_XSP16, literal(-1)))
        CFI (cfiCond18) CFA_SP SP+0
        CFI (cfiCond18) CFA_XSP16 add(XSP16, 13)
??Subroutine81_0:
        MOV     R1,#0x4
        CFI Block cfiCond19 Using cfiCommon0
        CFI (cfiCond19) NoFunction
        CFI (cfiCond19) Conditional ??CrossCallReturnLabel_217
        CFI (cfiCond19) R6 load(1, XDATA, add(CFA_XSP16, literal(-9)))
        CFI (cfiCond19) VB load(1, XDATA, add(CFA_XSP16, literal(-8)))
        CFI (cfiCond19) V0 load(1, XDATA, add(CFA_XSP16, literal(-7)))
        CFI (cfiCond19) V1 load(1, XDATA, add(CFA_XSP16, literal(-6)))
        CFI (cfiCond19) R7 load(1, XDATA, add(CFA_XSP16, literal(-5)))
        CFI (cfiCond19) ?RET_LOW load(1, XDATA, add(CFA_XSP16, literal(-4)))
        CFI (cfiCond19) ?RET_HIGH load(1, XDATA, add(CFA_XSP16, literal(-3)))
        CFI (cfiCond19) DPL0 load(1, XDATA, add(CFA_XSP16, literal(-2)))
        CFI (cfiCond19) DPH0 load(1, XDATA, add(CFA_XSP16, literal(-1)))
        CFI (cfiCond19) CFA_SP SP+0
        CFI (cfiCond19) CFA_XSP16 add(XSP16, 9)
        CFI Block cfiCond20 Using cfiCommon0
        CFI (cfiCond20) NoFunction
        CFI (cfiCond20) Conditional ??CrossCallReturnLabel_218
        CFI (cfiCond20) R6 load(1, XDATA, add(CFA_XSP16, literal(-15)))
        CFI (cfiCond20) VB load(1, XDATA, add(CFA_XSP16, literal(-14)))
        CFI (cfiCond20) V0 load(1, XDATA, add(CFA_XSP16, literal(-13)))
        CFI (cfiCond20) V1 load(1, XDATA, add(CFA_XSP16, literal(-12)))
        CFI (cfiCond20) V2 load(1, XDATA, add(CFA_XSP16, literal(-11)))
        CFI (cfiCond20) V3 load(1, XDATA, add(CFA_XSP16, literal(-10)))
        CFI (cfiCond20) V4 load(1, XDATA, add(CFA_XSP16, literal(-9)))
        CFI (cfiCond20) V5 load(1, XDATA, add(CFA_XSP16, literal(-8)))
        CFI (cfiCond20) V6 load(1, XDATA, add(CFA_XSP16, literal(-7)))
        CFI (cfiCond20) V7 load(1, XDATA, add(CFA_XSP16, literal(-6)))
        CFI (cfiCond20) R7 load(1, XDATA, add(CFA_XSP16, literal(-5)))
        CFI (cfiCond20) ?RET_LOW load(1, XDATA, add(CFA_XSP16, literal(-4)))
        CFI (cfiCond20) ?RET_HIGH load(1, XDATA, add(CFA_XSP16, literal(-3)))
        CFI (cfiCond20) DPL0 load(1, XDATA, add(CFA_XSP16, literal(-2)))
        CFI (cfiCond20) DPH0 load(1, XDATA, add(CFA_XSP16, literal(-1)))
        CFI (cfiCond20) CFA_SP SP+0
        CFI (cfiCond20) CFA_XSP16 add(XSP16, 15)
        CFI Block cfiCond21 Using cfiCommon0
        CFI (cfiCond21) NoFunction
        CFI (cfiCond21) Conditional ??CrossCallReturnLabel_219
        CFI (cfiCond21) R6 load(1, XDATA, add(CFA_XSP16, literal(-13)))
        CFI (cfiCond21) VB load(1, XDATA, add(CFA_XSP16, literal(-12)))
        CFI (cfiCond21) V0 load(1, XDATA, add(CFA_XSP16, literal(-11)))
        CFI (cfiCond21) V1 load(1, XDATA, add(CFA_XSP16, literal(-10)))
        CFI (cfiCond21) V2 load(1, XDATA, add(CFA_XSP16, literal(-9)))
        CFI (cfiCond21) V3 load(1, XDATA, add(CFA_XSP16, literal(-8)))
        CFI (cfiCond21) V4 load(1, XDATA, add(CFA_XSP16, literal(-7)))
        CFI (cfiCond21) V5 load(1, XDATA, add(CFA_XSP16, literal(-6)))
        CFI (cfiCond21) R7 load(1, XDATA, add(CFA_XSP16, literal(-5)))
        CFI (cfiCond21) ?RET_LOW load(1, XDATA, add(CFA_XSP16, literal(-4)))
        CFI (cfiCond21) ?RET_HIGH load(1, XDATA, add(CFA_XSP16, literal(-3)))
        CFI (cfiCond21) DPL0 load(1, XDATA, add(CFA_XSP16, literal(-2)))
        CFI (cfiCond21) DPH0 load(1, XDATA, add(CFA_XSP16, literal(-1)))
        CFI (cfiCond21) CFA_SP SP+0
        CFI (cfiCond21) CFA_XSP16 add(XSP16, 13)
??Subroutine81_1:
        LCALL   load
        ; Setup parameters for call to function wait_aes
        ; Setup parameters for call to function wait_aes
        ; Setup parameters for call to function wait_aes
        ; Setup parameters for call to function wait_aes
        ; Setup parameters for call to function wait_aes
        ; Setup parameters for call to function wait_aes
        ; Setup parameters for call to function wait_aes
        ; Setup parameters for call to function wait_aes
        LCALL   wait_aes
        RET
        CFI EndBlock cfiCond13
        CFI EndBlock cfiCond14
        CFI EndBlock cfiCond15
        CFI EndBlock cfiCond16
        CFI EndBlock cfiPicker17
        CFI EndBlock cfiCond18
        CFI EndBlock cfiCond19
        CFI EndBlock cfiCond20
        CFI EndBlock cfiCond21

        RSEG NEAR_CODE:CODE:NOROOT(0)
?Subroutine24:
        CFI Block cfiCond22 Using cfiCommon0
        CFI NoFunction
        CFI Conditional ??CrossCallReturnLabel_45
        CFI R6 load(1, XDATA, add(CFA_XSP16, literal(-8)))
        CFI VB load(1, XDATA, add(CFA_XSP16, literal(-7)))
        CFI V0 load(1, XDATA, add(CFA_XSP16, literal(-6)))
        CFI R7 load(1, XDATA, add(CFA_XSP16, literal(-5)))
        CFI ?RET_LOW load(1, XDATA, add(CFA_XSP16, literal(-4)))
        CFI ?RET_HIGH load(1, XDATA, add(CFA_XSP16, literal(-3)))
        CFI DPL0 load(1, XDATA, add(CFA_XSP16, literal(-2)))
        CFI DPH0 load(1, XDATA, add(CFA_XSP16, literal(-1)))
        CFI CFA_SP SP+0
        CFI CFA_XSP16 add(XSP16, 8)
        CFI Block cfiCond23 Using cfiCommon0
        CFI (cfiCond23) NoFunction
        CFI (cfiCond23) Conditional ??CrossCallReturnLabel_46
        CFI (cfiCond23) DPL0 Frame(CFA_SP, 3)
        CFI (cfiCond23) DPH0 Frame(CFA_SP, 4)
        CFI (cfiCond23) CFA_SP SP+-4
        CFI Block cfiPicker24 Using cfiCommon1
        CFI (cfiPicker24) NoFunction
        CFI (cfiPicker24) Picker
        MOV     0xe1,#0x4
        MOV     DPTR,#si
        MOVX    A,@DPTR
        ADD     A,#0x3a
        LCALL   ?Subroutine90
??CrossCallReturnLabel_242:
        MOV     A,#-0x10
        MOVX    @DPTR,A
        RET
        CFI EndBlock cfiCond22
        CFI EndBlock cfiCond23
        CFI EndBlock cfiPicker24

        RSEG NEAR_CODE:CODE:NOROOT(0)
?Subroutine8:
        CFI Block cfiCond25 Using cfiCommon0
        CFI NoFunction
        CFI Conditional ??CrossCallReturnLabel_4
        CFI R6 load(1, XDATA, add(CFA_XSP16, literal(-9)))
        CFI VB load(1, XDATA, add(CFA_XSP16, literal(-8)))
        CFI V0 load(1, XDATA, add(CFA_XSP16, literal(-7)))
        CFI V1 load(1, XDATA, add(CFA_XSP16, literal(-6)))
        CFI R7 load(1, XDATA, add(CFA_XSP16, literal(-5)))
        CFI ?RET_LOW load(1, XDATA, add(CFA_XSP16, literal(-4)))
        CFI ?RET_HIGH load(1, XDATA, add(CFA_XSP16, literal(-3)))
        CFI DPL0 load(1, XDATA, add(CFA_XSP16, literal(-2)))
        CFI DPH0 load(1, XDATA, add(CFA_XSP16, literal(-1)))
        CFI CFA_SP SP+0
        CFI CFA_XSP16 add(XSP16, 9)
        CFI Block cfiCond26 Using cfiCommon0
        CFI (cfiCond26) NoFunction
        CFI (cfiCond26) Conditional ??CrossCallReturnLabel_5
        CFI (cfiCond26) R6 load(1, XDATA, add(CFA_XSP16, literal(-11)))
        CFI (cfiCond26) VB load(1, XDATA, add(CFA_XSP16, literal(-10)))
        CFI (cfiCond26) V0 load(1, XDATA, add(CFA_XSP16, literal(-9)))
        CFI (cfiCond26) V1 load(1, XDATA, add(CFA_XSP16, literal(-8)))
        CFI (cfiCond26) V2 load(1, XDATA, add(CFA_XSP16, literal(-7)))
        CFI (cfiCond26) V3 load(1, XDATA, add(CFA_XSP16, literal(-6)))
        CFI (cfiCond26) R7 load(1, XDATA, add(CFA_XSP16, literal(-5)))
        CFI (cfiCond26) ?RET_LOW load(1, XDATA, add(CFA_XSP16, literal(-4)))
        CFI (cfiCond26) ?RET_HIGH load(1, XDATA, add(CFA_XSP16, literal(-3)))
        CFI (cfiCond26) DPL0 load(1, XDATA, add(CFA_XSP16, literal(-2)))
        CFI (cfiCond26) DPH0 load(1, XDATA, add(CFA_XSP16, literal(-1)))
        CFI (cfiCond26) CFA_SP SP+0
        CFI (cfiCond26) CFA_XSP16 add(XSP16, 11)
        CFI Block cfiPicker27 Using cfiCommon1
        CFI (cfiPicker27) NoFunction
        CFI (cfiPicker27) Picker
        MOV     DPTR,#curChannel
        MOVX    @DPTR,A
        CFI Block cfiCond28 Using cfiCommon0
        CFI (cfiCond28) NoFunction
        CFI (cfiCond28) Conditional ??CrossCallReturnLabel_6
        CFI (cfiCond28) DPL0 Frame(CFA_SP, 3)
        CFI (cfiCond28) DPH0 Frame(CFA_SP, 4)
        CFI (cfiCond28) CFA_SP SP+-4
??Subroutine8_0:
        MOV     DPTR,#ticks
        MOVX    A,@DPTR
        ADD     A,#0x10
        CFI Block cfiCond29 Using cfiCommon0
        CFI (cfiCond29) NoFunction
        CFI (cfiCond29) Conditional ??CrossCallReturnLabel_7
        CFI (cfiCond29) DPL0 Frame(CFA_SP, 3)
        CFI (cfiCond29) DPH0 Frame(CFA_SP, 4)
        CFI (cfiCond29) CFA_SP SP+-4
        CFI Block cfiCond30 Using cfiCommon0
        CFI (cfiCond30) NoFunction
        CFI (cfiCond30) Conditional ??CrossCallReturnLabel_8
        CFI (cfiCond30) R6 load(1, XDATA, add(CFA_XSP16, literal(-11)))
        CFI (cfiCond30) VB load(1, XDATA, add(CFA_XSP16, literal(-10)))
        CFI (cfiCond30) V0 load(1, XDATA, add(CFA_XSP16, literal(-9)))
        CFI (cfiCond30) V1 load(1, XDATA, add(CFA_XSP16, literal(-8)))
        CFI (cfiCond30) V2 load(1, XDATA, add(CFA_XSP16, literal(-7)))
        CFI (cfiCond30) V3 load(1, XDATA, add(CFA_XSP16, literal(-6)))
        CFI (cfiCond30) R7 load(1, XDATA, add(CFA_XSP16, literal(-5)))
        CFI (cfiCond30) ?RET_LOW load(1, XDATA, add(CFA_XSP16, literal(-4)))
        CFI (cfiCond30) ?RET_HIGH load(1, XDATA, add(CFA_XSP16, literal(-3)))
        CFI (cfiCond30) DPL0 load(1, XDATA, add(CFA_XSP16, literal(-2)))
        CFI (cfiCond30) DPH0 load(1, XDATA, add(CFA_XSP16, literal(-1)))
        CFI (cfiCond30) CFA_SP SP+0
        CFI (cfiCond30) CFA_XSP16 add(XSP16, 11)
??Subroutine8_1:
        LCALL   ?Subroutine90
??CrossCallReturnLabel_239:
        CLR     A
        MOVX    @DPTR,A
        INC     DPTR
        MOVX    @DPTR,A
        RET
        CFI EndBlock cfiCond25
        CFI EndBlock cfiCond26
        CFI EndBlock cfiPicker27
        CFI EndBlock cfiCond28
        CFI EndBlock cfiCond29
        CFI EndBlock cfiCond30

        RSEG NEAR_CODE:CODE:NOROOT(0)
//  465 void restoreRadio(){
restoreRadio:
        CFI Block cfiBlock31 Using cfiCommon0
        CFI Function restoreRadio
        PUSH    DPL
        CFI DPL0 Frame(CFA_SP, 3)
        CFI CFA_SP SP+-3
        PUSH    DPH
        CFI DPH0 Frame(CFA_SP, 4)
        CFI CFA_SP SP+-4
        ; Saved register size: 2
        ; Auto size: 0
//  466     //ticks[ ReceiveData ] = 1;
//  467     //HAL_INT_ENABLE(INUM_RF,  INT_ON);    // Enable RF general interrupt
//  468     //INT_GLOBAL_ENABLE( INT_ON );             // Enable interrupts globally
//  469     //DMAARM = 0x83; RFST = STROBE_IDLE; 
//  470     ticks[ ReceiveData ] = 1;
        LCALL   ?Subroutine6
//  471 }
??CrossCallReturnLabel_364:
        LJMP    ??Subroutine116_0
        CFI EndBlock cfiBlock31
//  472 /******************************************************************************/

        RSEG NEAR_CODE:CODE:NOROOT(0)
//  473 void init(void){
init:
        CFI Block cfiBlock32 Using cfiCommon0
        CFI Function init
        FUNCALL init, zerofill
        LOCFRAME ISTACK, 0, STACK
        LOCFRAME PSTACK, 0, STACK
        LOCFRAME XSTACK, 15, STACK
        LOCFRAME IOVERLAY, 0, STATIC
        LOCFRAME DOVERLAY, 0, STATIC
        ARGFRAME ISTACK, 0, STACK
        ARGFRAME PSTACK, 0, STACK
        ARGFRAME XSTACK, 15, STACK
        ARGFRAME IOVERLAY, 0, STATIC
        ARGFRAME DOVERLAY, 0, STATIC
        FUNCALL init, setup_hopper
        LOCFRAME ISTACK, 0, STACK
        LOCFRAME PSTACK, 0, STACK
        LOCFRAME XSTACK, 15, STACK
        LOCFRAME IOVERLAY, 0, STATIC
        LOCFRAME DOVERLAY, 0, STATIC
        ARGFRAME ISTACK, 0, STACK
        ARGFRAME PSTACK, 0, STACK
        ARGFRAME XSTACK, 15, STACK
        ARGFRAME IOVERLAY, 0, STATIC
        ARGFRAME DOVERLAY, 0, STATIC
        FUNCALL init, dmaRadioSetup
        LOCFRAME ISTACK, 0, STACK
        LOCFRAME PSTACK, 0, STACK
        LOCFRAME XSTACK, 15, STACK
        LOCFRAME IOVERLAY, 0, STATIC
        LOCFRAME DOVERLAY, 0, STATIC
        ARGFRAME ISTACK, 0, STACK
        ARGFRAME PSTACK, 0, STACK
        ARGFRAME XSTACK, 15, STACK
        ARGFRAME IOVERLAY, 0, STATIC
        ARGFRAME DOVERLAY, 0, STATIC
        FUNCALL init, def_freq
        LOCFRAME ISTACK, 0, STACK
        LOCFRAME PSTACK, 0, STACK
        LOCFRAME XSTACK, 15, STACK
        LOCFRAME IOVERLAY, 0, STATIC
        LOCFRAME DOVERLAY, 0, STATIC
        ARGFRAME ISTACK, 0, STACK
        ARGFRAME PSTACK, 0, STACK
        ARGFRAME XSTACK, 15, STACK
        ARGFRAME IOVERLAY, 0, STATIC
        ARGFRAME DOVERLAY, 0, STATIC
        FUNCALL init, setupRadio
        LOCFRAME ISTACK, 0, STACK
        LOCFRAME PSTACK, 0, STACK
        LOCFRAME XSTACK, 15, STACK
        LOCFRAME IOVERLAY, 0, STATIC
        LOCFRAME DOVERLAY, 0, STATIC
        ARGFRAME ISTACK, 0, STACK
        ARGFRAME PSTACK, 0, STACK
        ARGFRAME XSTACK, 15, STACK
        ARGFRAME IOVERLAY, 0, STATIC
        ARGFRAME DOVERLAY, 0, STATIC
        MOV     A,#-0xf
        LCALL   ?FUNC_ENTER_XDATA
        CFI DPH0 load(1, XDATA, add(CFA_XSP16, literal(-1)))
        CFI DPL0 load(1, XDATA, add(CFA_XSP16, literal(-2)))
        CFI ?RET_HIGH load(1, XDATA, add(CFA_XSP16, literal(-3)))
        CFI ?RET_LOW load(1, XDATA, add(CFA_XSP16, literal(-4)))
        CFI R7 load(1, XDATA, add(CFA_XSP16, literal(-5)))
        CFI V7 load(1, XDATA, add(CFA_XSP16, literal(-6)))
        CFI V6 load(1, XDATA, add(CFA_XSP16, literal(-7)))
        CFI V5 load(1, XDATA, add(CFA_XSP16, literal(-8)))
        CFI V4 load(1, XDATA, add(CFA_XSP16, literal(-9)))
        CFI V3 load(1, XDATA, add(CFA_XSP16, literal(-10)))
        CFI V2 load(1, XDATA, add(CFA_XSP16, literal(-11)))
        CFI V1 load(1, XDATA, add(CFA_XSP16, literal(-12)))
        CFI V0 load(1, XDATA, add(CFA_XSP16, literal(-13)))
        CFI VB load(1, XDATA, add(CFA_XSP16, literal(-14)))
        CFI R6 load(1, XDATA, add(CFA_XSP16, literal(-15)))
        CFI CFA_SP SP+0
        CFI CFA_XSP16 add(XSP16, 15)
        ; Saved register size: 15
        ; Auto size: 0
//  474 BYTE pin;
//  475     P0DIR = 0;    // all port 0 pins are input
        MOV     0xfd,#0x0
//  476     P0INP = 0xFF; // all port 0 pins are tristate
        MOV     0x8f,#-0x1
//  477     ADC_ENABLE_CHANNELS( 0xFF );
        MOV     A,0xf2
        MOV     0xf2,#-0x1
//  478     for( pin = 0; pin < 8; pin++ ){ IO_ADC_PORT0_PIN( pin, IO_ADC_EN); }
        MOV     R2,#0x0
??init_0:
        MOV     ?V0 + 0,#0x1
        MOV     ?V0 + 1,#0x0
        MOV     A,R2
        MOV     R0,#?V0 + 0
        LCALL   ?S_SHL
        MOV     A,?V0 + 0
        ORL     A,0xf2
        MOV     0xf2,A
        INC     R2
        MOV     A,R2
        CLR     C
        SUBB    A,#0x8
        JC      ??init_0
//  479 
//  480     // 2 top pins are secial function - timer 3 channels
//  481     P1SEL = 0xC0;                          
        MOV     0xf4,#-0x40
//  482     // pins 7(oc) 6(ov) 4(on/off), 3(mpp), 1(LED), 0(mpp cycle) are for output
//  483     P1DIR = 0xDB;   // 1101 1011
        MOV     0xfe,#-0x25
//  484 
//  485     T3CTL   = 0x50; // was 0x70, prescaler 1/4, normal operation, mode - free running
        MOV     0xcb,#0x50
//  486     T3CCTL0 = 0x24; // clear output on compare up, set on 0, enabled
        MOV     0xcc,#0x24
//  487     T3CCTL1 = 0x24; // clear output on compare up, set on 0, enabled
        MOV     0xce,#0x24
//  488     PERCFG  = 0x20; // Timer3 has alternate 2 location - P1_6 & P1_7
        MOV     0xf1,#0x20
//  489 
//  490     P2SEL   = 0x20; // Timer3 has priority over USART1
        MOV     0xf5,#0x20
//  491     // pull down commented out for version 8
//  492     //P2DIR   = 0x0F; P2_1 = 0; P2_2 = 0;
//  493     
//  494     //P1_3 = 1; //P1 |= 8;  // MPP ON
//  495     zerofill( (BYTE *)adcsTemp, sizeof(adcsTemp) );
        ; Setup parameters for call to function zerofill
        MOV     R1,#0x12
        MOV     R2,#(adcsTemp & 0xff)
        MOV     R3,#((adcsTemp >> 8) & 0xff)
        LCALL   zerofill
//  496     //     LED down,  MPP off, Module Off 
//  497     //P1 &= ~ ( 2 | 8 | 0x10 ); 
//  498     
//  499     P0SEL = 0;
        MOV     0xf3,#0x0
//  500     // Choose the crystal oscillator as the system clock
//  501  //   P1_1 = 0;
//  502  //   halPowerClkMgmtSetMainClkSrc(CRYSTAL);
//  503     // Select frequency and data rate from LCD menu, then configure the radio
//  504     
//  505     // Configure interrupt for every time a packet is sent
//  506     
//  507     FSCTRL0 = 0;
        CLR     A
        MOV     DPTR,#-0x20f8
        MOVX    @DPTR,A
//  508         
//  509     setup_hopper( page.channel );
        ; Setup parameters for call to function setup_hopper
        MOV     DPTR,#(page + 164)
        MOVX    A,@DPTR
        MOV     R1,A
        LCALL   setup_hopper
//  510     dmaRadioSetup();
        ; Setup parameters for call to function dmaRadioSetup
        LCALL   dmaRadioSetup
//  511 
//  512     //FREQ2 = 0x64;  FREQ1 = 0x6A; FREQ0 = 0xAA; // always FCC setupFrequency();
//  513     def_freq();
        ; Setup parameters for call to function def_freq
        LCALL   def_freq
//  514     setupRadio( curChannel ); //page.is500Always? page.starting500Channel : page.channel );  // global interrupts are inabled inside the setupRadio
        ; Setup parameters for call to function setupRadio
        LCALL   ?Subroutine56
//  515 
//  516     //calibrateParking();
//  517 
//  518     invVref0 = 1.0 / page.vrefPolynom[0];
??CrossCallReturnLabel_129:
        MOV     ?V0 + 0,#0x0
        MOV     ?V0 + 1,#0x0
        MOV     ?V0 + 2,#-0x80
        MOV     ?V0 + 3,#0x3f
        MOV     DPTR,#(page + 28)
        MOV     R0,#?V0 + 4
        LCALL   ?L_MOV_X
        MOV     R0,#?V0 + 0
        MOV     R1,#?V0 + 4
        LCALL   ?FLT_DIV
        MOV     DPTR,#invVref0
        MOV     R0,#?V0 + 0
        LCALL   ?L_MOV_TO_X
//  519     //__________________________________________________________________________
//  520    // Over Voltage     Over Current
//  521 
//  522     T3CTL |= 0x14;
        ORL     0xcb,#0x14
        MOV     A,0xcb
//  523     
//  524     HAL_INT_ENABLE(INUM_T1,  INT_ON);    // enable Timer1 interrupt
        SETB    0xb8.1
//  525     HAL_INT_ENABLE(INUM_ADC, INT_ON);    // enable ADC interrupt
        SETB    0xa8.1
//  526     HAL_INT_ENABLE(INUM_RF,  INT_ON);    // Enable RF general interrupt
        ORL     0x9a,#0x1
//  527 }
        LJMP    ??Subroutine124_1
        CFI EndBlock cfiBlock32
        REQUIRE P0INP
        REQUIRE IEN2
        REQUIRE _A_IEN0
        REQUIRE _A_IEN1
        REQUIRE T3CTL
        REQUIRE T3CCTL0
        REQUIRE T3CCTL1
        REQUIRE PERCFG
        REQUIRE ADCCFG
        REQUIRE P0SEL
        REQUIRE P1SEL
        REQUIRE P2SEL
        REQUIRE P0DIR
        REQUIRE P1DIR
//  528 /******************************************************************************/

        RSEG NEAR_CODE:CODE:NOROOT(0)
//  529 void ov_startup(void)
ov_startup:
        CFI Block cfiBlock33 Using cfiCommon0
        CFI Function ov_startup
//  530 {
        PUSH    DPL
        CFI DPL0 Frame(CFA_SP, 3)
        CFI CFA_SP SP+-3
        PUSH    DPH
        CFI DPH0 Frame(CFA_SP, 4)
        CFI CFA_SP SP+-4
        ; Saved register size: 2
        ; Auto size: 0
//  531   // ensure FETs are good/Module can turn on before beginning ov_startup sequence
//  532   // and turning module on.
//  533   if (*ModuleOffRememberedPtr == ModuleStatusCanTurnOn)
        MOV     DPTR,#-0x3
        MOVX    A,@DPTR
        MOV     R2,A
        MOV     DPTR,#ModuleStatusCanTurnOn
        MOVX    A,@DPTR
        XRL     A,R2
        JNZ     ??ov_startup_0
//  534   {
//  535     if( page.ov_startup )
        MOV     DPTR,#(page + 223)
        MOVX    A,@DPTR
        MOV     R2,A
        JZ      ??CrossCallReturnLabel_367
//  536     {
//  537       T3CC0 = (page.ov_startup < page.ov) ? page.ov_startup : page.ov; 
        MOV     DPTR,#(page + 187)
        MOVX    A,@DPTR
        MOV     R3,A
        MOV     A,R2
        CLR     C
        SUBB    A,R3
        JNC     ??ov_startup_1
        MOV     A,R2
        SJMP    ??ov_startup_2
??ov_startup_1:
        MOV     A,R3
??ov_startup_2:
        MOV     R4,A
        MOV     0xcd,R4
//  538       atomicChange( OvStartup, TICKS_IN_SEC );
        MOV     DPTR,#ticks
        MOVX    A,@DPTR
        ADD     A,#0x1e
        LCALL   ??Subroutine9_0
//  539       //        #ifdef MidString                                                                            
//  540       //        compute98();                                                                                
//  541       //        #endif
//  542     }
//  543     P1_4 = 1;
??CrossCallReturnLabel_367:
        SETB    0x90.4
//  544   }
//  545 }
??ov_startup_0:
        LJMP    ??Subroutine116_0
        CFI EndBlock cfiBlock33
        REQUIRE _A_P1
        REQUIRE T3CC0
//  546 /*
//  547 void init_board(void){
//  548     if( (!page.mpp) && page.module ){
//  549         P1_3 = 1;  atomicChange( BypassMode, TICKS_IN_SEC ); // switching mpp on and switching it off (bypass mode) only after delay
//  550     }else{
//  551         if( page.mpp )    P1_3 = 1;  else P1_3 = 0;
//  552         //if( page.module ) P1_4 = 1;  else P1_4 = 0;
//  553     }
//  554     if( page.module ) ov_startup();
//  555 }
//  556 */
//  557 /******************************************************************************/

        RSEG XDATA_Z:XDATA:NOROOT(0)
//  558 float *_coeff, invRef = 0;
_coeff:
        DS 2
        REQUIRE __INIT_XDATA_Z

        RSEG XDATA_Z:XDATA:NOROOT(0)
invRef:
        DS 4
        REQUIRE __INIT_XDATA_Z

        RSEG NEAR_CODE:CODE:NOROOT(0)
//  559 float mult( float t, INT16 i ){ return (t)*(float)i; }
mult:
        CFI Block cfiBlock34 Using cfiCommon0
        CFI Function mult
        MOV     A,#-0xf
        LCALL   ?FUNC_ENTER_XDATA
        CFI DPH0 load(1, XDATA, add(CFA_XSP16, literal(-1)))
        CFI DPL0 load(1, XDATA, add(CFA_XSP16, literal(-2)))
        CFI ?RET_HIGH load(1, XDATA, add(CFA_XSP16, literal(-3)))
        CFI ?RET_LOW load(1, XDATA, add(CFA_XSP16, literal(-4)))
        CFI R7 load(1, XDATA, add(CFA_XSP16, literal(-5)))
        CFI V7 load(1, XDATA, add(CFA_XSP16, literal(-6)))
        CFI V6 load(1, XDATA, add(CFA_XSP16, literal(-7)))
        CFI V5 load(1, XDATA, add(CFA_XSP16, literal(-8)))
        CFI V4 load(1, XDATA, add(CFA_XSP16, literal(-9)))
        CFI V3 load(1, XDATA, add(CFA_XSP16, literal(-10)))
        CFI V2 load(1, XDATA, add(CFA_XSP16, literal(-11)))
        CFI V1 load(1, XDATA, add(CFA_XSP16, literal(-12)))
        CFI V0 load(1, XDATA, add(CFA_XSP16, literal(-13)))
        CFI VB load(1, XDATA, add(CFA_XSP16, literal(-14)))
        CFI R6 load(1, XDATA, add(CFA_XSP16, literal(-15)))
        CFI CFA_SP SP+0
        CFI CFA_XSP16 add(XSP16, 15)
        ; Saved register size: 15
        ; Auto size: 0
        MOV     ?V0 + 4,R2
        MOV     ?V0 + 5,R3
        MOV     ?V0 + 6,R4
        MOV     ?V0 + 7,R5
        MOV     A,#0xf
        LCALL   ?XSTACK_DISP0_8
        LCALL   ?Subroutine28
??CrossCallReturnLabel_51:
        LCALL   ?Subroutine82
??CrossCallReturnLabel_220:
        LCALL   ?L_TO_FLT
        LJMP    ?Subroutine124
        CFI EndBlock cfiBlock34

        RSEG NEAR_CODE:CODE:NOROOT(0)
//  560 float lin_coeff( float f ){ return _coeff[0]*f + _coeff[1]; }
lin_coeff:
        CFI Block cfiBlock35 Using cfiCommon0
        CFI Function lin_coeff
        MOV     A,#-0xf
        LCALL   ?FUNC_ENTER_XDATA
        CFI DPH0 load(1, XDATA, add(CFA_XSP16, literal(-1)))
        CFI DPL0 load(1, XDATA, add(CFA_XSP16, literal(-2)))
        CFI ?RET_HIGH load(1, XDATA, add(CFA_XSP16, literal(-3)))
        CFI ?RET_LOW load(1, XDATA, add(CFA_XSP16, literal(-4)))
        CFI R7 load(1, XDATA, add(CFA_XSP16, literal(-5)))
        CFI V7 load(1, XDATA, add(CFA_XSP16, literal(-6)))
        CFI V6 load(1, XDATA, add(CFA_XSP16, literal(-7)))
        CFI V5 load(1, XDATA, add(CFA_XSP16, literal(-8)))
        CFI V4 load(1, XDATA, add(CFA_XSP16, literal(-9)))
        CFI V3 load(1, XDATA, add(CFA_XSP16, literal(-10)))
        CFI V2 load(1, XDATA, add(CFA_XSP16, literal(-11)))
        CFI V1 load(1, XDATA, add(CFA_XSP16, literal(-12)))
        CFI V0 load(1, XDATA, add(CFA_XSP16, literal(-13)))
        CFI VB load(1, XDATA, add(CFA_XSP16, literal(-14)))
        CFI R6 load(1, XDATA, add(CFA_XSP16, literal(-15)))
        CFI CFA_SP SP+0
        CFI CFA_XSP16 add(XSP16, 15)
        ; Saved register size: 15
        ; Auto size: 0
        MOV     ?V0 + 0,R2
        MOV     ?V0 + 1,R3
        MOV     ?V0 + 2,R4
        MOV     ?V0 + 3,R5
        MOV     DPTR,#_coeff
        LCALL   ??Subroutine49_1
??CrossCallReturnLabel_105:
        MOV     R0,#?V0 + 4
        LCALL   ?L_MOV_X
        MOV     R0,#?V0 + 4
        MOV     R1,#?V0 + 0
        LCALL   ?FLT_MUL
        LCALL   ?Subroutine48
??CrossCallReturnLabel_101:
        MOV     R0,#?V0 + 0
        LCALL   ?L_MOV_X
        MOV     R0,#?V0 + 4
        MOV     R1,#?V0 + 0
        LCALL   ?FLT_ADD
        LJMP    ??Subroutine124_0
        CFI EndBlock cfiBlock35

        RSEG NEAR_CODE:CODE:NOROOT(0)
//  561 float lin_coeff_t( float f ){    return (_coeff[1] - f )*_coeff[0]; }
lin_coeff_t:
        CFI Block cfiBlock36 Using cfiCommon0
        CFI Function lin_coeff_t
        MOV     A,#-0xf
        LCALL   ?FUNC_ENTER_XDATA
        CFI DPH0 load(1, XDATA, add(CFA_XSP16, literal(-1)))
        CFI DPL0 load(1, XDATA, add(CFA_XSP16, literal(-2)))
        CFI ?RET_HIGH load(1, XDATA, add(CFA_XSP16, literal(-3)))
        CFI ?RET_LOW load(1, XDATA, add(CFA_XSP16, literal(-4)))
        CFI R7 load(1, XDATA, add(CFA_XSP16, literal(-5)))
        CFI V7 load(1, XDATA, add(CFA_XSP16, literal(-6)))
        CFI V6 load(1, XDATA, add(CFA_XSP16, literal(-7)))
        CFI V5 load(1, XDATA, add(CFA_XSP16, literal(-8)))
        CFI V4 load(1, XDATA, add(CFA_XSP16, literal(-9)))
        CFI V3 load(1, XDATA, add(CFA_XSP16, literal(-10)))
        CFI V2 load(1, XDATA, add(CFA_XSP16, literal(-11)))
        CFI V1 load(1, XDATA, add(CFA_XSP16, literal(-12)))
        CFI V0 load(1, XDATA, add(CFA_XSP16, literal(-13)))
        CFI VB load(1, XDATA, add(CFA_XSP16, literal(-14)))
        CFI R6 load(1, XDATA, add(CFA_XSP16, literal(-15)))
        CFI CFA_SP SP+0
        CFI CFA_XSP16 add(XSP16, 15)
        ; Saved register size: 15
        ; Auto size: 0
        MOV     ?V0 + 0,R2
        MOV     ?V0 + 1,R3
        MOV     ?V0 + 2,R4
        MOV     ?V0 + 3,R5
        LCALL   ?Subroutine48
??CrossCallReturnLabel_102:
        MOV     R0,#?V0 + 4
        LCALL   ?L_MOV_X
        MOV     R0,#?V0 + 4
        MOV     R1,#?V0 + 0
        LCALL   ?FLT_SUB
        MOV     DPTR,#_coeff
        LCALL   ??Subroutine49_1
??CrossCallReturnLabel_106:
        MOV     R0,#?V0 + 0
        LCALL   ?L_MOV_X
        LJMP    ?Subroutine124
        CFI EndBlock cfiBlock36

        RSEG NEAR_CODE:CODE:NOROOT(0)
?Subroutine48:
        CFI Block cfiCond37 Using cfiCommon0
        CFI NoFunction
        CFI Conditional ??CrossCallReturnLabel_101
        CFI R6 load(1, XDATA, add(CFA_XSP16, literal(-15)))
        CFI VB load(1, XDATA, add(CFA_XSP16, literal(-14)))
        CFI V0 load(1, XDATA, add(CFA_XSP16, literal(-13)))
        CFI V1 load(1, XDATA, add(CFA_XSP16, literal(-12)))
        CFI V2 load(1, XDATA, add(CFA_XSP16, literal(-11)))
        CFI V3 load(1, XDATA, add(CFA_XSP16, literal(-10)))
        CFI V4 load(1, XDATA, add(CFA_XSP16, literal(-9)))
        CFI V5 load(1, XDATA, add(CFA_XSP16, literal(-8)))
        CFI V6 load(1, XDATA, add(CFA_XSP16, literal(-7)))
        CFI V7 load(1, XDATA, add(CFA_XSP16, literal(-6)))
        CFI R7 load(1, XDATA, add(CFA_XSP16, literal(-5)))
        CFI ?RET_LOW load(1, XDATA, add(CFA_XSP16, literal(-4)))
        CFI ?RET_HIGH load(1, XDATA, add(CFA_XSP16, literal(-3)))
        CFI DPL0 load(1, XDATA, add(CFA_XSP16, literal(-2)))
        CFI DPH0 load(1, XDATA, add(CFA_XSP16, literal(-1)))
        CFI CFA_SP SP+0
        CFI CFA_XSP16 add(XSP16, 15)
        CFI Block cfiCond38 Using cfiCommon0
        CFI (cfiCond38) NoFunction
        CFI (cfiCond38) Conditional ??CrossCallReturnLabel_102
        CFI (cfiCond38) R6 load(1, XDATA, add(CFA_XSP16, literal(-15)))
        CFI (cfiCond38) VB load(1, XDATA, add(CFA_XSP16, literal(-14)))
        CFI (cfiCond38) V0 load(1, XDATA, add(CFA_XSP16, literal(-13)))
        CFI (cfiCond38) V1 load(1, XDATA, add(CFA_XSP16, literal(-12)))
        CFI (cfiCond38) V2 load(1, XDATA, add(CFA_XSP16, literal(-11)))
        CFI (cfiCond38) V3 load(1, XDATA, add(CFA_XSP16, literal(-10)))
        CFI (cfiCond38) V4 load(1, XDATA, add(CFA_XSP16, literal(-9)))
        CFI (cfiCond38) V5 load(1, XDATA, add(CFA_XSP16, literal(-8)))
        CFI (cfiCond38) V6 load(1, XDATA, add(CFA_XSP16, literal(-7)))
        CFI (cfiCond38) V7 load(1, XDATA, add(CFA_XSP16, literal(-6)))
        CFI (cfiCond38) R7 load(1, XDATA, add(CFA_XSP16, literal(-5)))
        CFI (cfiCond38) ?RET_LOW load(1, XDATA, add(CFA_XSP16, literal(-4)))
        CFI (cfiCond38) ?RET_HIGH load(1, XDATA, add(CFA_XSP16, literal(-3)))
        CFI (cfiCond38) DPL0 load(1, XDATA, add(CFA_XSP16, literal(-2)))
        CFI (cfiCond38) DPH0 load(1, XDATA, add(CFA_XSP16, literal(-1)))
        CFI (cfiCond38) CFA_SP SP+0
        CFI (cfiCond38) CFA_XSP16 add(XSP16, 15)
        CFI Block cfiPicker39 Using cfiCommon1
        CFI (cfiPicker39) NoFunction
        CFI (cfiPicker39) Picker
        MOV     DPTR,#_coeff
        LCALL   ??Subroutine93_0
??CrossCallReturnLabel_351:
        RET
        CFI EndBlock cfiCond37
        CFI EndBlock cfiCond38
        CFI EndBlock cfiPicker39

        RSEG NEAR_CODE:CODE:NOROOT(0)
//  562 float lin( BYTE idx ){
lin:
        CFI Block cfiBlock40 Using cfiCommon0
        CFI Function lin
        FUNCALL lin, lin_coeff_t
        LOCFRAME ISTACK, 0, STACK
        LOCFRAME PSTACK, 0, STACK
        LOCFRAME XSTACK, 15, STACK
        LOCFRAME IOVERLAY, 0, STATIC
        LOCFRAME DOVERLAY, 0, STATIC
        ARGFRAME ISTACK, 0, STACK
        ARGFRAME PSTACK, 0, STACK
        ARGFRAME XSTACK, 15, STACK
        ARGFRAME IOVERLAY, 0, STATIC
        ARGFRAME DOVERLAY, 0, STATIC
        MOV     A,#-0xf
        LCALL   ?FUNC_ENTER_XDATA
        CFI DPH0 load(1, XDATA, add(CFA_XSP16, literal(-1)))
        CFI DPL0 load(1, XDATA, add(CFA_XSP16, literal(-2)))
        CFI ?RET_HIGH load(1, XDATA, add(CFA_XSP16, literal(-3)))
        CFI ?RET_LOW load(1, XDATA, add(CFA_XSP16, literal(-4)))
        CFI R7 load(1, XDATA, add(CFA_XSP16, literal(-5)))
        CFI V7 load(1, XDATA, add(CFA_XSP16, literal(-6)))
        CFI V6 load(1, XDATA, add(CFA_XSP16, literal(-7)))
        CFI V5 load(1, XDATA, add(CFA_XSP16, literal(-8)))
        CFI V4 load(1, XDATA, add(CFA_XSP16, literal(-9)))
        CFI V3 load(1, XDATA, add(CFA_XSP16, literal(-10)))
        CFI V2 load(1, XDATA, add(CFA_XSP16, literal(-11)))
        CFI V1 load(1, XDATA, add(CFA_XSP16, literal(-12)))
        CFI V0 load(1, XDATA, add(CFA_XSP16, literal(-13)))
        CFI VB load(1, XDATA, add(CFA_XSP16, literal(-14)))
        CFI R6 load(1, XDATA, add(CFA_XSP16, literal(-15)))
        CFI CFA_SP SP+0
        CFI CFA_XSP16 add(XSP16, 15)
        ; Saved register size: 15
        ; Auto size: 0
//  563 float t  = ((float)adcs[ idx ]) * page.vrefPolynom[0] * invRef; // invRef = 1.0 / (float)adcs[ REF ];
//  564     return lin_coeff_t( t ); //( coeff[1] - t ) * coeff[0];  
        ; Setup parameters for call to function lin_coeff_t
        MOV     ?V0 + 0,R1
        MOV     ?V0 + 1,#0x0
        MOV     A,#0x2
        MOV     R0,#?V0 + 0
        LCALL   ?S_SHL
        MOV     A,?V0 + 0
        ADD     A,#(adcs & 0xff)
        MOV     DPL,A
        MOV     A,?V0 + 1
        ADDC    A,#((adcs >> 8) & 0xff)
        MOV     DPH,A
        MOV     R0,#?V0 + 0
        LCALL   ?L_MOV_X
        MOV     R0,#?V0 + 0
        LCALL   ?L_TO_FLT
        MOV     DPTR,#(page + 28)
        MOV     R0,#?V0 + 4
        LCALL   ?L_MOV_X
        MOV     R0,#?V0 + 0
        MOV     R1,#?V0 + 4
        LCALL   ?FLT_MUL
        MOV     DPTR,#invRef
        MOV     R0,#?V0 + 4
        LCALL   ?L_MOV_X
        MOV     R0,#?V0 + 0
        MOV     R1,#?V0 + 4
        LCALL   ?FLT_MUL
        MOV     R2,?V0 + 0
        MOV     R3,?V0 + 1
        MOV     R4,?V0 + 2
        MOV     R5,?V0 + 3
        LCALL   lin_coeff_t
        SJMP    ??Subroutine124_1
        CFI EndBlock cfiBlock40
//  565 }

        RSEG NEAR_CODE:CODE:NOROOT(0)
//  566 float cube_coeff( float *t ){ 
cube_coeff:
        CFI Block cfiBlock41 Using cfiCommon0
        CFI Function cube_coeff
        MOV     A,#-0xf
        LCALL   ?FUNC_ENTER_XDATA
        CFI DPH0 load(1, XDATA, add(CFA_XSP16, literal(-1)))
        CFI DPL0 load(1, XDATA, add(CFA_XSP16, literal(-2)))
        CFI ?RET_HIGH load(1, XDATA, add(CFA_XSP16, literal(-3)))
        CFI ?RET_LOW load(1, XDATA, add(CFA_XSP16, literal(-4)))
        CFI R7 load(1, XDATA, add(CFA_XSP16, literal(-5)))
        CFI V7 load(1, XDATA, add(CFA_XSP16, literal(-6)))
        CFI V6 load(1, XDATA, add(CFA_XSP16, literal(-7)))
        CFI V5 load(1, XDATA, add(CFA_XSP16, literal(-8)))
        CFI V4 load(1, XDATA, add(CFA_XSP16, literal(-9)))
        CFI V3 load(1, XDATA, add(CFA_XSP16, literal(-10)))
        CFI V2 load(1, XDATA, add(CFA_XSP16, literal(-11)))
        CFI V1 load(1, XDATA, add(CFA_XSP16, literal(-12)))
        CFI V0 load(1, XDATA, add(CFA_XSP16, literal(-13)))
        CFI VB load(1, XDATA, add(CFA_XSP16, literal(-14)))
        CFI R6 load(1, XDATA, add(CFA_XSP16, literal(-15)))
        CFI CFA_SP SP+0
        CFI CFA_XSP16 add(XSP16, 15)
        ; Saved register size: 15
        ; Auto size: 0
//  567 //  return ( ( ( _coeff[0]*t + _coeff[1] )*t + _coeff[2] )*t + _coeff[3] ); 
//  568 float acc = _coeff[0]; 
        MOV     DPTR,#_coeff
        LCALL   ??Subroutine49_1
??CrossCallReturnLabel_107:
        MOV     R0,#?V0 + 0
        LCALL   ?L_MOV_X
//  569 BYTE i;
//  570     for( i = 1; i < 4; i++ ) acc = acc*(*t) + _coeff[i];
        MOV     R5,#0x1
??cube_coeff_0:
        MOV     DPL,R2
        MOV     DPH,R3
        MOV     R0,#?V0 + 4
        LCALL   ?L_MOV_X
        MOV     R0,#?V0 + 0
        MOV     R1,#?V0 + 4
        LCALL   ?FLT_MUL
        MOV     ?V0 + 4,R5
        MOV     ?V0 + 5,#0x0
        MOV     A,#0x2
        MOV     R0,#?V0 + 4
        LCALL   ?S_SHL
        MOV     DPTR,#_coeff
        MOVX    A,@DPTR
        ADD     A,?V0 + 4
        MOV     R4,A
        INC     DPTR
        MOVX    A,@DPTR
        ADDC    A,?V0 + 5
        MOV     DPL,R4
        MOV     DPH,A
        MOV     R0,#?V0 + 4
        LCALL   ?L_MOV_X
        MOV     R0,#?V0 + 0
        MOV     R1,#?V0 + 4
        LCALL   ?FLT_ADD
        INC     R5
        MOV     A,R5
        CLR     C
        SUBB    A,#0x4
        JC      ??cube_coeff_0
        CFI EndBlock cfiBlock41
//  571     return acc;
        REQUIRE ?Subroutine127
        ; // Fall through to label ?Subroutine127
//  572 }

        RSEG NEAR_CODE:CODE:NOROOT(0)
?Subroutine127:
        CFI Block cfiBlock42 Using cfiCommon0
        CFI NoFunction
        CFI CFA_SP SP+0
        CFI CFA_XSP16 add(XSP16, 15)
        CFI VB load(1, XDATA, add(CFA_XSP16, literal(-14)))
        CFI DPL0 load(1, XDATA, add(CFA_XSP16, literal(-2)))
        CFI DPH0 load(1, XDATA, add(CFA_XSP16, literal(-1)))
        CFI R6 load(1, XDATA, add(CFA_XSP16, literal(-15)))
        CFI R7 load(1, XDATA, add(CFA_XSP16, literal(-5)))
        CFI V0 load(1, XDATA, add(CFA_XSP16, literal(-13)))
        CFI V1 load(1, XDATA, add(CFA_XSP16, literal(-12)))
        CFI V2 load(1, XDATA, add(CFA_XSP16, literal(-11)))
        CFI V3 load(1, XDATA, add(CFA_XSP16, literal(-10)))
        CFI V4 load(1, XDATA, add(CFA_XSP16, literal(-9)))
        CFI V5 load(1, XDATA, add(CFA_XSP16, literal(-8)))
        CFI V6 load(1, XDATA, add(CFA_XSP16, literal(-7)))
        CFI V7 load(1, XDATA, add(CFA_XSP16, literal(-6)))
        CFI ?RET_HIGH load(1, XDATA, add(CFA_XSP16, literal(-3)))
        CFI ?RET_LOW load(1, XDATA, add(CFA_XSP16, literal(-4)))
        MOV     R2,?V0 + 0
        MOV     R3,?V0 + 1
        MOV     R4,?V0 + 2
        MOV     R5,?V0 + 3
        SJMP    ??Subroutine124_1
        CFI EndBlock cfiBlock42

        RSEG NEAR_CODE:CODE:NOROOT(0)
?Subroutine124:
        CFI Block cfiBlock43 Using cfiCommon0
        CFI NoFunction
        CFI CFA_SP SP+0
        CFI CFA_XSP16 add(XSP16, 15)
        CFI VB load(1, XDATA, add(CFA_XSP16, literal(-14)))
        CFI DPL0 load(1, XDATA, add(CFA_XSP16, literal(-2)))
        CFI DPH0 load(1, XDATA, add(CFA_XSP16, literal(-1)))
        CFI R6 load(1, XDATA, add(CFA_XSP16, literal(-15)))
        CFI R7 load(1, XDATA, add(CFA_XSP16, literal(-5)))
        CFI V0 load(1, XDATA, add(CFA_XSP16, literal(-13)))
        CFI V1 load(1, XDATA, add(CFA_XSP16, literal(-12)))
        CFI V2 load(1, XDATA, add(CFA_XSP16, literal(-11)))
        CFI V3 load(1, XDATA, add(CFA_XSP16, literal(-10)))
        CFI V4 load(1, XDATA, add(CFA_XSP16, literal(-9)))
        CFI V5 load(1, XDATA, add(CFA_XSP16, literal(-8)))
        CFI V6 load(1, XDATA, add(CFA_XSP16, literal(-7)))
        CFI V7 load(1, XDATA, add(CFA_XSP16, literal(-6)))
        CFI ?RET_HIGH load(1, XDATA, add(CFA_XSP16, literal(-3)))
        CFI ?RET_LOW load(1, XDATA, add(CFA_XSP16, literal(-4)))
        MOV     R0,#?V0 + 4
        MOV     R1,#?V0 + 0
        LCALL   ?FLT_MUL
??Subroutine124_0:
        MOV     R2,?V0 + 4
        MOV     R3,?V0 + 5
        MOV     R4,?V0 + 6
        MOV     R5,?V0 + 7
??Subroutine124_1:
        MOV     R7,#0x8
        LJMP    ?FUNC_LEAVE_XDATA
        CFI EndBlock cfiBlock43

        RSEG XDATA_Z:XDATA:NOROOT(0)
//  573 float checkVref;
checkVref:
        DS 4
        REQUIRE __INIT_XDATA_Z

        RSEG NEAR_CODE:CODE:NOROOT(0)
//  574 float processCheck( INT16 val ){ return lin_coeff( ((float)val) * checkVref );  }
processCheck:
        CFI Block cfiBlock44 Using cfiCommon0
        CFI Function processCheck
        FUNCALL processCheck, lin_coeff
        LOCFRAME ISTACK, 0, STACK
        LOCFRAME PSTACK, 0, STACK
        LOCFRAME XSTACK, 15, STACK
        LOCFRAME IOVERLAY, 0, STATIC
        LOCFRAME DOVERLAY, 0, STATIC
        ARGFRAME ISTACK, 0, STACK
        ARGFRAME PSTACK, 0, STACK
        ARGFRAME XSTACK, 15, STACK
        ARGFRAME IOVERLAY, 0, STATIC
        ARGFRAME DOVERLAY, 0, STATIC
        MOV     A,#-0xf
        LCALL   ?FUNC_ENTER_XDATA
        CFI DPH0 load(1, XDATA, add(CFA_XSP16, literal(-1)))
        CFI DPL0 load(1, XDATA, add(CFA_XSP16, literal(-2)))
        CFI ?RET_HIGH load(1, XDATA, add(CFA_XSP16, literal(-3)))
        CFI ?RET_LOW load(1, XDATA, add(CFA_XSP16, literal(-4)))
        CFI R7 load(1, XDATA, add(CFA_XSP16, literal(-5)))
        CFI V7 load(1, XDATA, add(CFA_XSP16, literal(-6)))
        CFI V6 load(1, XDATA, add(CFA_XSP16, literal(-7)))
        CFI V5 load(1, XDATA, add(CFA_XSP16, literal(-8)))
        CFI V4 load(1, XDATA, add(CFA_XSP16, literal(-9)))
        CFI V3 load(1, XDATA, add(CFA_XSP16, literal(-10)))
        CFI V2 load(1, XDATA, add(CFA_XSP16, literal(-11)))
        CFI V1 load(1, XDATA, add(CFA_XSP16, literal(-12)))
        CFI V0 load(1, XDATA, add(CFA_XSP16, literal(-13)))
        CFI VB load(1, XDATA, add(CFA_XSP16, literal(-14)))
        CFI R6 load(1, XDATA, add(CFA_XSP16, literal(-15)))
        CFI CFA_SP SP+0
        CFI CFA_XSP16 add(XSP16, 15)
        ; Saved register size: 15
        ; Auto size: 0
        ; Setup parameters for call to function lin_coeff
        MOV     ?V0 + 0,R2
        MOV     A,R3
        MOV     ?V0 + 1,A
        LCALL   ?Subroutine82
??CrossCallReturnLabel_221:
        LCALL   ?L_TO_FLT
        MOV     DPTR,#checkVref
        MOV     R0,#?V0 + 4
        LCALL   ?L_MOV_X
        MOV     R0,#?V0 + 0
        MOV     R1,#?V0 + 4
        LCALL   ?FLT_MUL
        MOV     R2,?V0 + 0
        MOV     R3,?V0 + 1
        MOV     R4,?V0 + 2
        MOV     R5,?V0 + 3
        LCALL   lin_coeff
        SJMP    ??Subroutine124_1
        CFI EndBlock cfiBlock44

        RSEG NEAR_CODE:CODE:NOROOT(0)
?Subroutine82:
        CFI Block cfiCond45 Using cfiCommon0
        CFI NoFunction
        CFI Conditional ??CrossCallReturnLabel_220
        CFI R6 load(1, XDATA, add(CFA_XSP16, literal(-15)))
        CFI VB load(1, XDATA, add(CFA_XSP16, literal(-14)))
        CFI V0 load(1, XDATA, add(CFA_XSP16, literal(-13)))
        CFI V1 load(1, XDATA, add(CFA_XSP16, literal(-12)))
        CFI V2 load(1, XDATA, add(CFA_XSP16, literal(-11)))
        CFI V3 load(1, XDATA, add(CFA_XSP16, literal(-10)))
        CFI V4 load(1, XDATA, add(CFA_XSP16, literal(-9)))
        CFI V5 load(1, XDATA, add(CFA_XSP16, literal(-8)))
        CFI V6 load(1, XDATA, add(CFA_XSP16, literal(-7)))
        CFI V7 load(1, XDATA, add(CFA_XSP16, literal(-6)))
        CFI R7 load(1, XDATA, add(CFA_XSP16, literal(-5)))
        CFI ?RET_LOW load(1, XDATA, add(CFA_XSP16, literal(-4)))
        CFI ?RET_HIGH load(1, XDATA, add(CFA_XSP16, literal(-3)))
        CFI DPL0 load(1, XDATA, add(CFA_XSP16, literal(-2)))
        CFI DPH0 load(1, XDATA, add(CFA_XSP16, literal(-1)))
        CFI CFA_SP SP+0
        CFI CFA_XSP16 add(XSP16, 15)
        CFI Block cfiCond46 Using cfiCommon0
        CFI (cfiCond46) NoFunction
        CFI (cfiCond46) Conditional ??CrossCallReturnLabel_221
        CFI (cfiCond46) R6 load(1, XDATA, add(CFA_XSP16, literal(-15)))
        CFI (cfiCond46) VB load(1, XDATA, add(CFA_XSP16, literal(-14)))
        CFI (cfiCond46) V0 load(1, XDATA, add(CFA_XSP16, literal(-13)))
        CFI (cfiCond46) V1 load(1, XDATA, add(CFA_XSP16, literal(-12)))
        CFI (cfiCond46) V2 load(1, XDATA, add(CFA_XSP16, literal(-11)))
        CFI (cfiCond46) V3 load(1, XDATA, add(CFA_XSP16, literal(-10)))
        CFI (cfiCond46) V4 load(1, XDATA, add(CFA_XSP16, literal(-9)))
        CFI (cfiCond46) V5 load(1, XDATA, add(CFA_XSP16, literal(-8)))
        CFI (cfiCond46) V6 load(1, XDATA, add(CFA_XSP16, literal(-7)))
        CFI (cfiCond46) V7 load(1, XDATA, add(CFA_XSP16, literal(-6)))
        CFI (cfiCond46) R7 load(1, XDATA, add(CFA_XSP16, literal(-5)))
        CFI (cfiCond46) ?RET_LOW load(1, XDATA, add(CFA_XSP16, literal(-4)))
        CFI (cfiCond46) ?RET_HIGH load(1, XDATA, add(CFA_XSP16, literal(-3)))
        CFI (cfiCond46) DPL0 load(1, XDATA, add(CFA_XSP16, literal(-2)))
        CFI (cfiCond46) DPH0 load(1, XDATA, add(CFA_XSP16, literal(-1)))
        CFI (cfiCond46) CFA_SP SP+0
        CFI (cfiCond46) CFA_XSP16 add(XSP16, 15)
        CFI Block cfiPicker47 Using cfiCommon1
        CFI (cfiPicker47) NoFunction
        CFI (cfiPicker47) Picker
        RLC     A
        SUBB    A,0xE0 /* A   */
        MOV     ?V0 + 2,A
        MOV     ?V0 + 3,A
        MOV     R0,#?V0 + 0
        RET
        CFI EndBlock cfiCond45
        CFI EndBlock cfiCond46
        CFI EndBlock cfiPicker47
//  575 /******************************************************************************/

        RSEG XDATA_Z:XDATA:NOROOT(0)
//  576 UINT16  last[ N_CHANNELS ]; //Vout, lastPin, lastIout, lastGnd, lastRef, lastVin, lastTex, lastTin;
last:
        DS 18
        REQUIRE __INIT_XDATA_Z

        RSEG XDATA_Z:XDATA:NOROOT(0)
//  577 UINT16  checkVoutOnT  = 0, checkPD = 0;
checkVoutOnT:
        DS 2
        REQUIRE __INIT_XDATA_Z

        RSEG XDATA_Z:XDATA:NOROOT(0)
checkPD:
        DS 2
        REQUIRE __INIT_XDATA_Z

        RSEG XDATA_Z:XDATA:NOROOT(0)
//  578 BOOL  isSteppedDown = FALSE;
isSteppedDown:
        DS 1
        REQUIRE __INIT_XDATA_Z

        RSEG NEAR_CODE:CODE:NOROOT(0)
//  579 void read_page(void){
read_page:
        CFI Block cfiBlock48 Using cfiCommon0
        CFI Function read_page
        FUNCALL read_page, mymemcpy
        LOCFRAME ISTACK, 2, STACK
        LOCFRAME PSTACK, 0, STACK
        LOCFRAME XSTACK, 0, STACK
        LOCFRAME IOVERLAY, 0, STATIC
        LOCFRAME DOVERLAY, 0, STATIC
        ARGFRAME ISTACK, 2, STACK
        ARGFRAME PSTACK, 0, STACK
        ARGFRAME XSTACK, 0, STACK
        ARGFRAME IOVERLAY, 0, STATIC
        ARGFRAME DOVERLAY, 0, STATIC
        FUNCALL read_page, mymemcpy
        LOCFRAME ISTACK, 2, STACK
        LOCFRAME PSTACK, 0, STACK
        LOCFRAME XSTACK, 0, STACK
        LOCFRAME IOVERLAY, 0, STATIC
        LOCFRAME DOVERLAY, 0, STATIC
        ARGFRAME ISTACK, 2, STACK
        ARGFRAME PSTACK, 0, STACK
        ARGFRAME XSTACK, 0, STACK
        ARGFRAME IOVERLAY, 0, STATIC
        ARGFRAME DOVERLAY, 0, STATIC
        FUNCALL read_page, switchTo255
        LOCFRAME ISTACK, 2, STACK
        LOCFRAME PSTACK, 0, STACK
        LOCFRAME XSTACK, 0, STACK
        LOCFRAME IOVERLAY, 0, STATIC
        LOCFRAME DOVERLAY, 0, STATIC
        ARGFRAME ISTACK, 2, STACK
        ARGFRAME PSTACK, 0, STACK
        ARGFRAME XSTACK, 0, STACK
        ARGFRAME IOVERLAY, 0, STATIC
        ARGFRAME DOVERLAY, 0, STATIC
        PUSH    DPL
        CFI DPL0 Frame(CFA_SP, 3)
        CFI CFA_SP SP+-3
        PUSH    DPH
        CFI DPH0 Frame(CFA_SP, 4)
        CFI CFA_SP SP+-4
        ; Saved register size: 2
        ; Auto size: 0
//  580     mymemcpy( (BYTE *)&page, (BYTE *)PAGEADDR, PAGESIZE ); //+4 ); 
        ; Setup parameters for call to function mymemcpy
        MOV     R1,#-0xe
        MOV     R4,#0x0
        MOV     R5,#0x5c
        MOV     R2,#(page & 0xff)
        MOV     R3,#((page >> 8) & 0xff)
        LCALL   mymemcpy
//  581     //if( page.barrier == 0xAAAA ){
//  582     if( page.barrier == 0xAAAA  && page.post_barrier == 0x5555 ){
        MOV     DPTR,#page
        MOVX    A,@DPTR
        XRL     A,#0xaa
        JNZ     ??read_page_0
        INC     DPTR
        MOVX    A,@DPTR
        XRL     A,#0xaa
??read_page_0:
        JNZ     ??read_page_1
        MOV     DPTR,#(page + 240)
        MOVX    A,@DPTR
        XRL     A,#0x55
        JNZ     ??read_page_2
        INC     DPTR
        MOVX    A,@DPTR
        XRL     A,#0x55
??read_page_2:
        JZ      ??read_page_3
//  583         /* page F compatibility - not needed anymore
//  584         zerofill( (BYTE *)&page.syncword, 8 );
//  585         page.syncword = 0xF0F0; 
//  586         page.vin_disable_radio = 6;
//  587         page.vin_limit         = 0; 
//  588         page.vin_turn_on       = 120;
//  589         page.vin_switch_off    = 100;
//  590         */
//  591         //BYTE *ptr = nextSlot();
//  592         //if( ptr && ptr > (BYTE *)(PAGEADDR+PAGESIZE+4) ){ ptr -= 4;  mymemcpy( (BYTE *)&energy, ptr, 4 );  }
//  593         //zerofill( (BYTE *)&deltaEnergy, 4 );
//  594     }else{
//  595         //page.barrier = 0xAAAA; page.post_barrier = 0x5555;
//  596         mymemcpy((BYTE *)&page, (BYTE *)default_pb, PAGESIZE );
??read_page_1:
        ; Setup parameters for call to function mymemcpy
        MOV     R1,#-0xe
        MOV     R4,#(default_pb & 0xff)
        MOV     R5,#((default_pb >> 8) & 0xff)
        MOV     R2,#(page & 0xff)
        MOV     R3,#((page >> 8) & 0xff)
        LCALL   mymemcpy
//  597         // partial PB restoration goes here
//  598         //void (*f)( void ) = ( void (*)( void ) )0x603F;  (*f)();  // to 8k image
//  599         switchTo255(); ch255 = FALSE;
        ; Setup parameters for call to function switchTo255
        LCALL   ?Subroutine83
//  600         page.ov         = *((BYTE *)0x3DC);
??CrossCallReturnLabel_222:
        MOV     DPTR,#0x3dc
        MOVX    A,@DPTR
        MOV     DPTR,#(page + 187)
        MOVX    @DPTR,A
//  601         page.oc         = *((BYTE *)0x3DD);
        MOV     DPTR,#0x3dd
        MOVX    A,@DPTR
        MOV     DPTR,#(page + 188)
        MOVX    @DPTR,A
//  602         //page.ov_startup = 100;//*((BYTE *)0x3DE);
//  603         //page.myBunch = 0;   page.netId  = 0;
//  604          /*
//  605         page.channel = 255; page.pureOffset = -130;
//  606         page.edAddr    = 2; page.gwAddr     = 1; 
//  607         page.vin_limit = 0; 
//  608         mymemcpy( (BYTE *)page.curKey, (BYTE *)theKey, 32 );
//  609         //page.myBunch = 0;   page.netId  = 0;
//  610         mymemcpy( (BYTE *)&page, (BYTE *)0x3D4, 12 );    // netid, bunch, mac
//  611         //zerofill( (BYTE *)&energy, 8 );
//  612         */
//  613     }
//  614     ch255 = FALSE;
??read_page_3:
        CLR     A
        MOV     DPTR,#ch255
        SJMP    ?Subroutine116
        CFI EndBlock cfiBlock48
//  615 }
//  616 //float polynomial[] = { 0, 0, 0, -200 }; // -0.000693, 0.0556, 0.613, -220.0};

        RSEG NEAR_CODE:CODE:NOROOT(0)
//  617 void switchTo255(){
switchTo255:
        CFI Block cfiBlock49 Using cfiCommon0
        CFI Function switchTo255
        FUNCALL switchTo255, mymemcpy
        LOCFRAME ISTACK, 2, STACK
        LOCFRAME PSTACK, 0, STACK
        LOCFRAME XSTACK, 0, STACK
        LOCFRAME IOVERLAY, 0, STATIC
        LOCFRAME DOVERLAY, 0, STATIC
        ARGFRAME ISTACK, 2, STACK
        ARGFRAME PSTACK, 0, STACK
        ARGFRAME XSTACK, 0, STACK
        ARGFRAME IOVERLAY, 0, STATIC
        ARGFRAME DOVERLAY, 0, STATIC
        FUNCALL switchTo255, mymemcpy
        LOCFRAME ISTACK, 2, STACK
        LOCFRAME PSTACK, 0, STACK
        LOCFRAME XSTACK, 0, STACK
        LOCFRAME IOVERLAY, 0, STATIC
        LOCFRAME DOVERLAY, 0, STATIC
        ARGFRAME ISTACK, 2, STACK
        ARGFRAME PSTACK, 0, STACK
        ARGFRAME XSTACK, 0, STACK
        ARGFRAME IOVERLAY, 0, STATIC
        ARGFRAME DOVERLAY, 0, STATIC
        FUNCALL switchTo255, softKick
        LOCFRAME ISTACK, 2, STACK
        LOCFRAME PSTACK, 0, STACK
        LOCFRAME XSTACK, 0, STACK
        LOCFRAME IOVERLAY, 0, STATIC
        LOCFRAME DOVERLAY, 0, STATIC
        ARGFRAME ISTACK, 2, STACK
        ARGFRAME PSTACK, 0, STACK
        ARGFRAME XSTACK, 0, STACK
        ARGFRAME IOVERLAY, 0, STATIC
        ARGFRAME DOVERLAY, 0, STATIC
        PUSH    DPL
        CFI DPL0 Frame(CFA_SP, 3)
        CFI CFA_SP SP+-3
        PUSH    DPH
        CFI DPH0 Frame(CFA_SP, 4)
        CFI CFA_SP SP+-4
        ; Saved register size: 2
        ; Auto size: 0
//  618     curChannel = page.channel = 255;   
        MOV     A,#-0x1
        MOV     DPTR,#(page + 164)
        MOVX    @DPTR,A
        MOV     DPTR,#curChannel
        LCALL   ?Subroutine76
//  619     page.use12kbod  = TRUE;   page.hoppingAllowed = FALSE;
??CrossCallReturnLabel_202:
        CLR     0xE0 /* A   */.4
        MOVX    @DPTR,A
        SETB    0xE0 /* A   */.2
        MOVX    @DPTR,A
//  620     page.useFEC     = FALSE;  page.is500Always = FALSE; 
        MOV     DPTR,#(page + 219)
        MOVX    A,@DPTR
        CLR     0xE0 /* A   */.4
        LCALL   ?Subroutine76
//  621     page.isRelay    = FALSE;  page.searchCommunication = FALSE;
??CrossCallReturnLabel_203:
        ANL     A,#0x1f
        MOVX    @DPTR,A
//  622     page.vin_disable_radio = 0;
        CLR     A
        MOV     DPTR,#(page + 156)
        MOVX    @DPTR,A
//  623     //page.production = 0;
//  624     //page.fuseComm   = 0;    page.fuseOVOC = 0;
//  625     mymemcpy( (BYTE *)page.curKey, (BYTE *)theKey, 32 ); 
        ; Setup parameters for call to function mymemcpy
        MOV     R1,#0x20
        MOV     R4,#(theKey & 0xff)
        MOV     R5,#((theKey >> 8) & 0xff)
        MOV     R2,#((page + 96) & 0xff)
        MOV     R3,#(((page + 96) >> 8) & 0xff)
        LCALL   mymemcpy
//  626     //mymemcpy( (BYTE *)page.dFk,    (BYTE *)polynomial, 16 );
//  627     page.syncword = 0xF0F0; page.edAddr = 2; page.gwAddr = 1;
        MOV     DPTR,#(page + 154)
        MOV     A,#-0x10
        LCALL   ?Subroutine69
//  628     mymemcpy( (BYTE *)&page, (BYTE *)0x3D0, 12 );    // barrier, netid (0), bunch (0), group, mac, 
??CrossCallReturnLabel_189:
        ; Setup parameters for call to function mymemcpy
        MOV     R1,#0xc
        MOV     R4,#-0x30
        MOV     R5,#0x3
        MOV     R2,#(page & 0xff)
        MOV     R3,#((page >> 8) & 0xff)
        LCALL   mymemcpy
//  629     ch255 = TRUE;   softKick();
        MOV     A,#0x1
        MOV     DPTR,#ch255
        MOVX    @DPTR,A
        ; Setup parameters for call to function softKick
        LCALL   softKick
//  630     //page.myBunch    =  0;     page.netId = 0;  
//  631 }
        SJMP    ??Subroutine116_0
        CFI EndBlock cfiBlock49
//  632 

        RSEG XDATA_Z:XDATA:NOROOT(0)
//  633 static UINT16 dVOut = 0,
dVOut:
        DS 2
        REQUIRE __INIT_XDATA_Z

        RSEG XDATA_Z:XDATA:NOROOT(0)
//  634   vOutMin = 0,
vOutMin:
        DS 2
        REQUIRE __INIT_XDATA_Z

        RSEG XDATA_Z:XDATA:NOROOT(0)
//  635   vOutMax = 0;
vOutMax:
        DS 2
        REQUIRE __INIT_XDATA_Z
//  636 

        RSEG NEAR_CODE:CODE:NOROOT(0)
//  637 void kickOsc()
kickOsc:
        CFI Block cfiBlock50 Using cfiCommon0
        CFI Function kickOsc
//  638 {
        PUSH    DPL
        CFI DPL0 Frame(CFA_SP, 3)
        CFI CFA_SP SP+-3
        PUSH    DPH
        CFI DPH0 Frame(CFA_SP, 4)
        CFI CFA_SP SP+-4
        ; Saved register size: 2
        ; Auto size: 0
//  639   P1_3 = 0;
        CLR     0x90.3
//  640   oscWhatToWaitFor = SetOscOVStartupDelay;
        MOV     A,#0x15
        MOV     DPTR,#oscWhatToWaitFor
        MOVX    @DPTR,A
//  641   ticks[OscEvent] = page.oscOVStartupDelay;
        MOV     DPTR,#(page + 138)
        LCALL   ??Subroutine7_0
//  642   T3CC0 = page.ov_startup;
??CrossCallReturnLabel_299:
        MOV     DPTR,#(page + 223)
        MOVX    A,@DPTR
        MOV     0xcd,A
//  643 }
        SJMP    ??Subroutine116_0
        CFI EndBlock cfiBlock50
        REQUIRE _A_P1
        REQUIRE T3CC0

        RSEG NEAR_CODE:CODE:NOROOT(0)
?Subroutine116:
        CFI Block cfiBlock51 Using cfiCommon0
        CFI NoFunction
        CFI CFA_SP SP+-4
        CFI DPL0 Frame(CFA_SP, 3)
        CFI DPH0 Frame(CFA_SP, 4)
        MOVX    @DPTR,A
??Subroutine116_0:
        POP     DPH
        CFI CFA_SP SP+-3
        CFI DPH0 SameValue
        POP     DPL
        CFI CFA_SP SP+-2
        CFI DPL0 SameValue
        RET
        CFI EndBlock cfiBlock51
//  644 
//  645 #ifdef MidString
//  646 INT16 iOutIin1Diff; // Used in compute ADCs for FET failure
//  647 INT16 iOutIin2Diff; // Global to save time with computeADCs
//  648 #endif
//  649 

        RSEG NEAR_CODE:CODE:NOROOT(0)
//  650 void checkVin(void){
checkVin:
        CFI Block cfiBlock52 Using cfiCommon0
        CFI Function checkVin
        FUNCALL checkVin, kickOsc
        LOCFRAME ISTACK, 0, STACK
        LOCFRAME PSTACK, 0, STACK
        LOCFRAME XSTACK, 15, STACK
        LOCFRAME IOVERLAY, 0, STATIC
        LOCFRAME DOVERLAY, 0, STATIC
        ARGFRAME ISTACK, 0, STACK
        ARGFRAME PSTACK, 0, STACK
        ARGFRAME XSTACK, 15, STACK
        ARGFRAME IOVERLAY, 0, STATIC
        ARGFRAME DOVERLAY, 0, STATIC
        FUNCALL checkVin, lin_coeff
        LOCFRAME ISTACK, 0, STACK
        LOCFRAME PSTACK, 0, STACK
        LOCFRAME XSTACK, 15, STACK
        LOCFRAME IOVERLAY, 0, STATIC
        LOCFRAME DOVERLAY, 0, STATIC
        ARGFRAME ISTACK, 0, STACK
        ARGFRAME PSTACK, 0, STACK
        ARGFRAME XSTACK, 15, STACK
        ARGFRAME IOVERLAY, 0, STATIC
        ARGFRAME DOVERLAY, 0, STATIC
        FUNCALL checkVin, convU
        LOCFRAME ISTACK, 0, STACK
        LOCFRAME PSTACK, 0, STACK
        LOCFRAME XSTACK, 15, STACK
        LOCFRAME IOVERLAY, 0, STATIC
        LOCFRAME DOVERLAY, 0, STATIC
        ARGFRAME ISTACK, 0, STACK
        ARGFRAME PSTACK, 0, STACK
        ARGFRAME XSTACK, 15, STACK
        ARGFRAME IOVERLAY, 0, STATIC
        ARGFRAME DOVERLAY, 0, STATIC
        FUNCALL checkVin, ov_startup
        LOCFRAME ISTACK, 0, STACK
        LOCFRAME PSTACK, 0, STACK
        LOCFRAME XSTACK, 15, STACK
        LOCFRAME IOVERLAY, 0, STATIC
        LOCFRAME DOVERLAY, 0, STATIC
        ARGFRAME ISTACK, 0, STACK
        ARGFRAME PSTACK, 0, STACK
        ARGFRAME XSTACK, 15, STACK
        ARGFRAME IOVERLAY, 0, STATIC
        ARGFRAME DOVERLAY, 0, STATIC
        FUNCALL checkVin, switchTo255
        LOCFRAME ISTACK, 0, STACK
        LOCFRAME PSTACK, 0, STACK
        LOCFRAME XSTACK, 15, STACK
        LOCFRAME IOVERLAY, 0, STATIC
        LOCFRAME DOVERLAY, 0, STATIC
        ARGFRAME ISTACK, 0, STACK
        ARGFRAME PSTACK, 0, STACK
        ARGFRAME XSTACK, 15, STACK
        ARGFRAME IOVERLAY, 0, STATIC
        ARGFRAME DOVERLAY, 0, STATIC
        FUNCALL checkVin, read_page
        LOCFRAME ISTACK, 0, STACK
        LOCFRAME PSTACK, 0, STACK
        LOCFRAME XSTACK, 15, STACK
        LOCFRAME IOVERLAY, 0, STATIC
        LOCFRAME DOVERLAY, 0, STATIC
        ARGFRAME ISTACK, 0, STACK
        ARGFRAME PSTACK, 0, STACK
        ARGFRAME XSTACK, 15, STACK
        ARGFRAME IOVERLAY, 0, STATIC
        ARGFRAME DOVERLAY, 0, STATIC
        FUNCALL checkVin, softKick
        LOCFRAME ISTACK, 0, STACK
        LOCFRAME PSTACK, 0, STACK
        LOCFRAME XSTACK, 15, STACK
        LOCFRAME IOVERLAY, 0, STATIC
        LOCFRAME DOVERLAY, 0, STATIC
        ARGFRAME ISTACK, 0, STACK
        ARGFRAME PSTACK, 0, STACK
        ARGFRAME XSTACK, 15, STACK
        ARGFRAME IOVERLAY, 0, STATIC
        ARGFRAME DOVERLAY, 0, STATIC
        FUNCALL checkVin, read_page
        LOCFRAME ISTACK, 0, STACK
        LOCFRAME PSTACK, 0, STACK
        LOCFRAME XSTACK, 15, STACK
        LOCFRAME IOVERLAY, 0, STATIC
        LOCFRAME DOVERLAY, 0, STATIC
        ARGFRAME ISTACK, 0, STACK
        ARGFRAME PSTACK, 0, STACK
        ARGFRAME XSTACK, 15, STACK
        ARGFRAME IOVERLAY, 0, STATIC
        ARGFRAME DOVERLAY, 0, STATIC
        FUNCALL checkVin, softKick
        LOCFRAME ISTACK, 0, STACK
        LOCFRAME PSTACK, 0, STACK
        LOCFRAME XSTACK, 15, STACK
        LOCFRAME IOVERLAY, 0, STATIC
        LOCFRAME DOVERLAY, 0, STATIC
        ARGFRAME ISTACK, 0, STACK
        ARGFRAME PSTACK, 0, STACK
        ARGFRAME XSTACK, 15, STACK
        ARGFRAME IOVERLAY, 0, STATIC
        ARGFRAME DOVERLAY, 0, STATIC
        FUNCALL checkVin, lin_coeff_t
        LOCFRAME ISTACK, 0, STACK
        LOCFRAME PSTACK, 0, STACK
        LOCFRAME XSTACK, 15, STACK
        LOCFRAME IOVERLAY, 0, STATIC
        LOCFRAME DOVERLAY, 0, STATIC
        ARGFRAME ISTACK, 0, STACK
        ARGFRAME PSTACK, 0, STACK
        ARGFRAME XSTACK, 15, STACK
        ARGFRAME IOVERLAY, 0, STATIC
        ARGFRAME DOVERLAY, 0, STATIC
        FUNCALL checkVin, ov_startup
        LOCFRAME ISTACK, 0, STACK
        LOCFRAME PSTACK, 0, STACK
        LOCFRAME XSTACK, 15, STACK
        LOCFRAME IOVERLAY, 0, STATIC
        LOCFRAME DOVERLAY, 0, STATIC
        ARGFRAME ISTACK, 0, STACK
        ARGFRAME PSTACK, 0, STACK
        ARGFRAME XSTACK, 15, STACK
        ARGFRAME IOVERLAY, 0, STATIC
        ARGFRAME DOVERLAY, 0, STATIC
        FUNCALL checkVin, oc2timer
        LOCFRAME ISTACK, 0, STACK
        LOCFRAME PSTACK, 0, STACK
        LOCFRAME XSTACK, 15, STACK
        LOCFRAME IOVERLAY, 0, STATIC
        LOCFRAME DOVERLAY, 0, STATIC
        ARGFRAME ISTACK, 0, STACK
        ARGFRAME PSTACK, 0, STACK
        ARGFRAME XSTACK, 15, STACK
        ARGFRAME IOVERLAY, 0, STATIC
        ARGFRAME DOVERLAY, 0, STATIC
        FUNCALL checkVin, oc2timer
        LOCFRAME ISTACK, 0, STACK
        LOCFRAME PSTACK, 0, STACK
        LOCFRAME XSTACK, 15, STACK
        LOCFRAME IOVERLAY, 0, STATIC
        LOCFRAME DOVERLAY, 0, STATIC
        ARGFRAME ISTACK, 0, STACK
        ARGFRAME PSTACK, 0, STACK
        ARGFRAME XSTACK, 15, STACK
        ARGFRAME IOVERLAY, 0, STATIC
        ARGFRAME DOVERLAY, 0, STATIC
        FUNCALL checkVin, oc2timer
        LOCFRAME ISTACK, 0, STACK
        LOCFRAME PSTACK, 0, STACK
        LOCFRAME XSTACK, 15, STACK
        LOCFRAME IOVERLAY, 0, STATIC
        LOCFRAME DOVERLAY, 0, STATIC
        ARGFRAME ISTACK, 0, STACK
        ARGFRAME PSTACK, 0, STACK
        ARGFRAME XSTACK, 15, STACK
        ARGFRAME IOVERLAY, 0, STATIC
        ARGFRAME DOVERLAY, 0, STATIC
        MOV     A,#-0xf
        LCALL   ?FUNC_ENTER_XDATA
        CFI DPH0 load(1, XDATA, add(CFA_XSP16, literal(-1)))
        CFI DPL0 load(1, XDATA, add(CFA_XSP16, literal(-2)))
        CFI ?RET_HIGH load(1, XDATA, add(CFA_XSP16, literal(-3)))
        CFI ?RET_LOW load(1, XDATA, add(CFA_XSP16, literal(-4)))
        CFI R7 load(1, XDATA, add(CFA_XSP16, literal(-5)))
        CFI V7 load(1, XDATA, add(CFA_XSP16, literal(-6)))
        CFI V6 load(1, XDATA, add(CFA_XSP16, literal(-7)))
        CFI V5 load(1, XDATA, add(CFA_XSP16, literal(-8)))
        CFI V4 load(1, XDATA, add(CFA_XSP16, literal(-9)))
        CFI V3 load(1, XDATA, add(CFA_XSP16, literal(-10)))
        CFI V2 load(1, XDATA, add(CFA_XSP16, literal(-11)))
        CFI V1 load(1, XDATA, add(CFA_XSP16, literal(-12)))
        CFI V0 load(1, XDATA, add(CFA_XSP16, literal(-13)))
        CFI VB load(1, XDATA, add(CFA_XSP16, literal(-14)))
        CFI R6 load(1, XDATA, add(CFA_XSP16, literal(-15)))
        CFI CFA_SP SP+0
        CFI CFA_XSP16 add(XSP16, 15)
        ; Saved register size: 15
        ; Auto size: 0
//  651 INT16  t;
//  652 UINT16 safe_vin_16; //, dp; // dp is needed for power dissipation protection
//  653 static BYTE oscCondition = 0;
//  654 
//  655 #ifdef MidString
//  656     static UINT16 currentFETTickCount = 0;
//  657 
//  658     if (checkForFETFailure)
//  659       {
//  660 	iOutIin1Diff = (INT16)adcs16[2] - (INT16)adcs16[6];
//  661 	iOutIin2Diff = (INT16)adcs16[2] - (INT16)adcs16[5];
//  662 	if ( ((INT16)adcs16[2] > page.fetCurrentThreshold) &&
//  663 	     ( (iOutIin1Diff < page.fetDeltaCurrent) ||
//  664 	       (iOutIin2Diff < page.fetDeltaCurrent) )  )
//  665 	  {
//  666 	    currentFETTickCount += 120;
//  667 	    netValue = MainNetValueFETFailing; // indicate FET failure being observed
//  668 	    if (currentFETTickCount >= (INT16)page.fetFailureCount)
//  669 	      {
//  670 		P1_4 = 0; // turn the module off 
//  671 		fetFailure = TRUE; // set guard to keep module from being turned on
//  672 		checkForFETFailure = FALSE; // No need to check further until power cycle or Module On
//  673 		netValue = MainNetValueFETFailed; // indicate FET failure condition
//  674 		*ModuleOffRememberedPtr = ModuleStatusOffFetFailure; // Remember module is off
//  675 		currentFETTickCount = 0; // Reset to 0
//  676 	      }
//  677 	  }
//  678 	else
//  679 	  {
//  680 	    currentFETTickCount = 0; // Ensure count is back to default
//  681 	    netValue = MainNetValueStandard; // "default" netValue for main image
//  682 	  }
//  683       }
//  684 #endif
//  685 
//  686 if( ( ticks[ OvStartup ] == 0 ) &&
//  687     ( page.oscLowCurrentLimitInmA != 0 ) &&
//  688     ( page.oscLowCurrentLimitInmA != -1 ) &&
//  689     ( oscWhatToWaitFor == SetOscLowCurrentOnlyDelay ) &&
//  690     ( ((INT16)adcs16[2]) < page.oscLowCurrentLimitInmA) )
        MOV     DPTR,#ticks
        MOVX    A,@DPTR
        ADD     A,#0x1e
        LCALL   ?Subroutine43
??CrossCallReturnLabel_80:
        JNZ     ??checkVin_0
        INC     DPTR
        MOVX    A,@DPTR
??checkVin_0:
        JNZ     ??checkVin_1
        LCALL   ?Subroutine60
??CrossCallReturnLabel_136:
        JNZ     ??checkVin_2
        MOV     A,R1
??checkVin_2:
        JZ      ??checkVin_1
        MOV     A,#-0x1
        XRL     A,R0
        JNZ     ??checkVin_3
        MOV     A,#-0x1
        XRL     A,R1
??checkVin_3:
        JZ      ??checkVin_1
        MOV     DPTR,#oscWhatToWaitFor
        MOVX    A,@DPTR
        XRL     A,#0x17
        JNZ     ??checkVin_1
        MOV     DPTR,#(adcs16 + 4)
        LCALL   ?Subroutine57
??CrossCallReturnLabel_339:
        JNC     ??checkVin_4
//  691   {
//  692     if( dVOut > page.oscDeltaV )
        MOV     DPTR,#dVOut
        LCALL   ??Subroutine65_0
??CrossCallReturnLabel_152:
        MOV     DPH,#(((page + 136) >> 8) & 0xff)
        MOV     DPL,#((page + 136) & 0xff)
        LCALL   ?Subroutine97
??CrossCallReturnLabel_252:
        JNC     ??CrossCallReturnLabel_300
//  693       oscCondition++;
        MOV     DPTR,#??oscCondition
        MOVX    A,@DPTR
        INC     A
        MOVX    @DPTR,A
//  694     else
//  695       oscCondition = 0;
//  696 
//  697     if( oscCondition > 1 )
        CLR     C
        SUBB    A,#0x2
        JC      ??checkVin_5
//  698       {
//  699 	oscCondition = 0;
        CLR     A
        MOVX    @DPTR,A
//  700 	kickOsc();
        ; Setup parameters for call to function kickOsc
        LCALL   kickOsc
        SJMP    ??checkVin_5
//  701       }
//  702   }
//  703  else if(oscWhatToWaitFor == SetOscLowCurrentOnlyDelay)
??checkVin_1:
        MOV     DPTR,#oscWhatToWaitFor
        MOVX    A,@DPTR
        XRL     A,#0x17
        JNZ     ??checkVin_5
//  704    {
//  705      ticks[OscEvent] = page.oscLowCurrentOnlyDelay;
??checkVin_4:
        LCALL   ?Subroutine7
//  706      oscCondition = 0;
??CrossCallReturnLabel_300:
        CLR     A
        MOV     DPTR,#??oscCondition
        MOVX    @DPTR,A
//  707    }
//  708 
//  709 #ifdef MidString
//  710 UINT16 switchTo255Lim = 30000, switchFrom255Lim = 28500, shortCircuitProtectionOff = 8000, shortCircuitProtectionOn = 6000; 
//  711     if( ((UINT16)page.linearK[0][0]) > 16 ) // MS1000
//  712     { switchTo255Lim = 60000; switchFrom255Lim = 57000; shortCircuitProtectionOff = 16000; shortCircuitProtectionOn = 12000;  }
//  713 #endif
//  714     checkVref = page.vrefPolynom[0] / ((float)last[4]);
??checkVin_5:
        MOV     DPTR,#(page + 28)
        MOV     R0,#?V0 + 4
        LCALL   ?L_MOV_X
        MOV     DPTR,#(last + 8)
        LCALL   ?Subroutine13
??CrossCallReturnLabel_23:
        LCALL   ?UL_TO_FLT
        MOV     R0,#?V0 + 4
        MOV     R1,#?V0 + 0
        LCALL   ?FLT_DIV
        MOV     DPTR,#checkVref
        MOV     R0,#?V0 + 4
        LCALL   ?L_MOV_TO_X
//  715     _coeff = page.linearK[3];
        MOV     DPTR,#_coeff
        MOV     A,#((page + 64) & 0xff)
        MOVX    @DPTR,A
        INC     DPTR
        MOV     A,#(((page + 64) >> 8) & 0xff)
        MOVX    @DPTR,A
//  716     //safe_vin_16 = (UINT16) processCheck( last[5] );
//  717     safe_vin_16  = convU( lin_coeff( ((float) last[5])*checkVref ) );
        ; Setup parameters for call to function convU
        ; Setup parameters for call to function lin_coeff
        MOV     DPTR,#(last + 10)
        LCALL   ?Subroutine13
??CrossCallReturnLabel_24:
        LCALL   ?UL_TO_FLT
        MOV     DPTR,#checkVref
        MOV     R0,#?V0 + 4
        LCALL   ?L_MOV_X
        MOV     R0,#?V0 + 0
        MOV     R1,#?V0 + 4
        LCALL   ?FLT_MUL
        MOV     R2,?V0 + 0
        MOV     R3,?V0 + 1
        MOV     R4,?V0 + 2
        MOV     R5,?V0 + 3
        LCALL   lin_coeff
        LCALL   convU
        MOV     ?V0 + 0,R2
        MOV     ?V0 + 1,R3
        MOV     R6,?V0 + 0
        MOV     R7,?V0 + 1
//  718 
//  719     #ifndef MidString
//  720     if( P1_3 == 0 ){
        MOV     C,0x90.3
        JC      ??checkVin_6
//  721         if( P1_4  && (safe_vin_16 < (100*(UINT16)page.vin_switch_off) ) ){
        MOV     C,0x90.4
        JNC     ??checkVin_7
        MOV     DPTR,#(page + 239)
        LCALL   ?Subroutine55
??CrossCallReturnLabel_126:
        MOV     A,R6
        SUBB    A,R0
        MOV     A,R7
        SUBB    A,R1
        JNC     ??checkVin_7
//  722             ticks[ TurnOn ] = 3 * TICKS_IN_SEC;     P1_4 = 0; 
        MOV     DPTR,#ticks
        MOVX    A,@DPTR
        ADD     A,#0x14
        LCALL   ?Subroutine29
??CrossCallReturnLabel_55:
        CLR     0x90.4
        SJMP    ??checkVin_6
//  723         }else if( (P1_4 == 0) && turnOnFlag && ( safe_vin_16 > (100*(UINT16)page.vin_turn_on) ) ){
??checkVin_7:
        MOV     C,0x90.4
        JC      ??checkVin_6
        MOV     DPTR,#turnOnFlag
        MOVX    A,@DPTR
        JZ      ??checkVin_6
        MOV     DPTR,#(page + 238)
        LCALL   ?Subroutine55
??CrossCallReturnLabel_127:
        MOV     A,R0
        SUBB    A,R6
        MOV     A,R1
        SUBB    A,R7
        JNC     ??checkVin_6
//  724             turnOnFlag = 0; ticks[ BypassMode ] = TICKS_IN_SEC;  
        CLR     A
        MOV     DPTR,#turnOnFlag
        MOVX    @DPTR,A
        LCALL   ?Subroutine14
//  725             P1_3 = 1; ov_startup();
??CrossCallReturnLabel_371:
        SETB    0x90.3
        ; Setup parameters for call to function ov_startup
        LCALL   ov_startup
//  726         } 
//  727     }
//  728     #endif
//  729     if( (flags[ PackageReceived ]) || (flags[DataSent]) ){ flags[AltCheckVin] = TRUE; return; }
??checkVin_6:
        LCALL   ?Subroutine10
??CrossCallReturnLabel_9:
        JNZ     ??checkVin_8
        LCALL   ?Subroutine12
??CrossCallReturnLabel_17:
        JZ      ??checkVin_9
??checkVin_8:
        MOV     DPTR,#flags
        MOVX    A,@DPTR
        ADD     A,#0xb
        LCALL   ??Subroutine47_0
??CrossCallReturnLabel_89:
        MOV     A,#0x1
??checkVin_10:
        MOVX    @DPTR,A
        LJMP    ??CrossCallReturnLabel_310
//  730     
//  731     txDisabled = 0;
??checkVin_9:
        CLR     A
        MOV     DPTR,#txDisabled
        MOVX    @DPTR,A
//  732     if( page.vin_disable_radio ) txDisabled = ( safe_vin_16 < (1000*(UINT16)page.vin_disable_radio) ); 
        MOV     DPTR,#(page + 156)
        MOVX    A,@DPTR
        JZ      ??checkVin_11
        MOV     R0,A
        MOV     B,#-0x18
        MUL     AB
        XCH     A,R0
        MOV     R2,B
        MOV     B,#0x3
        MUL     AB
        ADD     A,R2
        MOV     R2,A
        CLR     A
        ADD     A,R2
        MOV     R1,A
        MOV     A,R6
        SUBB    A,R0
        MOV     A,R7
        SUBB    A,R1
        JNC     ??checkVin_12
        MOV     R2,#0x1
        SJMP    ??checkVin_13
??checkVin_12:
        MOV     R2,#0x0
??checkVin_13:
        MOV     A,R2
        MOV     DPTR,#txDisabled
        MOVX    @DPTR,A
//  733     
//  734     #ifndef MidString    
//  735     if( page.vin_limit ){
??checkVin_11:
        MOV     DPTR,#(page + 237)
        MOVX    A,@DPTR
        MOV     R3,A
        JZ      ??checkVin_14
//  736     register BOOL flag = ( safe_vin_16 < (page.vin_limit*100) );
        MOV     B,#0x64
        MUL     AB
        MOV     R0,A
        MOV     R2,B
        CLR     A
        ADD     A,R2
        MOV     R1,A
        MOV     A,R6
        SUBB    A,R0
        MOV     A,R7
        SUBB    A,R1
        JNC     ??checkVin_15
        MOV     R2,#0x1
        SJMP    ??checkVin_16
??checkVin_15:
        MOV     R2,#0x0
??checkVin_16:
        MOV     A,R2
        MOV     R4,A
//  737         if( !ch255 && flag ){
        MOV     DPTR,#ch255
        MOVX    A,@DPTR
        JNZ     ??checkVin_17
        MOV     A,R4
        JZ      ??checkVin_18
//  738           /*
//  739             curChannel = page.channel = 255;   
//  740             page.use12kbod  = TRUE;   page.hoppingAllowed = FALSE;
//  741             page.useFEC     = FALSE;  page.is500Always = FALSE; 
//  742             page.isRelay    = FALSE;  page.searchCommunication = FALSE;
//  743             page.myBunch    =  0;   page.netId = 0;  page.vin_disable_radio = 0;
//  744             page.production = 0;
//  745             //page.fuseComm   = 0;    page.fuseOVOC = 0;
//  746             mymemcpy( (BYTE *)page.curKey, (BYTE *)theKey, 32 ); 
//  747             page.syncword = 0xF0F0; page.edAddr = 2; page.gwAddr = 1;
//  748             ch255 = TRUE;   softKick();
//  749           */
//  750           switchTo255();
        ; Setup parameters for call to function switchTo255
        LCALL   switchTo255
        SJMP    ??checkVin_18
//  751         }else if( ch255 && !flag ){
??checkVin_17:
        MOV     A,R4
        JNZ     ??checkVin_18
//  752         BYTE curV255 = page.vin_limit;  
        MOV     A,R3
        MOV     R6,A
//  753             read_page(); 
        ; Setup parameters for call to function read_page
        LCALL   read_page
//  754             page.vin_limit = curV255;
        MOV     A,R6
        SJMP    ??checkVin_19
//  755             curChannel = page.channel;
//  756             softKick();
//  757         }
//  758     }else if( ch255 ){
??checkVin_14:
        MOV     DPTR,#ch255
        MOVX    A,@DPTR
        JZ      ??checkVin_18
//  759         BYTE curV255 = page.vin_limit;  
//  760         read_page();
        ; Setup parameters for call to function read_page
        LCALL   read_page
//  761         page.vin_limit = curV255;
        CLR     A
??checkVin_19:
        MOV     DPTR,#(page + 237)
        LCALL   ?Subroutine80
//  762         curChannel = page.channel;
??CrossCallReturnLabel_210:
        MOVX    @DPTR,A
//  763         softKick();
        ; Setup parameters for call to function softKick
        LCALL   softKick
//  764     }
//  765     #endif
//  766     
//  767     #ifdef MidString    
//  768     if( !ch255 && (safe_vin_16 > switchTo255Lim ) )        switchTo255(); // was 30000 for MS600, 60000 for MS1000 
//  769     else if( ch255 && ( safe_vin_16 < switchFrom255Lim ) ){                 // was 28500 for MS600, 57000 for MS1000
//  770         read_page();   
//  771         if( page.is500Always ) curChannel = page.starting500Channel; 
//  772         softKick();  
//  773     }
//  774     #endif
//  775     if( (flags[ PackageReceived ]) || (flags[DataSent]) ){ flags[AltCheckVin] = TRUE; return; }
??checkVin_18:
        LCALL   ?Subroutine10
??CrossCallReturnLabel_10:
        JZ      $+5
        LJMP    ??checkVin_8
        LCALL   ?Subroutine12
??CrossCallReturnLabel_18:
        JZ      $+5
        LJMP    ??checkVin_8
//  776     
//  777     // temperature protection
//  778     _coeff = page.linearK[4];
        MOV     DPTR,#_coeff
        MOV     A,#((page + 72) & 0xff)
        MOVX    @DPTR,A
        INC     DPTR
        MOV     A,#(((page + 72) >> 8) & 0xff)
        MOVX    @DPTR,A
//  779     t =  (INT16) lin_coeff_t( ((float)last[6]) * checkVref );
        ; Setup parameters for call to function lin_coeff_t
        MOV     DPTR,#(last + 12)
        LCALL   ?Subroutine13
??CrossCallReturnLabel_25:
        LCALL   ?UL_TO_FLT
        MOV     DPTR,#checkVref
        MOV     R0,#?V0 + 4
        LCALL   ?L_MOV_X
        MOV     R0,#?V0 + 0
        MOV     R1,#?V0 + 4
        LCALL   ?FLT_MUL
        MOV     R2,?V0 + 0
        MOV     R3,?V0 + 1
        MOV     R4,?V0 + 2
        MOV     R5,?V0 + 3
        LCALL   lin_coeff_t
        MOV     ?V0 + 0,R2
        MOV     ?V0 + 1,R3
        MOV     ?V0 + 2,R4
        MOV     ?V0 + 3,R5
        MOV     R0,#?V0 + 0
        LCALL   ?FLT_TO_L
        MOV     R2,?V0 + 0
        MOV     R3,?V0 + 1
//  780     // removed UINT16, removed whole T_Superhot
//  781     if( page.t_mod_off && (t > ((INT16)page.t_mod_off)) ){ isSteppedDown = TRUE;  P1_4 = 0;  }   // Critical Temperature protection
        MOV     DPTR,#(page + 224)
        MOVX    A,@DPTR
        JZ      ??checkVin_20
        LCALL   ?Subroutine5
??CrossCallReturnLabel_337:
        JNC     ??checkVin_20
        MOV     A,#0x1
        MOV     DPTR,#isSteppedDown
        MOVX    @DPTR,A
        CLR     0x90.4
        LJMP    ??CrossCallReturnLabel_310
//  782     else 
//  783     if( page.fallback_time && page.fallback_time!=0xFF ){                                   // Temperature protection
??checkVin_20:
        MOV     DPTR,#(page + 227)
        MOVX    A,@DPTR
        MOV     ?V0 + 0,A
        JNZ     $+5
        LJMP    ??CrossCallReturnLabel_310
        MOV     A,#-0x1
        XRL     A,?V0 + 0
        JNZ     $+5
        LJMP    ??CrossCallReturnLabel_310
//  784         if( checkVoutOnT )  checkVoutOnT--; 
        MOV     DPTR,#checkVoutOnT
        MOVX    A,@DPTR
        JNZ     ??checkVin_21
        INC     DPTR
        MOVX    A,@DPTR
??checkVin_21:
        JZ      ??checkVin_22
        MOV     DPTR,#checkVoutOnT
        LCALL   ?Subroutine51
??CrossCallReturnLabel_112:
        LJMP    ??checkVin_10
//  785         else{ 
//  786             checkVoutOnT = 8*(UINT16)page.fallback_time;
??checkVin_22:
        MOV     ?V0 + 1,#0x0
        MOV     A,#0x3
        MOV     R0,#?V0 + 0
        LCALL   ?S_SHL
        MOV     DPTR,#checkVoutOnT
        MOV     A,?V0 + 0
        MOVX    @DPTR,A
        INC     DPTR
        MOV     A,?V0 + 1
        MOVX    @DPTR,A
//  787             if( isSteppedDown ){
        MOV     DPTR,#isSteppedDown
        MOVX    A,@DPTR
        JZ      ??checkVin_23
//  788                 if( t < ((INT16)page.ton_fallback) ) {
        MOV     DPTR,#(page + 226)
        MOVX    A,@DPTR
        MOV     R0,A
        CLR     C
        MOV     A,R2
        SUBB    A,R0
        MOV     A,R3
        LCALL   ??Subroutine0_1
??CrossCallReturnLabel_327:
        JNC     ??checkVin_24
//  789                     if( !P1_4 ) ov_startup();   // module on, starting OV seq
        MOV     C,0x90.4
        JC      ??checkVin_25
        ; Setup parameters for call to function ov_startup
        LCALL   ov_startup
//  790                     T3CC1 = oc2timer( theOC = setOC ); isSteppedDown = FALSE;
??checkVin_25:
        MOV     DPTR,#setOC
        MOVX    A,@DPTR
        MOV     DPTR,#theOC
        MOVX    @DPTR,A
        ; Setup parameters for call to function oc2timer
        LCALL   ?Subroutine85
??CrossCallReturnLabel_309:
        CLR     A
        MOV     DPTR,#isSteppedDown
        LJMP    ??checkVin_10
//  791                 }else if( P1_4 && /*( t > t_prev ) &&*/ theOC ) T3CC1 = oc2timer( --theOC );  
??checkVin_24:
        MOV     C,0x90.4
        JNC     ??CrossCallReturnLabel_310
        MOV     DPTR,#theOC
        MOVX    A,@DPTR
        JZ      ??CrossCallReturnLabel_310
        DEC     A
        MOVX    @DPTR,A
        ; Setup parameters for call to function oc2timer
        SJMP    ??checkVin_26
//  792             }else  if( P1_4 && ( t > ((INT16)page.toff_fallback) ) ) {  
??checkVin_23:
        MOV     C,0x90.4
        JNC     ??CrossCallReturnLabel_310
        MOV     DPTR,#(page + 225)
        MOVX    A,@DPTR
        LCALL   ?Subroutine5
??CrossCallReturnLabel_338:
        JNC     ??CrossCallReturnLabel_310
//  793                 if( theOC > page.oc_protection ) theOC = page.oc_protection; else theOC--;
        MOV     DPTR,#(page + 230)
        MOVX    A,@DPTR
        MOV     R3,A
        MOV     DPTR,#theOC
        MOVX    A,@DPTR
        MOV     R2,A
        MOV     A,R3
        CLR     C
        SUBB    A,R2
        JNC     ??checkVin_27
        MOV     A,R3
        SJMP    ??checkVin_28
??checkVin_27:
        MOVX    A,@DPTR
        DEC     A
??checkVin_28:
        MOVX    @DPTR,A
//  794                 isSteppedDown = TRUE;   T3CC1 = oc2timer( theOC );  
        MOV     A,#0x1
        MOV     DPTR,#isSteppedDown
        MOVX    @DPTR,A
        ; Setup parameters for call to function oc2timer
        MOV     DPTR,#theOC
        MOVX    A,@DPTR
??checkVin_26:
        LCALL   ?Subroutine85
??CrossCallReturnLabel_310:
        LJMP    ??Subroutine124_1
        CFI EndBlock cfiBlock52
        REQUIRE _A_P1
        REQUIRE T3CC1
//  795             }
//  796 //            #ifdef MidString
//  797 //            compute98();
//  798 //            #endif
//  799         }
//  800     } 
//  801     #ifdef MidString
//  802     if( (flags[ PackageReceived ]) || (flags[DataSent]) ){ flags[AltCheckVin] = TRUE; return; }
//  803     if( page.shortCircuitLevel && P1_4 ){ // module on and shortCircuitLevel is not 0
//  804         UINT16 vout; 
//  805         _coeff = page.linearK[0]; vout = convU( lin_coeff( ((float) last[0])*checkVref ) );
//  806         if( ocShortCircuitLimit < 255 ){ // Short Circuit Protection is currently ON
//  807           if( vout > shortCircuitProtectionOff ) // was 8000 - 160V on Midstring 600V, 16000 (320 V) on MS1000 turning Short Circuit Protection OFF
//  808               { ocShortCircuitLimit = 255;  T3CC1 = oc2timer( theOC );  }  
//  809         }else{                           // Short Circuit Protection is currently OFF
//  810           if( vout < shortCircuitProtectionOn ) // was 6000 - 120V on Midstring 600V, was 1200 for MS1000, turning Short Circuit Protection ON
//  811               { ocShortCircuitLimit = page.shortCircuitLevel;  T3CC1 = oc2timer( theOC );  }  
//  812         }
//  813     }else ocShortCircuitLimit = 255;  // if module OFF -> no Short Circuit Protection, turning it OFF
//  814     #endif    
//  815     
//  816     /* temporary commented for version 7a !!!
//  817     // noise amplifier reset - MidString only
//  818     #ifdef MidString
//  819     static INT8 noiseAmplCnt = 0;
//  820     if( page.mpp && ( P1_3 || (noiseAmplCnt > -1) ) ) {
//  821         UINT16 vout; INT16 cur; BOOL noiseAmplResetRequired;
//  822         _coeff = page.linearK[0]; vout = convU( lin_coeff( ((float) last[0])*checkVref ) );
//  823         _coeff = page.linearK[2]; cur  = convS( lin_coeff( ((float) last[2])*checkVref ) );
//  824         
//  825         noiseAmplResetRequired  = page.k_oc_cur  && (page.k_oc_cur  != 0xFF) && ( cur  > Cur98  );
//  826         noiseAmplResetRequired |= page.k_ov_volt && (page.k_ov_volt != 0xFF) && ( vout > Vout98 );
//  827         
//  828         if( noiseAmplResetRequired ){
//  829           // reset error amplifier once a second, for one mpp period
//  830           if( noiseAmplCnt <= 0 ){ P1_3 = 0; noiseAmplCnt = 0; }
//  831           if( noiseAmplCnt == 1 ){ P1_3 = page.mpp;  }
//  832         }else{ P1_3 = page.mpp; } // mpp on
//  833     }
//  834     noiseAmplCnt = (noiseAmplCnt+1)%8;
//  835     #endif
//  836     */
//  837 }

        RSEG NEAR_CODE:CODE:NOROOT(0)
?Subroutine85:
        CFI Block cfiCond53 Using cfiCommon0
        CFI NoFunction
        CFI Conditional ??CrossCallReturnLabel_309
        CFI R6 load(1, XDATA, add(CFA_XSP16, literal(-15)))
        CFI VB load(1, XDATA, add(CFA_XSP16, literal(-14)))
        CFI V0 load(1, XDATA, add(CFA_XSP16, literal(-13)))
        CFI V1 load(1, XDATA, add(CFA_XSP16, literal(-12)))
        CFI V2 load(1, XDATA, add(CFA_XSP16, literal(-11)))
        CFI V3 load(1, XDATA, add(CFA_XSP16, literal(-10)))
        CFI V4 load(1, XDATA, add(CFA_XSP16, literal(-9)))
        CFI V5 load(1, XDATA, add(CFA_XSP16, literal(-8)))
        CFI V6 load(1, XDATA, add(CFA_XSP16, literal(-7)))
        CFI V7 load(1, XDATA, add(CFA_XSP16, literal(-6)))
        CFI R7 load(1, XDATA, add(CFA_XSP16, literal(-5)))
        CFI ?RET_LOW load(1, XDATA, add(CFA_XSP16, literal(-4)))
        CFI ?RET_HIGH load(1, XDATA, add(CFA_XSP16, literal(-3)))
        CFI DPL0 load(1, XDATA, add(CFA_XSP16, literal(-2)))
        CFI DPH0 load(1, XDATA, add(CFA_XSP16, literal(-1)))
        CFI CFA_SP SP+0
        CFI CFA_XSP16 add(XSP16, 15)
        CFI Block cfiCond54 Using cfiCommon0
        CFI (cfiCond54) NoFunction
        CFI (cfiCond54) Conditional ??CrossCallReturnLabel_310
        CFI (cfiCond54) R6 load(1, XDATA, add(CFA_XSP16, literal(-15)))
        CFI (cfiCond54) VB load(1, XDATA, add(CFA_XSP16, literal(-14)))
        CFI (cfiCond54) V0 load(1, XDATA, add(CFA_XSP16, literal(-13)))
        CFI (cfiCond54) V1 load(1, XDATA, add(CFA_XSP16, literal(-12)))
        CFI (cfiCond54) V2 load(1, XDATA, add(CFA_XSP16, literal(-11)))
        CFI (cfiCond54) V3 load(1, XDATA, add(CFA_XSP16, literal(-10)))
        CFI (cfiCond54) V4 load(1, XDATA, add(CFA_XSP16, literal(-9)))
        CFI (cfiCond54) V5 load(1, XDATA, add(CFA_XSP16, literal(-8)))
        CFI (cfiCond54) V6 load(1, XDATA, add(CFA_XSP16, literal(-7)))
        CFI (cfiCond54) V7 load(1, XDATA, add(CFA_XSP16, literal(-6)))
        CFI (cfiCond54) R7 load(1, XDATA, add(CFA_XSP16, literal(-5)))
        CFI (cfiCond54) ?RET_LOW load(1, XDATA, add(CFA_XSP16, literal(-4)))
        CFI (cfiCond54) ?RET_HIGH load(1, XDATA, add(CFA_XSP16, literal(-3)))
        CFI (cfiCond54) DPL0 load(1, XDATA, add(CFA_XSP16, literal(-2)))
        CFI (cfiCond54) DPH0 load(1, XDATA, add(CFA_XSP16, literal(-1)))
        CFI (cfiCond54) CFA_SP SP+0
        CFI (cfiCond54) CFA_XSP16 add(XSP16, 15)
        CFI Block cfiCond55 Using cfiCommon0
        CFI (cfiCond55) NoFunction
        CFI (cfiCond55) Conditional ??CrossCallReturnLabel_311
        CFI (cfiCond55) R6 load(1, XDATA, add(CFA_XSP16, literal(-19)))
        CFI (cfiCond55) VB load(1, XDATA, add(CFA_XSP16, literal(-18)))
        CFI (cfiCond55) V0 load(1, XDATA, add(CFA_XSP16, literal(-17)))
        CFI (cfiCond55) V1 load(1, XDATA, add(CFA_XSP16, literal(-16)))
        CFI (cfiCond55) V2 load(1, XDATA, add(CFA_XSP16, literal(-15)))
        CFI (cfiCond55) V3 load(1, XDATA, add(CFA_XSP16, literal(-14)))
        CFI (cfiCond55) V4 load(1, XDATA, add(CFA_XSP16, literal(-13)))
        CFI (cfiCond55) V5 load(1, XDATA, add(CFA_XSP16, literal(-12)))
        CFI (cfiCond55) V6 load(1, XDATA, add(CFA_XSP16, literal(-11)))
        CFI (cfiCond55) V7 load(1, XDATA, add(CFA_XSP16, literal(-10)))
        CFI (cfiCond55) V8 load(1, XDATA, add(CFA_XSP16, literal(-9)))
        CFI (cfiCond55) V9 load(1, XDATA, add(CFA_XSP16, literal(-8)))
        CFI (cfiCond55) V10 load(1, XDATA, add(CFA_XSP16, literal(-7)))
        CFI (cfiCond55) V11 load(1, XDATA, add(CFA_XSP16, literal(-6)))
        CFI (cfiCond55) R7 load(1, XDATA, add(CFA_XSP16, literal(-5)))
        CFI (cfiCond55) ?RET_LOW load(1, XDATA, add(CFA_XSP16, literal(-4)))
        CFI (cfiCond55) ?RET_HIGH load(1, XDATA, add(CFA_XSP16, literal(-3)))
        CFI (cfiCond55) DPL0 load(1, XDATA, add(CFA_XSP16, literal(-2)))
        CFI (cfiCond55) DPH0 load(1, XDATA, add(CFA_XSP16, literal(-1)))
        CFI (cfiCond55) CFA_SP SP+0
        CFI (cfiCond55) CFA_XSP16 add(XSP16, 19)
        CFI Block cfiPicker56 Using cfiCommon1
        CFI (cfiPicker56) NoFunction
        CFI (cfiPicker56) Picker
        MOV     R1,A
        CFI EndBlock cfiCond53
        CFI EndBlock cfiCond54
        CFI EndBlock cfiCond55
        CFI EndBlock cfiPicker56
        REQUIRE ?Subroutine113
        ; // Fall through to label ?Subroutine113

        RSEG NEAR_CODE:CODE:NOROOT(0)
?Subroutine113:
        CFI Block cfiCond57 Using cfiCommon0
        CFI NoFunction
        CFI Conditional ??CrossCallReturnLabel_309
        CFI R6 load(1, XDATA, add(CFA_XSP16, literal(-15)))
        CFI VB load(1, XDATA, add(CFA_XSP16, literal(-14)))
        CFI V0 load(1, XDATA, add(CFA_XSP16, literal(-13)))
        CFI V1 load(1, XDATA, add(CFA_XSP16, literal(-12)))
        CFI V2 load(1, XDATA, add(CFA_XSP16, literal(-11)))
        CFI V3 load(1, XDATA, add(CFA_XSP16, literal(-10)))
        CFI V4 load(1, XDATA, add(CFA_XSP16, literal(-9)))
        CFI V5 load(1, XDATA, add(CFA_XSP16, literal(-8)))
        CFI V6 load(1, XDATA, add(CFA_XSP16, literal(-7)))
        CFI V7 load(1, XDATA, add(CFA_XSP16, literal(-6)))
        CFI R7 load(1, XDATA, add(CFA_XSP16, literal(-5)))
        CFI ?RET_LOW load(1, XDATA, add(CFA_XSP16, literal(-4)))
        CFI ?RET_HIGH load(1, XDATA, add(CFA_XSP16, literal(-3)))
        CFI DPL0 load(1, XDATA, add(CFA_XSP16, literal(-2)))
        CFI DPH0 load(1, XDATA, add(CFA_XSP16, literal(-1)))
        CFI CFA_SP SP+0
        CFI CFA_XSP16 add(XSP16, 15)
        CFI Block cfiCond58 Using cfiCommon0
        CFI (cfiCond58) NoFunction
        CFI (cfiCond58) Conditional ??CrossCallReturnLabel_310
        CFI (cfiCond58) R6 load(1, XDATA, add(CFA_XSP16, literal(-15)))
        CFI (cfiCond58) VB load(1, XDATA, add(CFA_XSP16, literal(-14)))
        CFI (cfiCond58) V0 load(1, XDATA, add(CFA_XSP16, literal(-13)))
        CFI (cfiCond58) V1 load(1, XDATA, add(CFA_XSP16, literal(-12)))
        CFI (cfiCond58) V2 load(1, XDATA, add(CFA_XSP16, literal(-11)))
        CFI (cfiCond58) V3 load(1, XDATA, add(CFA_XSP16, literal(-10)))
        CFI (cfiCond58) V4 load(1, XDATA, add(CFA_XSP16, literal(-9)))
        CFI (cfiCond58) V5 load(1, XDATA, add(CFA_XSP16, literal(-8)))
        CFI (cfiCond58) V6 load(1, XDATA, add(CFA_XSP16, literal(-7)))
        CFI (cfiCond58) V7 load(1, XDATA, add(CFA_XSP16, literal(-6)))
        CFI (cfiCond58) R7 load(1, XDATA, add(CFA_XSP16, literal(-5)))
        CFI (cfiCond58) ?RET_LOW load(1, XDATA, add(CFA_XSP16, literal(-4)))
        CFI (cfiCond58) ?RET_HIGH load(1, XDATA, add(CFA_XSP16, literal(-3)))
        CFI (cfiCond58) DPL0 load(1, XDATA, add(CFA_XSP16, literal(-2)))
        CFI (cfiCond58) DPH0 load(1, XDATA, add(CFA_XSP16, literal(-1)))
        CFI (cfiCond58) CFA_SP SP+0
        CFI (cfiCond58) CFA_XSP16 add(XSP16, 15)
        CFI Block cfiCond59 Using cfiCommon0
        CFI (cfiCond59) NoFunction
        CFI (cfiCond59) Conditional ??CrossCallReturnLabel_311
        CFI (cfiCond59) R6 load(1, XDATA, add(CFA_XSP16, literal(-19)))
        CFI (cfiCond59) VB load(1, XDATA, add(CFA_XSP16, literal(-18)))
        CFI (cfiCond59) V0 load(1, XDATA, add(CFA_XSP16, literal(-17)))
        CFI (cfiCond59) V1 load(1, XDATA, add(CFA_XSP16, literal(-16)))
        CFI (cfiCond59) V2 load(1, XDATA, add(CFA_XSP16, literal(-15)))
        CFI (cfiCond59) V3 load(1, XDATA, add(CFA_XSP16, literal(-14)))
        CFI (cfiCond59) V4 load(1, XDATA, add(CFA_XSP16, literal(-13)))
        CFI (cfiCond59) V5 load(1, XDATA, add(CFA_XSP16, literal(-12)))
        CFI (cfiCond59) V6 load(1, XDATA, add(CFA_XSP16, literal(-11)))
        CFI (cfiCond59) V7 load(1, XDATA, add(CFA_XSP16, literal(-10)))
        CFI (cfiCond59) V8 load(1, XDATA, add(CFA_XSP16, literal(-9)))
        CFI (cfiCond59) V9 load(1, XDATA, add(CFA_XSP16, literal(-8)))
        CFI (cfiCond59) V10 load(1, XDATA, add(CFA_XSP16, literal(-7)))
        CFI (cfiCond59) V11 load(1, XDATA, add(CFA_XSP16, literal(-6)))
        CFI (cfiCond59) R7 load(1, XDATA, add(CFA_XSP16, literal(-5)))
        CFI (cfiCond59) ?RET_LOW load(1, XDATA, add(CFA_XSP16, literal(-4)))
        CFI (cfiCond59) ?RET_HIGH load(1, XDATA, add(CFA_XSP16, literal(-3)))
        CFI (cfiCond59) DPL0 load(1, XDATA, add(CFA_XSP16, literal(-2)))
        CFI (cfiCond59) DPH0 load(1, XDATA, add(CFA_XSP16, literal(-1)))
        CFI (cfiCond59) CFA_SP SP+0
        CFI (cfiCond59) CFA_XSP16 add(XSP16, 19)
        CFI Block cfiCond60 Using cfiCommon0
        CFI (cfiCond60) NoFunction
        CFI (cfiCond60) Conditional ??CrossCallReturnLabel_312
        CFI (cfiCond60) R6 load(1, XDATA, add(CFA_XSP16, literal(-11)))
        CFI (cfiCond60) VB load(1, XDATA, add(CFA_XSP16, literal(-10)))
        CFI (cfiCond60) V0 load(1, XDATA, add(CFA_XSP16, literal(-9)))
        CFI (cfiCond60) V1 load(1, XDATA, add(CFA_XSP16, literal(-8)))
        CFI (cfiCond60) V2 load(1, XDATA, add(CFA_XSP16, literal(-7)))
        CFI (cfiCond60) V3 load(1, XDATA, add(CFA_XSP16, literal(-6)))
        CFI (cfiCond60) R7 load(1, XDATA, add(CFA_XSP16, literal(-5)))
        CFI (cfiCond60) ?RET_LOW load(1, XDATA, add(CFA_XSP16, literal(-4)))
        CFI (cfiCond60) ?RET_HIGH load(1, XDATA, add(CFA_XSP16, literal(-3)))
        CFI (cfiCond60) DPL0 load(1, XDATA, add(CFA_XSP16, literal(-2)))
        CFI (cfiCond60) DPH0 load(1, XDATA, add(CFA_XSP16, literal(-1)))
        CFI (cfiCond60) CFA_SP SP+0
        CFI (cfiCond60) CFA_XSP16 add(XSP16, 11)
        CFI Block cfiCond61 Using cfiCommon0
        CFI (cfiCond61) NoFunction
        CFI (cfiCond61) Conditional ??CrossCallReturnLabel_307
        CFI Block cfiCond62 Using cfiCommon0
        CFI (cfiCond62) NoFunction
        CFI (cfiCond62) Conditional ??CrossCallReturnLabel_308
        CFI Block cfiPicker63 Using cfiCommon1
        CFI (cfiPicker63) NoFunction
        CFI (cfiPicker63) Picker
        LCALL   oc2timer
        MOV     A,R1
        MOV     0xcf,A
        RET
        CFI EndBlock cfiCond57
        CFI EndBlock cfiCond58
        CFI EndBlock cfiCond59
        CFI EndBlock cfiCond60
        CFI EndBlock cfiCond61
        CFI EndBlock cfiCond62
        CFI EndBlock cfiPicker63

        RSEG NEAR_CODE:CODE:NOROOT(0)
?Subroutine60:
        CFI Block cfiCond64 Using cfiCommon0
        CFI NoFunction
        CFI Conditional ??CrossCallReturnLabel_136
        CFI R6 load(1, XDATA, add(CFA_XSP16, literal(-15)))
        CFI VB load(1, XDATA, add(CFA_XSP16, literal(-14)))
        CFI V0 load(1, XDATA, add(CFA_XSP16, literal(-13)))
        CFI V1 load(1, XDATA, add(CFA_XSP16, literal(-12)))
        CFI V2 load(1, XDATA, add(CFA_XSP16, literal(-11)))
        CFI V3 load(1, XDATA, add(CFA_XSP16, literal(-10)))
        CFI V4 load(1, XDATA, add(CFA_XSP16, literal(-9)))
        CFI V5 load(1, XDATA, add(CFA_XSP16, literal(-8)))
        CFI V6 load(1, XDATA, add(CFA_XSP16, literal(-7)))
        CFI V7 load(1, XDATA, add(CFA_XSP16, literal(-6)))
        CFI R7 load(1, XDATA, add(CFA_XSP16, literal(-5)))
        CFI ?RET_LOW load(1, XDATA, add(CFA_XSP16, literal(-4)))
        CFI ?RET_HIGH load(1, XDATA, add(CFA_XSP16, literal(-3)))
        CFI DPL0 load(1, XDATA, add(CFA_XSP16, literal(-2)))
        CFI DPH0 load(1, XDATA, add(CFA_XSP16, literal(-1)))
        CFI CFA_SP SP+0
        CFI CFA_XSP16 add(XSP16, 15)
        CFI Block cfiCond65 Using cfiCommon0
        CFI (cfiCond65) NoFunction
        CFI (cfiCond65) Conditional ??CrossCallReturnLabel_137
        CFI (cfiCond65) R6 load(1, XDATA, add(CFA_XSP16, literal(-9)))
        CFI (cfiCond65) VB load(1, XDATA, add(CFA_XSP16, literal(-8)))
        CFI (cfiCond65) V0 load(1, XDATA, add(CFA_XSP16, literal(-7)))
        CFI (cfiCond65) V1 load(1, XDATA, add(CFA_XSP16, literal(-6)))
        CFI (cfiCond65) R7 load(1, XDATA, add(CFA_XSP16, literal(-5)))
        CFI (cfiCond65) ?RET_LOW load(1, XDATA, add(CFA_XSP16, literal(-4)))
        CFI (cfiCond65) ?RET_HIGH load(1, XDATA, add(CFA_XSP16, literal(-3)))
        CFI (cfiCond65) DPL0 load(1, XDATA, add(CFA_XSP16, literal(-2)))
        CFI (cfiCond65) DPH0 load(1, XDATA, add(CFA_XSP16, literal(-1)))
        CFI (cfiCond65) CFA_SP SP+0
        CFI (cfiCond65) CFA_XSP16 add(XSP16, 9)
        CFI Block cfiPicker66 Using cfiCommon1
        CFI (cfiPicker66) NoFunction
        CFI (cfiPicker66) Picker
        MOV     DPTR,#(page + 134)
        CFI Block cfiCond67 Using cfiCommon0
        CFI (cfiCond67) NoFunction
        CFI (cfiCond67) Conditional ??CrossCallReturnLabel_138
        CFI (cfiCond67) R6 load(1, XDATA, add(CFA_XSP16, literal(-15)))
        CFI (cfiCond67) VB load(1, XDATA, add(CFA_XSP16, literal(-14)))
        CFI (cfiCond67) V0 load(1, XDATA, add(CFA_XSP16, literal(-13)))
        CFI (cfiCond67) V1 load(1, XDATA, add(CFA_XSP16, literal(-12)))
        CFI (cfiCond67) V2 load(1, XDATA, add(CFA_XSP16, literal(-11)))
        CFI (cfiCond67) V3 load(1, XDATA, add(CFA_XSP16, literal(-10)))
        CFI (cfiCond67) V4 load(1, XDATA, add(CFA_XSP16, literal(-9)))
        CFI (cfiCond67) V5 load(1, XDATA, add(CFA_XSP16, literal(-8)))
        CFI (cfiCond67) V6 load(1, XDATA, add(CFA_XSP16, literal(-7)))
        CFI (cfiCond67) V7 load(1, XDATA, add(CFA_XSP16, literal(-6)))
        CFI (cfiCond67) R7 load(1, XDATA, add(CFA_XSP16, literal(-5)))
        CFI (cfiCond67) ?RET_LOW load(1, XDATA, add(CFA_XSP16, literal(-4)))
        CFI (cfiCond67) ?RET_HIGH load(1, XDATA, add(CFA_XSP16, literal(-3)))
        CFI (cfiCond67) DPL0 load(1, XDATA, add(CFA_XSP16, literal(-2)))
        CFI (cfiCond67) DPH0 load(1, XDATA, add(CFA_XSP16, literal(-1)))
        CFI (cfiCond67) CFA_SP SP+0
        CFI (cfiCond67) CFA_XSP16 add(XSP16, 15)
??Subroutine60_0:
        LCALL   ?Subroutine100
??CrossCallReturnLabel_266:
        MOV     A,R0
        RET
        CFI EndBlock cfiCond64
        CFI EndBlock cfiCond65
        CFI EndBlock cfiPicker66
        CFI EndBlock cfiCond67

        RSEG NEAR_CODE:CODE:NOROOT(0)
?Subroutine55:
        CFI Block cfiCond68 Using cfiCommon0
        CFI NoFunction
        CFI Conditional ??CrossCallReturnLabel_126
        CFI R6 load(1, XDATA, add(CFA_XSP16, literal(-15)))
        CFI VB load(1, XDATA, add(CFA_XSP16, literal(-14)))
        CFI V0 load(1, XDATA, add(CFA_XSP16, literal(-13)))
        CFI V1 load(1, XDATA, add(CFA_XSP16, literal(-12)))
        CFI V2 load(1, XDATA, add(CFA_XSP16, literal(-11)))
        CFI V3 load(1, XDATA, add(CFA_XSP16, literal(-10)))
        CFI V4 load(1, XDATA, add(CFA_XSP16, literal(-9)))
        CFI V5 load(1, XDATA, add(CFA_XSP16, literal(-8)))
        CFI V6 load(1, XDATA, add(CFA_XSP16, literal(-7)))
        CFI V7 load(1, XDATA, add(CFA_XSP16, literal(-6)))
        CFI R7 load(1, XDATA, add(CFA_XSP16, literal(-5)))
        CFI ?RET_LOW load(1, XDATA, add(CFA_XSP16, literal(-4)))
        CFI ?RET_HIGH load(1, XDATA, add(CFA_XSP16, literal(-3)))
        CFI DPL0 load(1, XDATA, add(CFA_XSP16, literal(-2)))
        CFI DPH0 load(1, XDATA, add(CFA_XSP16, literal(-1)))
        CFI CFA_SP SP+0
        CFI CFA_XSP16 add(XSP16, 15)
        CFI Block cfiCond69 Using cfiCommon0
        CFI (cfiCond69) NoFunction
        CFI (cfiCond69) Conditional ??CrossCallReturnLabel_127
        CFI (cfiCond69) R6 load(1, XDATA, add(CFA_XSP16, literal(-15)))
        CFI (cfiCond69) VB load(1, XDATA, add(CFA_XSP16, literal(-14)))
        CFI (cfiCond69) V0 load(1, XDATA, add(CFA_XSP16, literal(-13)))
        CFI (cfiCond69) V1 load(1, XDATA, add(CFA_XSP16, literal(-12)))
        CFI (cfiCond69) V2 load(1, XDATA, add(CFA_XSP16, literal(-11)))
        CFI (cfiCond69) V3 load(1, XDATA, add(CFA_XSP16, literal(-10)))
        CFI (cfiCond69) V4 load(1, XDATA, add(CFA_XSP16, literal(-9)))
        CFI (cfiCond69) V5 load(1, XDATA, add(CFA_XSP16, literal(-8)))
        CFI (cfiCond69) V6 load(1, XDATA, add(CFA_XSP16, literal(-7)))
        CFI (cfiCond69) V7 load(1, XDATA, add(CFA_XSP16, literal(-6)))
        CFI (cfiCond69) R7 load(1, XDATA, add(CFA_XSP16, literal(-5)))
        CFI (cfiCond69) ?RET_LOW load(1, XDATA, add(CFA_XSP16, literal(-4)))
        CFI (cfiCond69) ?RET_HIGH load(1, XDATA, add(CFA_XSP16, literal(-3)))
        CFI (cfiCond69) DPL0 load(1, XDATA, add(CFA_XSP16, literal(-2)))
        CFI (cfiCond69) DPH0 load(1, XDATA, add(CFA_XSP16, literal(-1)))
        CFI (cfiCond69) CFA_SP SP+0
        CFI (cfiCond69) CFA_XSP16 add(XSP16, 15)
        CFI Block cfiPicker70 Using cfiCommon1
        CFI (cfiPicker70) NoFunction
        CFI (cfiPicker70) Picker
        MOVX    A,@DPTR
        MOV     B,#0x64
        MUL     AB
        MOV     R0,A
        MOV     R2,B
        CLR     A
        ADD     A,R2
        MOV     R1,A
        RET
        CFI EndBlock cfiCond68
        CFI EndBlock cfiCond69
        CFI EndBlock cfiPicker70

        RSEG NEAR_CODE:CODE:NOROOT(0)
?Subroutine13:
        CFI Block cfiCond71 Using cfiCommon0
        CFI NoFunction
        CFI Conditional ??CrossCallReturnLabel_23
        CFI R6 load(1, XDATA, add(CFA_XSP16, literal(-15)))
        CFI VB load(1, XDATA, add(CFA_XSP16, literal(-14)))
        CFI V0 load(1, XDATA, add(CFA_XSP16, literal(-13)))
        CFI V1 load(1, XDATA, add(CFA_XSP16, literal(-12)))
        CFI V2 load(1, XDATA, add(CFA_XSP16, literal(-11)))
        CFI V3 load(1, XDATA, add(CFA_XSP16, literal(-10)))
        CFI V4 load(1, XDATA, add(CFA_XSP16, literal(-9)))
        CFI V5 load(1, XDATA, add(CFA_XSP16, literal(-8)))
        CFI V6 load(1, XDATA, add(CFA_XSP16, literal(-7)))
        CFI V7 load(1, XDATA, add(CFA_XSP16, literal(-6)))
        CFI R7 load(1, XDATA, add(CFA_XSP16, literal(-5)))
        CFI ?RET_LOW load(1, XDATA, add(CFA_XSP16, literal(-4)))
        CFI ?RET_HIGH load(1, XDATA, add(CFA_XSP16, literal(-3)))
        CFI DPL0 load(1, XDATA, add(CFA_XSP16, literal(-2)))
        CFI DPH0 load(1, XDATA, add(CFA_XSP16, literal(-1)))
        CFI CFA_SP SP+0
        CFI CFA_XSP16 add(XSP16, 15)
        CFI Block cfiCond72 Using cfiCommon0
        CFI (cfiCond72) NoFunction
        CFI (cfiCond72) Conditional ??CrossCallReturnLabel_24
        CFI (cfiCond72) R6 load(1, XDATA, add(CFA_XSP16, literal(-15)))
        CFI (cfiCond72) VB load(1, XDATA, add(CFA_XSP16, literal(-14)))
        CFI (cfiCond72) V0 load(1, XDATA, add(CFA_XSP16, literal(-13)))
        CFI (cfiCond72) V1 load(1, XDATA, add(CFA_XSP16, literal(-12)))
        CFI (cfiCond72) V2 load(1, XDATA, add(CFA_XSP16, literal(-11)))
        CFI (cfiCond72) V3 load(1, XDATA, add(CFA_XSP16, literal(-10)))
        CFI (cfiCond72) V4 load(1, XDATA, add(CFA_XSP16, literal(-9)))
        CFI (cfiCond72) V5 load(1, XDATA, add(CFA_XSP16, literal(-8)))
        CFI (cfiCond72) V6 load(1, XDATA, add(CFA_XSP16, literal(-7)))
        CFI (cfiCond72) V7 load(1, XDATA, add(CFA_XSP16, literal(-6)))
        CFI (cfiCond72) R7 load(1, XDATA, add(CFA_XSP16, literal(-5)))
        CFI (cfiCond72) ?RET_LOW load(1, XDATA, add(CFA_XSP16, literal(-4)))
        CFI (cfiCond72) ?RET_HIGH load(1, XDATA, add(CFA_XSP16, literal(-3)))
        CFI (cfiCond72) DPL0 load(1, XDATA, add(CFA_XSP16, literal(-2)))
        CFI (cfiCond72) DPH0 load(1, XDATA, add(CFA_XSP16, literal(-1)))
        CFI (cfiCond72) CFA_SP SP+0
        CFI (cfiCond72) CFA_XSP16 add(XSP16, 15)
        CFI Block cfiCond73 Using cfiCommon0
        CFI (cfiCond73) NoFunction
        CFI (cfiCond73) Conditional ??CrossCallReturnLabel_25
        CFI (cfiCond73) R6 load(1, XDATA, add(CFA_XSP16, literal(-15)))
        CFI (cfiCond73) VB load(1, XDATA, add(CFA_XSP16, literal(-14)))
        CFI (cfiCond73) V0 load(1, XDATA, add(CFA_XSP16, literal(-13)))
        CFI (cfiCond73) V1 load(1, XDATA, add(CFA_XSP16, literal(-12)))
        CFI (cfiCond73) V2 load(1, XDATA, add(CFA_XSP16, literal(-11)))
        CFI (cfiCond73) V3 load(1, XDATA, add(CFA_XSP16, literal(-10)))
        CFI (cfiCond73) V4 load(1, XDATA, add(CFA_XSP16, literal(-9)))
        CFI (cfiCond73) V5 load(1, XDATA, add(CFA_XSP16, literal(-8)))
        CFI (cfiCond73) V6 load(1, XDATA, add(CFA_XSP16, literal(-7)))
        CFI (cfiCond73) V7 load(1, XDATA, add(CFA_XSP16, literal(-6)))
        CFI (cfiCond73) R7 load(1, XDATA, add(CFA_XSP16, literal(-5)))
        CFI (cfiCond73) ?RET_LOW load(1, XDATA, add(CFA_XSP16, literal(-4)))
        CFI (cfiCond73) ?RET_HIGH load(1, XDATA, add(CFA_XSP16, literal(-3)))
        CFI (cfiCond73) DPL0 load(1, XDATA, add(CFA_XSP16, literal(-2)))
        CFI (cfiCond73) DPH0 load(1, XDATA, add(CFA_XSP16, literal(-1)))
        CFI (cfiCond73) CFA_SP SP+0
        CFI (cfiCond73) CFA_XSP16 add(XSP16, 15)
        CFI Block cfiPicker74 Using cfiCommon1
        CFI (cfiPicker74) NoFunction
        CFI (cfiPicker74) Picker
        MOVX    A,@DPTR
        MOV     ?V0 + 0,A
        INC     DPTR
        MOVX    A,@DPTR
        MOV     ?V0 + 1,A
        MOV     ?V0 + 2,#0x0
        MOV     ?V0 + 3,#0x0
        MOV     R0,#?V0 + 0
        RET
        CFI EndBlock cfiCond71
        CFI EndBlock cfiCond72
        CFI EndBlock cfiCond73
        CFI EndBlock cfiPicker74

        RSEG NEAR_CODE:CODE:NOROOT(0)
?Subroutine5:
        CFI Block cfiCond75 Using cfiCommon0
        CFI NoFunction
        CFI Conditional ??CrossCallReturnLabel_337
        CFI R6 load(1, XDATA, add(CFA_XSP16, literal(-15)))
        CFI VB load(1, XDATA, add(CFA_XSP16, literal(-14)))
        CFI V0 load(1, XDATA, add(CFA_XSP16, literal(-13)))
        CFI V1 load(1, XDATA, add(CFA_XSP16, literal(-12)))
        CFI V2 load(1, XDATA, add(CFA_XSP16, literal(-11)))
        CFI V3 load(1, XDATA, add(CFA_XSP16, literal(-10)))
        CFI V4 load(1, XDATA, add(CFA_XSP16, literal(-9)))
        CFI V5 load(1, XDATA, add(CFA_XSP16, literal(-8)))
        CFI V6 load(1, XDATA, add(CFA_XSP16, literal(-7)))
        CFI V7 load(1, XDATA, add(CFA_XSP16, literal(-6)))
        CFI R7 load(1, XDATA, add(CFA_XSP16, literal(-5)))
        CFI ?RET_LOW load(1, XDATA, add(CFA_XSP16, literal(-4)))
        CFI ?RET_HIGH load(1, XDATA, add(CFA_XSP16, literal(-3)))
        CFI DPL0 load(1, XDATA, add(CFA_XSP16, literal(-2)))
        CFI DPH0 load(1, XDATA, add(CFA_XSP16, literal(-1)))
        CFI CFA_SP SP+0
        CFI CFA_XSP16 add(XSP16, 15)
        CFI Block cfiCond76 Using cfiCommon0
        CFI (cfiCond76) NoFunction
        CFI (cfiCond76) Conditional ??CrossCallReturnLabel_338
        CFI (cfiCond76) R6 load(1, XDATA, add(CFA_XSP16, literal(-15)))
        CFI (cfiCond76) VB load(1, XDATA, add(CFA_XSP16, literal(-14)))
        CFI (cfiCond76) V0 load(1, XDATA, add(CFA_XSP16, literal(-13)))
        CFI (cfiCond76) V1 load(1, XDATA, add(CFA_XSP16, literal(-12)))
        CFI (cfiCond76) V2 load(1, XDATA, add(CFA_XSP16, literal(-11)))
        CFI (cfiCond76) V3 load(1, XDATA, add(CFA_XSP16, literal(-10)))
        CFI (cfiCond76) V4 load(1, XDATA, add(CFA_XSP16, literal(-9)))
        CFI (cfiCond76) V5 load(1, XDATA, add(CFA_XSP16, literal(-8)))
        CFI (cfiCond76) V6 load(1, XDATA, add(CFA_XSP16, literal(-7)))
        CFI (cfiCond76) V7 load(1, XDATA, add(CFA_XSP16, literal(-6)))
        CFI (cfiCond76) R7 load(1, XDATA, add(CFA_XSP16, literal(-5)))
        CFI (cfiCond76) ?RET_LOW load(1, XDATA, add(CFA_XSP16, literal(-4)))
        CFI (cfiCond76) ?RET_HIGH load(1, XDATA, add(CFA_XSP16, literal(-3)))
        CFI (cfiCond76) DPL0 load(1, XDATA, add(CFA_XSP16, literal(-2)))
        CFI (cfiCond76) DPH0 load(1, XDATA, add(CFA_XSP16, literal(-1)))
        CFI (cfiCond76) CFA_SP SP+0
        CFI (cfiCond76) CFA_XSP16 add(XSP16, 15)
        CFI Block cfiPicker77 Using cfiCommon1
        CFI (cfiPicker77) NoFunction
        CFI (cfiPicker77) Picker
        CLR     C
        SUBB    A,R2
        CLR     A
        SUBB    A,R3
        LJMP    ?Subroutine117
        CFI EndBlock cfiCond75
        CFI EndBlock cfiCond76
        CFI EndBlock cfiPicker77

        RSEG XDATA_Z:XDATA:NOROOT(0)
??oscCondition:
        DS 1
        REQUIRE __INIT_XDATA_Z
//  838 //#ifdef MidString
//  839 //void compute98(){ // computed from values taken from ITF midstrings on Sep. 25
//  840 //    Cur98  = convS( (((float)page.k_oc_cur)  * ( 4670 + 38.6*((float)theOC) ))  * 0.005 );
//  841 //    Vout98 = convU( (((float)page.k_ov_volt) * ( 68.2*((float)T3CC0) + 10680 )) * 0.005 );
//  842 //}
//  843 //#endif

        RSEG NEAR_CODE:CODE:NOROOT(0)
//  844 BOOL checkItOut( BOOL *flag_ptr ){
checkItOut:
        CFI Block cfiBlock78 Using cfiCommon0
        CFI Function checkItOut
        PUSH    DPL
        CFI DPL0 Frame(CFA_SP, 3)
        CFI CFA_SP SP+-3
        PUSH    DPH
        CFI DPH0 Frame(CFA_SP, 4)
        CFI CFA_SP SP+-4
        ; Saved register size: 2
        ; Auto size: 0
//  845   if( *flag_ptr ){ *flag_ptr = FALSE; return TRUE; }
        MOV     DPL,R2
        MOV     DPH,R3
        MOVX    A,@DPTR
        JZ      ??checkItOut_0
        CLR     A
        MOVX    @DPTR,A
        MOV     R1,#0x1
        SJMP    ??checkItOut_1
//  846   return FALSE;
??checkItOut_0:
        MOV     R1,#0x0
??checkItOut_1:
        LJMP    ??Subroutine116_0
        CFI EndBlock cfiBlock78
//  847 }

        RSEG XDATA_Z:XDATA:NOROOT(0)
//  848 UINT16 *ptr2RunningTick = NULL;
ptr2RunningTick:
        DS 2
        REQUIRE __INIT_XDATA_Z
//  849 

        RSEG NEAR_CODE:CODE:NOROOT(0)
//  850 UINT16 computeTI(UINT16 _pt)
computeTI:
        CFI Block cfiBlock79 Using cfiCommon0
        CFI Function computeTI
//  851 //    { return ( ( _pt <= (*ptr2RunningTick) ) ? ((*ptr2RunningTick) - _pt) : ((*ptr2RunningTick) + (65535 - _pt)) ); } 
//  852       { return ( ( (_pt&0xFF) <= *((BYTE *)0xF538) ) ? (*((BYTE *)0xF538) - (0xFF&_pt)) : (*((BYTE *)0xF538) + (255 - (0xFF&_pt))) ); } 
        PUSH    DPL
        CFI DPL0 Frame(CFA_SP, 3)
        CFI CFA_SP SP+-3
        PUSH    DPH
        CFI DPH0 Frame(CFA_SP, 4)
        CFI CFA_SP SP+-4
        ; Saved register size: 2
        ; Auto size: 0
        MOV     A,#-0x1
        ANL     A,R2
        MOV     R0,A
        MOV     DPTR,#-0xac8
        MOVX    A,@DPTR
        CLR     C
        SUBB    A,R2
        MOVX    A,@DPTR
        JC      ??computeTI_0
        CLR     C
        SUBB    A,R0
        MOV     R2,A
        CLR     A
        SJMP    ??computeTI_1
??computeTI_0:
        MOV     R2,A
        MOV     A,#-0x1
        ADD     A,R2
        DEC     R2
        CLR     A
        ADDC    A,#0x0
        MOV     R3,A
        MOV     A,R2
        SUBB    A,R0
        MOV     R2,A
        MOV     A,R3
??computeTI_1:
        SUBB    A,#0x0
        MOV     R3,A
        LJMP    ??Subroutine116_0
        CFI EndBlock cfiBlock79

        RSEG NEAR_CODE:CODE:NOROOT(0)
//  853 void tickWait(BYTE wait){ 
tickWait:
        CFI Block cfiBlock80 Using cfiCommon0
        CFI Function tickWait
        MOV     A,#-0x9
        LCALL   ?FUNC_ENTER_XDATA
        CFI DPH0 load(1, XDATA, add(CFA_XSP16, literal(-1)))
        CFI DPL0 load(1, XDATA, add(CFA_XSP16, literal(-2)))
        CFI ?RET_HIGH load(1, XDATA, add(CFA_XSP16, literal(-3)))
        CFI ?RET_LOW load(1, XDATA, add(CFA_XSP16, literal(-4)))
        CFI R7 load(1, XDATA, add(CFA_XSP16, literal(-5)))
        CFI V1 load(1, XDATA, add(CFA_XSP16, literal(-6)))
        CFI V0 load(1, XDATA, add(CFA_XSP16, literal(-7)))
        CFI VB load(1, XDATA, add(CFA_XSP16, literal(-8)))
        CFI R6 load(1, XDATA, add(CFA_XSP16, literal(-9)))
        CFI CFA_SP SP+0
        CFI CFA_XSP16 add(XSP16, 9)
        ; Saved register size: 9
        ; Auto size: 0
//  854     ticks[ TickWait ] = ( (INT16)wait ) + 1; //(reset of watchdog should be only in one place)
        MOV     DPTR,#ticks
        MOVX    A,@DPTR
        ADD     A,#0x1c
        MOV     R2,A
        INC     DPTR
        MOVX    A,@DPTR
        ADDC    A,#0x0
        MOV     R3,A
        MOV     ?V0 + 0,R1
        MOV     A,#0x1
        ADD     A,?V0 + 0
        MOV     R0,A
        CLR     A
        ADDC    A,#0x0
        MOV     R1,A
        MOV     DPL,R2
        MOV     DPH,R3
        LCALL   ??Subroutine68_0
??CrossCallReturnLabel_171:
        SJMP    ??tickWait_0
//  855     while( ticks[ TickWait ] > 0 ){ P1_2 ^= 1; };//{ WDCTL = 0xA8;  WDCTL = 0x58; *((BYTE *)0xFFFF) = 0x10; } 
??tickWait_1:
        XRL     0x90,#0x4
        MOV     A,0x90
??tickWait_0:
        MOV     DPL,R2
        MOV     DPH,R3
        CLR     C
        MOVX    A,@DPTR
        SUBB    A,#0x1
        INC     DPTR
        MOVX    A,@DPTR
        SUBB    A,#0x0
        CLR     C
        XRL     A,PSW
        RLC     A
        JNC     ??tickWait_1
//  856     ticks[ TickWait ] = 0;
        MOV     DPL,R2
        MOV     DPH,R3
        CLR     A
        MOVX    @DPTR,A
        INC     DPTR
        SJMP    ?Subroutine125
        CFI EndBlock cfiBlock80
        REQUIRE _A_P1
//  857 }
//  858 

        RSEG NEAR_CODE:CODE:NOROOT(0)
//  859 void checkMore(){
checkMore:
        CFI Block cfiBlock81 Using cfiCommon0
        CFI Function checkMore
        MOV     A,#-0x9
        LCALL   ?FUNC_ENTER_XDATA
        CFI DPH0 load(1, XDATA, add(CFA_XSP16, literal(-1)))
        CFI DPL0 load(1, XDATA, add(CFA_XSP16, literal(-2)))
        CFI ?RET_HIGH load(1, XDATA, add(CFA_XSP16, literal(-3)))
        CFI ?RET_LOW load(1, XDATA, add(CFA_XSP16, literal(-4)))
        CFI R7 load(1, XDATA, add(CFA_XSP16, literal(-5)))
        CFI V1 load(1, XDATA, add(CFA_XSP16, literal(-6)))
        CFI V0 load(1, XDATA, add(CFA_XSP16, literal(-7)))
        CFI VB load(1, XDATA, add(CFA_XSP16, literal(-8)))
        CFI R6 load(1, XDATA, add(CFA_XSP16, literal(-9)))
        CFI CFA_SP SP+0
        CFI CFA_XSP16 add(XSP16, 9)
        ; Saved register size: 9
        ; Auto size: 0
//  860 BYTE i; UINT16 j; BOOL go8k = FALSE;
//  861     P1_4 = 0;   P1DIR = 0xDB;    // module off
        CLR     0x90.4
        MOV     0xfe,#-0x25
//  862     for( i = 0; (i<15); i++ ){ // the self check
        MOV     R6,#0x0
//  863         BYTE *ptr = (BYTE *)( 0x800 + 0x400*i );
??checkMore_0:
        MOV     ?V0 + 0,R6
        MOV     ?V0 + 1,#0x0
        MOV     A,#0xa
        MOV     R0,#?V0 + 0
        LCALL   ?S_SHL
        LCALL   ?Subroutine84
//  864         BOOL flag = TRUE; 
//  865         *((BYTE *)0xFFFF) = 0x10;
//  866         for( j = 0; flag && (j < 0x400); j++ ) flag = ( (*ptr++)==0xFF );
??CrossCallReturnLabel_224:
        MOV     A,R0
        MOV     R2,A
        MOV     A,R1
        MOV     R3,A
        MOV     DPL,R2
        MOV     DPH,R3
        INC     DPTR
        MOV     R0,DPL
        MOV     R1,DPH
        MOV     DPL,R2
        MOV     DPH,R3
        MOVX    A,@DPTR
        XRL     A,#0xff
        JNZ     ??checkMore_1
        MOV     R2,#0x1
        SJMP    ??checkMore_2
??checkMore_1:
        MOV     R2,#0x0
??checkMore_2:
        LCALL   ?Subroutine86
??CrossCallReturnLabel_226:
        JZ      ??checkMore_3
        CLR     C
        MOV     A,R5
        SUBB    A,#0x4
        JC      ??CrossCallReturnLabel_224
//  867         go8k |= flag;
//  868     }
??checkMore_3:
        INC     R6
        MOV     A,R6
        CLR     C
        SUBB    A,#0xf
        JC      ??checkMore_0
//  869     //if( go8k ) {void (*f)( void ) = ( void (*)( void ) )0x603F; (*f)();} // commented jump to 8k image, Feb 12 2014, 16:35
//  870 }
        SJMP    ??Subroutine125_0
        CFI EndBlock cfiBlock81
        REQUIRE _A_P1
        REQUIRE P1DIR

        RSEG NEAR_CODE:CODE:NOROOT(0)
?Subroutine125:
        CFI Block cfiBlock82 Using cfiCommon0
        CFI NoFunction
        CFI CFA_SP SP+0
        CFI CFA_XSP16 add(XSP16, 9)
        CFI VB load(1, XDATA, add(CFA_XSP16, literal(-8)))
        CFI DPL0 load(1, XDATA, add(CFA_XSP16, literal(-2)))
        CFI DPH0 load(1, XDATA, add(CFA_XSP16, literal(-1)))
        CFI R6 load(1, XDATA, add(CFA_XSP16, literal(-9)))
        CFI R7 load(1, XDATA, add(CFA_XSP16, literal(-5)))
        CFI V0 load(1, XDATA, add(CFA_XSP16, literal(-7)))
        CFI V1 load(1, XDATA, add(CFA_XSP16, literal(-6)))
        CFI ?RET_HIGH load(1, XDATA, add(CFA_XSP16, literal(-3)))
        CFI ?RET_LOW load(1, XDATA, add(CFA_XSP16, literal(-4)))
        MOVX    @DPTR,A
??Subroutine125_0:
        MOV     R7,#0x2
        LJMP    ?FUNC_LEAVE_XDATA
        CFI EndBlock cfiBlock82
//  871 
//  872 //void reset(void){ WDCTL = 0x8 | 0x3; while( TRUE ) halWait( 10 ); }
//  873 //BOOL dec( UINT16 *cntPtr ) { return ((*cntPtr) && (--(*cntPtr) == 0 ))?TRUE:FALSE; }

        RSEG NEAR_CODE:CODE:NOROOT(0)
//  874 BOOL dec( UINT16 *cntPtr ){ --(*cntPtr); return (*((BYTE *)cntPtr)==0)?TRUE:FALSE; }
`dec`:
        CFI Block cfiBlock83 Using cfiCommon0
        CFI Function `dec`
        PUSH    DPL
        CFI DPL0 Frame(CFA_SP, 3)
        CFI CFA_SP SP+-3
        PUSH    DPH
        CFI DPH0 Frame(CFA_SP, 4)
        CFI CFA_SP SP+-4
        ; Saved register size: 2
        ; Auto size: 0
        MOV     DPL,R2
        MOV     DPH,R3
        LCALL   ?Subroutine51
??CrossCallReturnLabel_113:
        MOVX    @DPTR,A
        MOV     DPL,R2
        MOV     DPH,R3
        MOVX    A,@DPTR
        JNZ     ??dec_0
        MOV     R1,#0x1
        SJMP    ??dec_1
??dec_0:
        MOV     R1,#0x0
??dec_1:
        LJMP    ??Subroutine116_0
        CFI EndBlock cfiBlock83

        RSEG NEAR_CODE:CODE:NOROOT(0)
?Subroutine51:
        CFI Block cfiCond84 Using cfiCommon0
        CFI NoFunction
        CFI Conditional ??CrossCallReturnLabel_112
        CFI R6 load(1, XDATA, add(CFA_XSP16, literal(-15)))
        CFI VB load(1, XDATA, add(CFA_XSP16, literal(-14)))
        CFI V0 load(1, XDATA, add(CFA_XSP16, literal(-13)))
        CFI V1 load(1, XDATA, add(CFA_XSP16, literal(-12)))
        CFI V2 load(1, XDATA, add(CFA_XSP16, literal(-11)))
        CFI V3 load(1, XDATA, add(CFA_XSP16, literal(-10)))
        CFI V4 load(1, XDATA, add(CFA_XSP16, literal(-9)))
        CFI V5 load(1, XDATA, add(CFA_XSP16, literal(-8)))
        CFI V6 load(1, XDATA, add(CFA_XSP16, literal(-7)))
        CFI V7 load(1, XDATA, add(CFA_XSP16, literal(-6)))
        CFI R7 load(1, XDATA, add(CFA_XSP16, literal(-5)))
        CFI ?RET_LOW load(1, XDATA, add(CFA_XSP16, literal(-4)))
        CFI ?RET_HIGH load(1, XDATA, add(CFA_XSP16, literal(-3)))
        CFI DPL0 load(1, XDATA, add(CFA_XSP16, literal(-2)))
        CFI DPH0 load(1, XDATA, add(CFA_XSP16, literal(-1)))
        CFI CFA_SP SP+0
        CFI CFA_XSP16 add(XSP16, 15)
        CFI Block cfiCond85 Using cfiCommon0
        CFI (cfiCond85) NoFunction
        CFI (cfiCond85) Conditional ??CrossCallReturnLabel_113
        CFI (cfiCond85) DPL0 Frame(CFA_SP, 3)
        CFI (cfiCond85) DPH0 Frame(CFA_SP, 4)
        CFI (cfiCond85) CFA_SP SP+-4
        CFI Block cfiCond86 Using cfiCommon0
        CFI (cfiCond86) NoFunction
        CFI (cfiCond86) Conditional ??CrossCallReturnLabel_114
        CFI (cfiCond86) R6 load(1, XDATA, add(CFA_XSP16, literal(-9)))
        CFI (cfiCond86) VB load(1, XDATA, add(CFA_XSP16, literal(-8)))
        CFI (cfiCond86) V0 load(1, XDATA, add(CFA_XSP16, literal(-7)))
        CFI (cfiCond86) V1 load(1, XDATA, add(CFA_XSP16, literal(-6)))
        CFI (cfiCond86) R7 load(1, XDATA, add(CFA_XSP16, literal(-5)))
        CFI (cfiCond86) ?RET_LOW load(1, XDATA, add(CFA_XSP16, literal(-4)))
        CFI (cfiCond86) ?RET_HIGH load(1, XDATA, add(CFA_XSP16, literal(-3)))
        CFI (cfiCond86) DPL0 load(1, XDATA, add(CFA_XSP16, literal(-2)))
        CFI (cfiCond86) DPH0 load(1, XDATA, add(CFA_XSP16, literal(-1)))
        CFI (cfiCond86) CFA_SP SP+0
        CFI (cfiCond86) CFA_XSP16 add(XSP16, 9)
        CFI Block cfiPicker87 Using cfiCommon1
        CFI (cfiPicker87) NoFunction
        CFI (cfiPicker87) Picker
        LCALL   ?Subroutine102
??CrossCallReturnLabel_271:
        RET
        CFI EndBlock cfiCond84
        CFI EndBlock cfiCond85
        CFI EndBlock cfiCond86
        CFI EndBlock cfiPicker87

        RSEG NEAR_CODE:CODE:NOROOT(0)
?Subroutine102:
        CFI Block cfiCond88 Using cfiCommon0
        CFI NoFunction
        CFI Conditional ??CrossCallReturnLabel_271, ??CrossCallReturnLabel_112
        CFI R6 load(1, XDATA, add(CFA_XSP16, literal(-15)))
        CFI VB load(1, XDATA, add(CFA_XSP16, literal(-14)))
        CFI V0 load(1, XDATA, add(CFA_XSP16, literal(-13)))
        CFI V1 load(1, XDATA, add(CFA_XSP16, literal(-12)))
        CFI V2 load(1, XDATA, add(CFA_XSP16, literal(-11)))
        CFI V3 load(1, XDATA, add(CFA_XSP16, literal(-10)))
        CFI V4 load(1, XDATA, add(CFA_XSP16, literal(-9)))
        CFI V5 load(1, XDATA, add(CFA_XSP16, literal(-8)))
        CFI V6 load(1, XDATA, add(CFA_XSP16, literal(-7)))
        CFI V7 load(1, XDATA, add(CFA_XSP16, literal(-6)))
        CFI R7 load(1, XDATA, add(CFA_XSP16, literal(-5)))
        CFI ?RET_LOW load(1, XDATA, add(CFA_XSP16, literal(-4)))
        CFI ?RET_HIGH load(1, XDATA, add(CFA_XSP16, literal(-3)))
        CFI DPL0 load(1, XDATA, add(CFA_XSP16, literal(-2)))
        CFI DPH0 load(1, XDATA, add(CFA_XSP16, literal(-1)))
        CFI CFA_SP SP+0
        CFI CFA_XSP16 add(XSP16, 15)
        CFI Block cfiCond89 Using cfiCommon0
        CFI (cfiCond89) NoFunction
        CFI (cfiCond89) Conditional ??CrossCallReturnLabel_271, ??CrossCallReturnLabel_113
        CFI (cfiCond89) DPL0 Frame(CFA_SP, 3)
        CFI (cfiCond89) DPH0 Frame(CFA_SP, 4)
        CFI (cfiCond89) CFA_SP SP+-4
        CFI Block cfiCond90 Using cfiCommon0
        CFI (cfiCond90) NoFunction
        CFI (cfiCond90) Conditional ??CrossCallReturnLabel_271, ??CrossCallReturnLabel_114
        CFI (cfiCond90) R6 load(1, XDATA, add(CFA_XSP16, literal(-9)))
        CFI (cfiCond90) VB load(1, XDATA, add(CFA_XSP16, literal(-8)))
        CFI (cfiCond90) V0 load(1, XDATA, add(CFA_XSP16, literal(-7)))
        CFI (cfiCond90) V1 load(1, XDATA, add(CFA_XSP16, literal(-6)))
        CFI (cfiCond90) R7 load(1, XDATA, add(CFA_XSP16, literal(-5)))
        CFI (cfiCond90) ?RET_LOW load(1, XDATA, add(CFA_XSP16, literal(-4)))
        CFI (cfiCond90) ?RET_HIGH load(1, XDATA, add(CFA_XSP16, literal(-3)))
        CFI (cfiCond90) DPL0 load(1, XDATA, add(CFA_XSP16, literal(-2)))
        CFI (cfiCond90) DPH0 load(1, XDATA, add(CFA_XSP16, literal(-1)))
        CFI (cfiCond90) CFA_SP SP+0
        CFI (cfiCond90) CFA_XSP16 add(XSP16, 9)
        CFI Block cfiCond91 Using cfiCommon0
        CFI (cfiCond91) NoFunction
        CFI (cfiCond91) Conditional ??CrossCallReturnLabel_270, ??CrossCallReturnLabel_110
        CFI (cfiCond91) DPL0 Frame(CFA_SP, 3)
        CFI (cfiCond91) DPH0 Frame(CFA_SP, 4)
        CFI (cfiCond91) CFA_SP SP+-4
        CFI Block cfiCond92 Using cfiCommon0
        CFI (cfiCond92) NoFunction
        CFI (cfiCond92) Conditional ??CrossCallReturnLabel_270, ??CrossCallReturnLabel_111
        CFI (cfiCond92) R6 load(1, XDATA, add(CFA_XSP16, literal(-13)))
        CFI (cfiCond92) VB load(1, XDATA, add(CFA_XSP16, literal(-12)))
        CFI (cfiCond92) V0 load(1, XDATA, add(CFA_XSP16, literal(-11)))
        CFI (cfiCond92) V1 load(1, XDATA, add(CFA_XSP16, literal(-10)))
        CFI (cfiCond92) V2 load(1, XDATA, add(CFA_XSP16, literal(-9)))
        CFI (cfiCond92) V3 load(1, XDATA, add(CFA_XSP16, literal(-8)))
        CFI (cfiCond92) V4 load(1, XDATA, add(CFA_XSP16, literal(-7)))
        CFI (cfiCond92) V5 load(1, XDATA, add(CFA_XSP16, literal(-6)))
        CFI (cfiCond92) R7 load(1, XDATA, add(CFA_XSP16, literal(-5)))
        CFI (cfiCond92) ?RET_LOW load(1, XDATA, add(CFA_XSP16, literal(-4)))
        CFI (cfiCond92) ?RET_HIGH load(1, XDATA, add(CFA_XSP16, literal(-3)))
        CFI (cfiCond92) DPL0 load(1, XDATA, add(CFA_XSP16, literal(-2)))
        CFI (cfiCond92) DPH0 load(1, XDATA, add(CFA_XSP16, literal(-1)))
        CFI (cfiCond92) CFA_SP SP+0
        CFI (cfiCond92) CFA_XSP16 add(XSP16, 13)
        CFI Block cfiPicker93 Using cfiCommon1
        CFI (cfiPicker93) NoFunction
        CFI (cfiPicker93) Picker
        MOVX    A,@DPTR
        ADD     A,#-0x1
        MOVX    @DPTR,A
        INC     DPTR
        MOVX    A,@DPTR
        ADDC    A,#-0x1
        RET
        CFI EndBlock cfiCond88
        CFI EndBlock cfiCond89
        CFI EndBlock cfiCond90
        CFI EndBlock cfiCond91
        CFI EndBlock cfiCond92
        CFI EndBlock cfiPicker93
//  875 /******************************************************************************
//  876 * @fn  main
//  877 * @brief
//  878 *      Main function. Triggers setup menus and main loops for both receiver
//  879 *      and transmitter. This function supports both CC1110 and CC2510.
//  880 * Parameters:
//  881 * @param  void
//  882 * @return void
//  883 ******************************************************************************/

        RSEG XDATA_I:XDATA:NOROOT(0)
        DATA
//  884 BYTE sleepCounter = 5, saved_channel;
sleepCounter:
        DS 1
        REQUIRE `?<Initializer for sleepCounter>`
        REQUIRE __INIT_XDATA_I

        RSEG XDATA_Z:XDATA:NOROOT(0)
saved_channel:
        DS 1
        REQUIRE __INIT_XDATA_Z
//  885 //void goSleep( void ){ if( sleepCounter && (--sleepCounter==0) && si->radioMode == RADIO_MODE_UNDEF ) PCON |= 1; }
//  886 //static BYTE fakeBuf[ 2 ] = { 4, 0xFE };

        RSEG XDATA_I:XDATA:NOROOT(0)
        DATA
//  887 static BOOL   wasAHardResetOrPowerOn = TRUE;//, need_wiggle = FALSE, was_wiggling = FALSE;
wasAHardResetOrPowerOn:
        DS 1
        REQUIRE `?<Initializer for wasAHardResetOrPowerOn>`
        REQUIRE __INIT_XDATA_I
//  888 //void readNextValueScheduled(void);
//  889 /*
//  890 void switch2parking( BYTE j ){
//  891      CHANNR = parking_channels[j]; 
//  892      //FSCAL3 = fscal_parking[j][0];         FSCAL2 = fscal_parking[j][1];          FSCAL1 = fscal_parking[j][2];
//  893      mymemcpy( FSCAL3_ADDR, fscal_parking[j], 3 );
//  894      tickWait( 0 );
//  895 }
//  896 */

        RSEG XDATA_Z:XDATA:NOROOT(0)
//  897 UINT16 milliSeconds = 0;
milliSeconds:
        DS 2
        REQUIRE __INIT_XDATA_Z

        RSEG XDATA_Z:XDATA:NOROOT(0)
//  898 BYTE   seconds = 0, minutes = 0;
seconds:
        DS 1
        REQUIRE __INIT_XDATA_Z

        RSEG XDATA_Z:XDATA:NOROOT(0)
minutes:
        DS 1
        REQUIRE __INIT_XDATA_Z

        RSEG XDATA_Z:XDATA:NOROOT(0)
//  899 BYTE was_repeater = 0;
was_repeater:
        DS 1
        REQUIRE __INIT_XDATA_Z

        RSEG NEAR_CODE:CODE:NOROOT(0)
//  900 void main_loop(void){
main_loop:
        CFI Block cfiBlock94 Using cfiCommon0
        CFI Function main_loop
        FUNCALL main_loop, setupRepeater
        LOCFRAME ISTACK, 0, STACK
        LOCFRAME PSTACK, 0, STACK
        LOCFRAME XSTACK, 9, STACK
        LOCFRAME IOVERLAY, 0, STATIC
        LOCFRAME DOVERLAY, 0, STATIC
        ARGFRAME ISTACK, 0, STACK
        ARGFRAME PSTACK, 0, STACK
        ARGFRAME XSTACK, 9, STACK
        ARGFRAME IOVERLAY, 0, STATIC
        ARGFRAME DOVERLAY, 0, STATIC
        FUNCALL main_loop, receive
        LOCFRAME ISTACK, 0, STACK
        LOCFRAME PSTACK, 0, STACK
        LOCFRAME XSTACK, 9, STACK
        LOCFRAME IOVERLAY, 0, STATIC
        LOCFRAME DOVERLAY, 0, STATIC
        ARGFRAME ISTACK, 0, STACK
        ARGFRAME PSTACK, 0, STACK
        ARGFRAME XSTACK, 9, STACK
        ARGFRAME IOVERLAY, 0, STATIC
        ARGFRAME DOVERLAY, 0, STATIC
        FUNCALL main_loop, setupRepeater
        LOCFRAME ISTACK, 0, STACK
        LOCFRAME PSTACK, 0, STACK
        LOCFRAME XSTACK, 9, STACK
        LOCFRAME IOVERLAY, 0, STATIC
        LOCFRAME DOVERLAY, 0, STATIC
        ARGFRAME ISTACK, 0, STACK
        ARGFRAME PSTACK, 0, STACK
        ARGFRAME XSTACK, 9, STACK
        ARGFRAME IOVERLAY, 0, STATIC
        ARGFRAME DOVERLAY, 0, STATIC
        FUNCALL main_loop, receive
        LOCFRAME ISTACK, 0, STACK
        LOCFRAME PSTACK, 0, STACK
        LOCFRAME XSTACK, 9, STACK
        LOCFRAME IOVERLAY, 0, STATIC
        LOCFRAME DOVERLAY, 0, STATIC
        ARGFRAME ISTACK, 0, STACK
        ARGFRAME PSTACK, 0, STACK
        ARGFRAME XSTACK, 9, STACK
        ARGFRAME IOVERLAY, 0, STATIC
        ARGFRAME DOVERLAY, 0, STATIC
        FUNCALL main_loop, prepareJoinRequest
        LOCFRAME ISTACK, 0, STACK
        LOCFRAME PSTACK, 0, STACK
        LOCFRAME XSTACK, 9, STACK
        LOCFRAME IOVERLAY, 0, STATIC
        LOCFRAME DOVERLAY, 0, STATIC
        ARGFRAME ISTACK, 0, STACK
        ARGFRAME PSTACK, 0, STACK
        ARGFRAME XSTACK, 9, STACK
        ARGFRAME IOVERLAY, 0, STATIC
        ARGFRAME DOVERLAY, 0, STATIC
        FUNCALL main_loop, parseGWPackage
        LOCFRAME ISTACK, 0, STACK
        LOCFRAME PSTACK, 0, STACK
        LOCFRAME XSTACK, 9, STACK
        LOCFRAME IOVERLAY, 0, STATIC
        LOCFRAME DOVERLAY, 0, STATIC
        ARGFRAME ISTACK, 0, STACK
        ARGFRAME PSTACK, 0, STACK
        ARGFRAME XSTACK, 9, STACK
        ARGFRAME IOVERLAY, 0, STATIC
        ARGFRAME DOVERLAY, 0, STATIC
        FUNCALL main_loop, computeADCs
        LOCFRAME ISTACK, 0, STACK
        LOCFRAME PSTACK, 0, STACK
        LOCFRAME XSTACK, 9, STACK
        LOCFRAME IOVERLAY, 0, STATIC
        LOCFRAME DOVERLAY, 0, STATIC
        ARGFRAME ISTACK, 0, STACK
        ARGFRAME PSTACK, 0, STACK
        ARGFRAME XSTACK, 9, STACK
        ARGFRAME IOVERLAY, 0, STATIC
        ARGFRAME DOVERLAY, 0, STATIC
        FUNCALL main_loop, `dec`
        LOCFRAME ISTACK, 0, STACK
        LOCFRAME PSTACK, 0, STACK
        LOCFRAME XSTACK, 9, STACK
        LOCFRAME IOVERLAY, 0, STATIC
        LOCFRAME DOVERLAY, 0, STATIC
        ARGFRAME ISTACK, 0, STACK
        ARGFRAME PSTACK, 0, STACK
        ARGFRAME XSTACK, 9, STACK
        ARGFRAME IOVERLAY, 0, STATIC
        ARGFRAME DOVERLAY, 0, STATIC
        FUNCALL main_loop, softKick
        LOCFRAME ISTACK, 0, STACK
        LOCFRAME PSTACK, 0, STACK
        LOCFRAME XSTACK, 9, STACK
        LOCFRAME IOVERLAY, 0, STATIC
        LOCFRAME DOVERLAY, 0, STATIC
        ARGFRAME ISTACK, 0, STACK
        ARGFRAME PSTACK, 0, STACK
        ARGFRAME XSTACK, 9, STACK
        ARGFRAME IOVERLAY, 0, STATIC
        ARGFRAME DOVERLAY, 0, STATIC
        FUNCALL main_loop, switchTo255
        LOCFRAME ISTACK, 0, STACK
        LOCFRAME PSTACK, 0, STACK
        LOCFRAME XSTACK, 9, STACK
        LOCFRAME IOVERLAY, 0, STATIC
        LOCFRAME DOVERLAY, 0, STATIC
        ARGFRAME ISTACK, 0, STACK
        ARGFRAME PSTACK, 0, STACK
        ARGFRAME XSTACK, 9, STACK
        ARGFRAME IOVERLAY, 0, STATIC
        ARGFRAME DOVERLAY, 0, STATIC
        FUNCALL main_loop, `dec`
        LOCFRAME ISTACK, 0, STACK
        LOCFRAME PSTACK, 0, STACK
        LOCFRAME XSTACK, 9, STACK
        LOCFRAME IOVERLAY, 0, STATIC
        LOCFRAME DOVERLAY, 0, STATIC
        ARGFRAME ISTACK, 0, STACK
        ARGFRAME PSTACK, 0, STACK
        ARGFRAME XSTACK, 9, STACK
        ARGFRAME IOVERLAY, 0, STATIC
        ARGFRAME DOVERLAY, 0, STATIC
        FUNCALL main_loop, setupRadio
        LOCFRAME ISTACK, 0, STACK
        LOCFRAME PSTACK, 0, STACK
        LOCFRAME XSTACK, 9, STACK
        LOCFRAME IOVERLAY, 0, STATIC
        LOCFRAME DOVERLAY, 0, STATIC
        ARGFRAME ISTACK, 0, STACK
        ARGFRAME PSTACK, 0, STACK
        ARGFRAME XSTACK, 9, STACK
        ARGFRAME IOVERLAY, 0, STATIC
        ARGFRAME DOVERLAY, 0, STATIC
        FUNCALL main_loop, `dec`
        LOCFRAME ISTACK, 0, STACK
        LOCFRAME PSTACK, 0, STACK
        LOCFRAME XSTACK, 9, STACK
        LOCFRAME IOVERLAY, 0, STATIC
        LOCFRAME DOVERLAY, 0, STATIC
        ARGFRAME ISTACK, 0, STACK
        ARGFRAME PSTACK, 0, STACK
        ARGFRAME XSTACK, 9, STACK
        ARGFRAME IOVERLAY, 0, STATIC
        ARGFRAME DOVERLAY, 0, STATIC
        FUNCALL main_loop, setupRadio
        LOCFRAME ISTACK, 0, STACK
        LOCFRAME PSTACK, 0, STACK
        LOCFRAME XSTACK, 9, STACK
        LOCFRAME IOVERLAY, 0, STATIC
        LOCFRAME DOVERLAY, 0, STATIC
        ARGFRAME ISTACK, 0, STACK
        ARGFRAME PSTACK, 0, STACK
        ARGFRAME XSTACK, 9, STACK
        ARGFRAME IOVERLAY, 0, STATIC
        ARGFRAME DOVERLAY, 0, STATIC
        FUNCALL main_loop, `dec`
        LOCFRAME ISTACK, 0, STACK
        LOCFRAME PSTACK, 0, STACK
        LOCFRAME XSTACK, 9, STACK
        LOCFRAME IOVERLAY, 0, STATIC
        LOCFRAME DOVERLAY, 0, STATIC
        ARGFRAME ISTACK, 0, STACK
        ARGFRAME PSTACK, 0, STACK
        ARGFRAME XSTACK, 9, STACK
        ARGFRAME IOVERLAY, 0, STATIC
        ARGFRAME DOVERLAY, 0, STATIC
        FUNCALL main_loop, setupRadio
        LOCFRAME ISTACK, 0, STACK
        LOCFRAME PSTACK, 0, STACK
        LOCFRAME XSTACK, 9, STACK
        LOCFRAME IOVERLAY, 0, STATIC
        LOCFRAME DOVERLAY, 0, STATIC
        ARGFRAME ISTACK, 0, STACK
        ARGFRAME PSTACK, 0, STACK
        ARGFRAME XSTACK, 9, STACK
        ARGFRAME IOVERLAY, 0, STATIC
        ARGFRAME DOVERLAY, 0, STATIC
        FUNCALL main_loop, `dec`
        LOCFRAME ISTACK, 0, STACK
        LOCFRAME PSTACK, 0, STACK
        LOCFRAME XSTACK, 9, STACK
        LOCFRAME IOVERLAY, 0, STATIC
        LOCFRAME DOVERLAY, 0, STATIC
        ARGFRAME ISTACK, 0, STACK
        ARGFRAME PSTACK, 0, STACK
        ARGFRAME XSTACK, 9, STACK
        ARGFRAME IOVERLAY, 0, STATIC
        ARGFRAME DOVERLAY, 0, STATIC
        FUNCALL main_loop, hop
        LOCFRAME ISTACK, 0, STACK
        LOCFRAME PSTACK, 0, STACK
        LOCFRAME XSTACK, 9, STACK
        LOCFRAME IOVERLAY, 0, STATIC
        LOCFRAME DOVERLAY, 0, STATIC
        ARGFRAME ISTACK, 0, STACK
        ARGFRAME PSTACK, 0, STACK
        ARGFRAME XSTACK, 9, STACK
        ARGFRAME IOVERLAY, 0, STATIC
        ARGFRAME DOVERLAY, 0, STATIC
        FUNCALL main_loop, sendData
        LOCFRAME ISTACK, 0, STACK
        LOCFRAME PSTACK, 0, STACK
        LOCFRAME XSTACK, 9, STACK
        LOCFRAME IOVERLAY, 0, STATIC
        LOCFRAME DOVERLAY, 0, STATIC
        ARGFRAME ISTACK, 0, STACK
        ARGFRAME PSTACK, 0, STACK
        ARGFRAME XSTACK, 9, STACK
        ARGFRAME IOVERLAY, 0, STATIC
        ARGFRAME DOVERLAY, 0, STATIC
        FUNCALL main_loop, ov_startup
        LOCFRAME ISTACK, 0, STACK
        LOCFRAME PSTACK, 0, STACK
        LOCFRAME XSTACK, 9, STACK
        LOCFRAME IOVERLAY, 0, STATIC
        LOCFRAME DOVERLAY, 0, STATIC
        ARGFRAME ISTACK, 0, STACK
        ARGFRAME PSTACK, 0, STACK
        ARGFRAME XSTACK, 9, STACK
        ARGFRAME IOVERLAY, 0, STATIC
        ARGFRAME DOVERLAY, 0, STATIC
        FUNCALL main_loop, kickOsc
        LOCFRAME ISTACK, 0, STACK
        LOCFRAME PSTACK, 0, STACK
        LOCFRAME XSTACK, 9, STACK
        LOCFRAME IOVERLAY, 0, STATIC
        LOCFRAME DOVERLAY, 0, STATIC
        ARGFRAME ISTACK, 0, STACK
        ARGFRAME PSTACK, 0, STACK
        ARGFRAME XSTACK, 9, STACK
        ARGFRAME IOVERLAY, 0, STATIC
        ARGFRAME DOVERLAY, 0, STATIC
        FUNCALL main_loop, hop
        LOCFRAME ISTACK, 0, STACK
        LOCFRAME PSTACK, 0, STACK
        LOCFRAME XSTACK, 9, STACK
        LOCFRAME IOVERLAY, 0, STATIC
        LOCFRAME DOVERLAY, 0, STATIC
        ARGFRAME ISTACK, 0, STACK
        ARGFRAME PSTACK, 0, STACK
        ARGFRAME XSTACK, 9, STACK
        ARGFRAME IOVERLAY, 0, STATIC
        ARGFRAME DOVERLAY, 0, STATIC
        FUNCALL main_loop, setupRepeater
        LOCFRAME ISTACK, 0, STACK
        LOCFRAME PSTACK, 0, STACK
        LOCFRAME XSTACK, 9, STACK
        LOCFRAME IOVERLAY, 0, STATIC
        LOCFRAME DOVERLAY, 0, STATIC
        ARGFRAME ISTACK, 0, STACK
        ARGFRAME PSTACK, 0, STACK
        ARGFRAME XSTACK, 9, STACK
        ARGFRAME IOVERLAY, 0, STATIC
        ARGFRAME DOVERLAY, 0, STATIC
        FUNCALL main_loop, receive
        LOCFRAME ISTACK, 0, STACK
        LOCFRAME PSTACK, 0, STACK
        LOCFRAME XSTACK, 9, STACK
        LOCFRAME IOVERLAY, 0, STATIC
        LOCFRAME DOVERLAY, 0, STATIC
        ARGFRAME ISTACK, 0, STACK
        ARGFRAME PSTACK, 0, STACK
        ARGFRAME XSTACK, 9, STACK
        ARGFRAME IOVERLAY, 0, STATIC
        ARGFRAME DOVERLAY, 0, STATIC
        FUNCALL main_loop, prepareData
        LOCFRAME ISTACK, 0, STACK
        LOCFRAME PSTACK, 0, STACK
        LOCFRAME XSTACK, 9, STACK
        LOCFRAME IOVERLAY, 0, STATIC
        LOCFRAME DOVERLAY, 0, STATIC
        ARGFRAME ISTACK, 0, STACK
        ARGFRAME PSTACK, 0, STACK
        ARGFRAME XSTACK, 9, STACK
        ARGFRAME IOVERLAY, 0, STATIC
        ARGFRAME DOVERLAY, 0, STATIC
        MOV     A,#-0x9
        LCALL   ?FUNC_ENTER_XDATA
        CFI DPH0 load(1, XDATA, add(CFA_XSP16, literal(-1)))
        CFI DPL0 load(1, XDATA, add(CFA_XSP16, literal(-2)))
        CFI ?RET_HIGH load(1, XDATA, add(CFA_XSP16, literal(-3)))
        CFI ?RET_LOW load(1, XDATA, add(CFA_XSP16, literal(-4)))
        CFI R7 load(1, XDATA, add(CFA_XSP16, literal(-5)))
        CFI V1 load(1, XDATA, add(CFA_XSP16, literal(-6)))
        CFI V0 load(1, XDATA, add(CFA_XSP16, literal(-7)))
        CFI VB load(1, XDATA, add(CFA_XSP16, literal(-8)))
        CFI R6 load(1, XDATA, add(CFA_XSP16, literal(-9)))
        CFI CFA_SP SP+0
        CFI CFA_XSP16 add(XSP16, 9)
        ; Saved register size: 9
        ; Auto size: 0
//  901 BYTE idx, cwCnt = 1; 
//  902 static BYTE xored = 1;
//  903     //while( cwCnt -- ){
//  904         //*((BYTE *)0xFFFF) = 0x20;
//  905         for( idx = 0; idx < N_Of_Flags; idx ++ ){
        MOV     R6,#0x0
//  906             if( flags[ idx ] ){
??main_loop_0:
        MOV     A,R6
        MOV     R0,A
        MOV     DPTR,#flags
        MOVX    A,@DPTR
        ADD     A,R0
        LCALL   ?Subroutine43
??CrossCallReturnLabel_81:
        JNZ     $+5
        LJMP    ??main_loop_1
//  907                 flags[ idx ] = FALSE;
        CLR     A
        MOVX    @DPTR,A
//  908                 switch( idx ){
        MOV     A,R6
        LCALL   ?UC_SWITCH_SPARSE
`?<Jumptable for main_loop>_0`:
        DATA
        DB        0
        DB        5
        DB        1
        DW        ??main_loop_2
        DB        2
        DW        ??main_loop_3
        DB        3
        DW        ??main_loop_4
        DB        9
        DW        ??main_loop_5
        DB        11
        DW        ??main_loop_6
        DW        ??main_loop_7
        CODE
//  909                     case DataSent:
//  910                         rc();
//  911                         //P1_1 = 0;
//  912                         //P1_1 ^= 1;
//  913                         //while( real_cw_mode ) tickWait( 1 ); 
//  914                         //if( checkItOut(&cleanTxBuffer ) ) radioPktBufferTx[0] = 0; //cleanTxBuffer = FALSE; 
//  915                         //if( was_wiggling ) was_wiggling = FALSE; CHANNR = saved_channel;  MCSM0 = 0x14; }
//  916                         /*
//  917                         if( page.wiggle_dchan && need_wiggle ){
//  918                            setupTxBuffer( fakeBuf );
//  919                            INT_GLOBAL_ENABLE( INT_OFF ); 
//  920                               was_wiggling = TRUE; 
//  921                               saved_channel = CHANNR; MCSM0 = 0x04; // no calibration
//  922                               CHANNR ^= page.wiggle_dchan;
//  923                               si->radioMode = RADIO_MODE_TX;        
//  924                               atomicChange( CheckFlag, TICKS_IN_MS );
//  925                               DMAARM = DMAARM_CHANNEL1;        // Arm DMA channel 1
//  926                               //RFST   = STROBE_TX;            // Switch radio to TX
//  927                               need_wiggle = FALSE; 
//  928                            INT_GLOBAL_ENABLE( INT_ON ); 
//  929                         }else{
//  930                           // switching transmission off
//  931                           if( was_wiggling ) { CHANNR = saved_channel;   MCSM0 = 0x14; }
//  932                           if(      page.isRelay && (!page.is500Always) ) setupRepeater( TRUE ); 
//  933                           else if( page.stay_in_rx )                     receive();
//  934                         }
//  935                         */
//  936                         //if(  page.isRelay && (!page.is500Always) ) setupRepeater( got_gw ); 
//  937                         //else                                       setupRepeater( FALSE ); 
//  938                         ////was_repeater = 0;
//  939                         //receive();
//  940                         //P1_4 = 1;  // debug line !!!
//  941                         if( was_listening )                           { setupRepeater( FALSE );   receive(); }
??main_loop_3:
        MOV     DPTR,#was_listening
        MOVX    A,@DPTR
        JZ      ??main_loop_8
        ; Setup parameters for call to function setupRepeater
        MOV     R1,#0x0
??main_loop_9:
        LCALL   setupRepeater
        ; Setup parameters for call to function receive
        LCALL   receive
        LJMP    ??main_loop_7
//  942                         else if( page.isRelay && (!page.is500Always) ){ setupRepeater( got_gw );  receive(); }
??main_loop_8:
        MOV     DPTR,#(page + 194)
        MOVX    A,@DPTR
        ANL     A,#0x60
        XRL     A,#0x20
        JZ      $+5
        LJMP    ??main_loop_7
        ; Setup parameters for call to function setupRepeater
        MOV     DPTR,#got_gw
        MOVX    A,@DPTR
        MOV     R1,A
        SJMP    ??main_loop_9
//  943                     break;
//  944                     
//  945                     case PrepareJoin:       prepareJoinRequest( );                  break;
??main_loop_4:
        ; Setup parameters for call to function prepareJoinRequest
        LCALL   prepareJoinRequest
        LJMP    ??main_loop_7
//  946                     /*
//  947                     case PrepareData:       prepareData();     // here most of the time is spent
//  948                                             processingTime = computeTI( pt ); //( pt <= si->runningTick ) ? (si->runningTick - pt) : (si->runningTick + (65535-pt));
//  949                     break;
//  950                     */
//  951                     case PackageReceived:   /*P1_4 = 1;*/ parseGWPackage(); /*P1_4 = 0;*/  break; // P1_4  is a debug added on Feb 22 2014, should be removed
??main_loop_2:
        ; Setup parameters for call to function parseGWPackage
        LCALL   parseGWPackage
        LJMP    ??main_loop_7
//  952                     case AltCheckVin:     // was 8
//  953                       //if( ( ticks[SendData] > 14*TICKS_IN_MS ) || ( ticks[SendData] == 0 ) ) computeADCs( FALSE, TRUE ); //checkVin();
//  954                       if( ( PKTSTATUS & 0x4 ) && ( ( MARCSTATE > 0xC ) && ( MARCSTATE < 0x10 ) ) ) flags[AltCheckVin] = TRUE; // receving a packet
??main_loop_6:
        MOV     DPTR,#-0x20c4
        MOVX    A,@DPTR
        MOV     C,0xE0 /* A   */.2
        JNC     ??main_loop_10
        MOV     DPTR,#-0x20c5
        MOVX    A,@DPTR
        CLR     C
        SUBB    A,#0xd
        JC      ??main_loop_10
        MOVX    A,@DPTR
        CLR     C
        SUBB    A,#0x10
        JNC     ??main_loop_10
??main_loop_11:
        LCALL   ?Subroutine17
??CrossCallReturnLabel_30:
        SJMP    ??main_loop_12
//  955                       else if( flags[PackageReceived] || flags[DataSent] )                         flags[AltCheckVin] = TRUE; // receving a packet
??main_loop_10:
        LCALL   ?Subroutine10
??CrossCallReturnLabel_11:
        JNZ     ??main_loop_11
        LCALL   ?Subroutine12
??CrossCallReturnLabel_19:
        JNZ     ??main_loop_11
//  956                       else if( ( ( ticks[SendData]      > 14*TICKS_IN_MS ) || ( ticks[SendData] == 0 ) ) &&
//  957                           ( ( ticks[DelayedPrepareData] > 14*TICKS_IN_MS ) || ( ticks[DelayedPrepareData] == 0 ) ) ) 
        LCALL   ?Subroutine33
??CrossCallReturnLabel_62:
        LCALL   ?Subroutine0
??CrossCallReturnLabel_328:
        JNC     ??main_loop_13
        MOV     A,R0
        JNZ     ??main_loop_14
        MOV     A,R1
??main_loop_14:
        JNZ     ??main_loop_11
??main_loop_13:
        LCALL   ?Subroutine44
??CrossCallReturnLabel_83:
        LCALL   ?Subroutine0
??CrossCallReturnLabel_329:
        JNC     ??main_loop_15
        MOV     A,R0
        JNZ     ??main_loop_16
        MOV     A,R1
??main_loop_16:
        JNZ     ??main_loop_11
//  958                             computeADCs( FALSE, TRUE ); //checkVin();
??main_loop_15:
        ; Setup parameters for call to function computeADCs
        MOV     R2,#0x1
        MOV     R1,#0x0
        LCALL   computeADCs
//  959                       else                                                       flags[AltCheckVin] = TRUE;
//  960                       if( (((INT16)adcs16[ 2 ]) < page.cur_noise ) ){ T3CC1 = theOC = 0; atomicChange( OcRamp, TICKS_IN_SEC ); }
??main_loop_12:
        MOV     DPTR,#(page + 232)
        LCALL   ??Subroutine65_0
??CrossCallReturnLabel_153:
        MOV     DPH,#(((adcs16 + 4) >> 8) & 0xff)
        MOV     DPL,#((adcs16 + 4) & 0xff)
        LCALL   ?Subroutine57
??CrossCallReturnLabel_340:
        JC      $+5
        LJMP    ??main_loop_7
        CLR     A
        MOV     DPTR,#theOC
        MOVX    @DPTR,A
        MOV     0xcf,#0x0
        MOV     DPTR,#ticks
        MOVX    A,@DPTR
        ADD     A,#0x18
        LCALL   ??Subroutine47_0
??CrossCallReturnLabel_90:
        LCALL   ??Subroutine104_0
??CrossCallReturnLabel_373:
        LJMP    ??main_loop_17
//  961                     break;
//  962                     case Cycle:
//  963                             //if( bunchCount ) bunchCount--;
//  964                             /*
//  965                             if( enable2SendData && ( curBunch != 255 ) ){ 
//  966                                 if( (curBunch == maxBunch) && zeroPackageWasNotReceived ){ 
//  967                                     BYTE k;
//  968                                     //computeADCs( page.is500Always, TRUE ); 
//  969                                     for( k = 0; k <= maxBunch; k++ ){ ms += lastCycle; if( ms > 1000 ){ utc++; ms-= 1000; } }
//  970                                     lastRssi = 0; 
//  971                                     prepareData();
//  972                                     curBunch = 0; 
//  973                                 } else curBunch++; 
//  974                                 zeroPackageWasNotReceived = TRUE;
//  975                             }
//  976                             */
//  977                             if( dec( &cycles2SoftKick )  ){ softKick();  cycles2SoftKick  = page.defCycles2SoftKick;  }//cyclesDefaults[4]; } // page.defCycles2SoftKick;  }
??main_loop_5:
        ; Setup parameters for call to function dec
        MOV     R2,#(cycles2SoftKick & 0xff)
        MOV     R3,#((cycles2SoftKick >> 8) & 0xff)
        LCALL   `dec`
        MOV     A,R1
        JZ      ??CrossCallReturnLabel_74
        ; Setup parameters for call to function softKick
        LCALL   softKick
        LCALL   ?Subroutine39
//  978                             if( cycles2HardKick < 10 ){ switchTo255(); ch255 = FALSE; }
??CrossCallReturnLabel_74:
        MOV     DPTR,#cycles2HardKick
        CLR     C
        MOVX    A,@DPTR
        SUBB    A,#0xa
        INC     DPTR
        MOVX    A,@DPTR
        SUBB    A,#0x0
        JNC     ??CrossCallReturnLabel_223
        ; Setup parameters for call to function switchTo255
        LCALL   ?Subroutine83
//  979                             //if( dec( &cycles2HardKick ) /* && page.production */){
//  980                             //    reset();  // a reset
//  981                             //}
//  982                             if( ++cyclesFromStart > 50 ) wasAHardResetOrPowerOn = FALSE;
??CrossCallReturnLabel_223:
        LCALL   ?Subroutine16
??CrossCallReturnLabel_28:
        JC      ??main_loop_18
        CLR     A
        MOV     DPTR,#wasAHardResetOrPowerOn
        MOVX    @DPTR,A
        SJMP    ??main_loop_19
//  983                             /**/
//  984                             if( (!wasAHardResetOrPowerOn) && page.searchCommunication ){
??main_loop_18:
        MOV     DPTR,#wasAHardResetOrPowerOn
        MOVX    A,@DPTR
        JZ      $+5
        LJMP    ??main_loop_7
??main_loop_19:
        MOV     DPTR,#(page + 194)
        MOVX    A,@DPTR
        MOV     C,0xE0 /* A   */.7
        JC      $+5
        LJMP    ??main_loop_7
//  985                                 if( page.is500Always ){
        MOV     C,0xE0 /* A   */.6
        JNC     ??main_loop_20
//  986                                     if( dec( &cyclesTo10 ) ) { 
        ; Setup parameters for call to function dec
        MOV     R2,#(cyclesTo10 & 0xff)
        MOV     R3,#((cyclesTo10 >> 8) & 0xff)
        LCALL   `dec`
        MOV     A,R1
        JZ      ??main_loop_21
//  987                                         cyclesTo500 = page.defCyclesTo500;  cycles2Step10Channel = page.defCyclesToStep10Channel;
        LCALL   ?Subroutine11
//  988                                         //cyclesTo500 = cyclesDefaults[0];  cycles2Step10Channel = cyclesDefaults[3];
//  989                                         page.is500Always = FALSE; //cycles2Step10Channel = page.defCyclesToStep10Channel;
??CrossCallReturnLabel_15:
        MOV     DPTR,#(page + 194)
        MOVX    A,@DPTR
        CLR     0xE0 /* A   */.6
        LCALL   ?Subroutine80
//  990                                         setupRadio( curChannel = page.channel );
??CrossCallReturnLabel_211:
        MOVX    @DPTR,A
        ; Setup parameters for call to function setupRadio
??main_loop_22:
        MOV     R1,A
        LCALL   setupRadio
        SJMP    ??main_loop_7
//  991                                     }else if( dec( &cyclesToStep500Channel ) ) { 
??main_loop_21:
        ; Setup parameters for call to function dec
        MOV     R2,#(cyclesToStep500Channel & 0xff)
        MOV     R3,#((cyclesToStep500Channel >> 8) & 0xff)
        LCALL   `dec`
        MOV     A,R1
        JZ      ??main_loop_7
//  992                                         cyclesToStep500Channel = page.defCyclesToStep500Channel; //cyclesDefaults[2]; //page.defCyclesToStep500Channel; 
        LCALL   ?Subroutine40
//  993                                         page.starting500Channel = curChannel = (curChannel + page.repStep) % 250;
??CrossCallReturnLabel_76:
        MOV     DPTR,#curChannel
        MOVX    A,@DPTR
        MOV     R0,A
        MOV     DPTR,#(page + 222)
        MOVX    A,@DPTR
        ADD     A,R0
        MOV     R0,A
        CLR     A
        ADDC    A,#0x0
        MOV     R1,A
        MOV     R2,#-0x6
        MOV     R3,#0x0
        LCALL   ?S_DIV_MOD
        MOV     A,R2
        MOV     DPTR,#curChannel
        MOVX    @DPTR,A
        MOV     DPTR,#(page + 218)
        SJMP    ??CrossCallReturnLabel_211
//  994                                         setupRadio( curChannel );
//  995                                     }
//  996                                 }else{
//  997                                     if( dec( &cyclesTo500 ) ) { 
??main_loop_20:
        ; Setup parameters for call to function dec
        MOV     R2,#(cyclesTo500 & 0xff)
        MOV     R3,#((cyclesTo500 >> 8) & 0xff)
        LCALL   `dec`
        MOV     A,R1
        JZ      ??main_loop_23
//  998                                         cyclesTo10 = page.defCyclesTo10;    cycles2Step10Channel = 0;
        LCALL   ?Subroutine41
??CrossCallReturnLabel_78:
        MOV     DPTR,#cycles2Step10Channel
        CLR     A
        MOVX    @DPTR,A
        INC     DPTR
        LCALL   ?Subroutine76
//  999                                         //cyclesTo10 = cyclesDefaults[1];    cycles2Step10Channel = 0;
// 1000                                         page.is500Always = TRUE; cyclesToStep500Channel = page.defCyclesToStep500Channel; //cyclesDefaults[2]; //page.defCyclesToStep500Channel; 
??CrossCallReturnLabel_204:
        SETB    0xE0 /* A   */.6
        LCALL   ?Subroutine22
// 1001                                         if( page.starting500Channel == 0xFF ) page.starting500Channel = page.channel;
??CrossCallReturnLabel_41:
        XRL     A,#0xff
        JNZ     ??main_loop_24
        MOV     DPTR,#(page + 164)
        MOVX    A,@DPTR
        MOV     DPTR,#(page + 218)
        MOVX    @DPTR,A
// 1002                                         curChannel = page.starting500Channel;
??main_loop_24:
        MOVX    A,@DPTR
        LCALL   ?Subroutine8
// 1003                                         ticks[ Hop ] = 0;
// 1004                                         setupRadio( curChannel );
??CrossCallReturnLabel_4:
        ; Setup parameters for call to function setupRadio
        MOV     DPTR,#curChannel
        MOVX    A,@DPTR
        SJMP    ??main_loop_22
// 1005                                     }else if( dec( &cycles2Step10Channel ) ){
??main_loop_23:
        ; Setup parameters for call to function dec
        MOV     R2,#(cycles2Step10Channel & 0xff)
        MOV     R3,#((cycles2Step10Channel >> 8) & 0xff)
        LCALL   `dec`
        MOV     A,R1
        JZ      ??main_loop_7
// 1006                                         //hop(); 
// 1007                                         CHANNR = curChannel; hop(); curChannel = CHANNR; 
        LCALL   ?Subroutine45
